Component: Arm Compiler for Embedded 6.19 Tool: armlink [5e73cb00]

==============================================================================

Section Cross References

    startup_da14585_586.o(RESET) refers to startup_da14585_586.o(STACK) for __initial_sp
    startup_da14585_586.o(RESET) refers to startup_da14585_586.o(.text) for Reset_Handler
    startup_da14585_586.o(RESET) refers to lto-llvm-0469b9.o(.text.BLE_WAKEUP_LP_Handler) for BLE_WAKEUP_LP_Handler
    startup_da14585_586.o(RESET) refers to lto-llvm-0469b9.o(.text.rwble_isr) for rwble_isr
    startup_da14585_586.o(RESET) refers to lto-llvm-0469b9.o(.text.UART2_Handler) for UART2_Handler
    startup_da14585_586.o(RESET) refers to lto-llvm-0469b9.o(.text.I2C_Handler) for I2C_Handler
    startup_da14585_586.o(RESET) refers to lto-llvm-0469b9.o(.text.ADC_Handler) for ADC_Handler
    startup_da14585_586.o(RESET) refers to lto-llvm-0469b9.o(.text.GPIO0_Handler) for GPIO0_Handler
    startup_da14585_586.o(RESET) refers to lto-llvm-0469b9.o(.text.GPIO1_Handler) for GPIO1_Handler
    startup_da14585_586.o(RESET) refers to lto-llvm-0469b9.o(.text.GPIO2_Handler) for GPIO2_Handler
    startup_da14585_586.o(RESET) refers to lto-llvm-0469b9.o(.text.GPIO3_Handler) for GPIO3_Handler
    startup_da14585_586.o(RESET) refers to lto-llvm-0469b9.o(.text.GPIO4_Handler) for GPIO4_Handler
    startup_da14585_586.o(RESET) refers to lto-llvm-0469b9.o(.text.WKUP_QUADEC_Handler) for WKUP_QUADEC_Handler
    startup_da14585_586.o(.text) refers to lto-llvm-0469b9.o(system_DA14xxx) for SystemInit
    startup_da14585_586.o(.text) refers to entry.o(.ARM.Collect$$$$00000000) for __main
    startup_da14585_586.o(.text) refers to lto-llvm-0469b9.o(.text.NMI_HandlerC) for NMI_HandlerC
    startup_da14585_586.o(.text) refers to lto-llvm-0469b9.o(.text.HardFault_HandlerC) for HardFault_HandlerC
    patch.o(.text) refers to patch.o(.constdata) for .constdata
    patch.o(.constdata) refers to patch.o(.text) for PATCHED_llcp_length_req_handler
    patch.o(.constdata) refers to smpc_util.o(.text) for PATCHED_smpc_dhkey_calc_start
    entry.o(.ARM.Collect$$$$00000000) refers (Special) to entry10a.o(.ARM.Collect$$$$0000000D) for __rt_final_cpp
    entry.o(.ARM.Collect$$$$00000000) refers (Special) to entry11a.o(.ARM.Collect$$$$0000000F) for __rt_final_exit
    entry.o(.ARM.Collect$$$$00000000) refers (Special) to entry7b.o(.ARM.Collect$$$$00000008) for _main_clock
    entry.o(.ARM.Collect$$$$00000000) refers (Special) to entry8b.o(.ARM.Collect$$$$0000000A) for _main_cpp_init
    entry.o(.ARM.Collect$$$$00000000) refers (Special) to entry9a.o(.ARM.Collect$$$$0000000B) for _main_init
    entry.o(.ARM.Collect$$$$00000000) refers (Special) to entry5.o(.ARM.Collect$$$$00000004) for _main_scatterload
    entry.o(.ARM.Collect$$$$00000000) refers (Special) to entry2.o(.ARM.Collect$$$$00000001) for _main_stk
    entry2.o(.ARM.Collect$$$$00000001) refers to entry2.o(.ARM.Collect$$$$00002712) for __lit__00000000
    entry2.o(.ARM.Collect$$$$00002712) refers to startup_da14585_586.o(STACK) for __initial_sp
    entry2.o(__vectab_stack_and_reset_area) refers to startup_da14585_586.o(STACK) for __initial_sp
    entry2.o(__vectab_stack_and_reset_area) refers to entry.o(.ARM.Collect$$$$00000000) for __main
    entry5.o(.ARM.Collect$$$$00000004) refers to init.o(.text) for __scatterload
    entry9a.o(.ARM.Collect$$$$0000000B) refers to lto-llvm-0469b9.o(.text.main) for main
    entry9b.o(.ARM.Collect$$$$0000000C) refers to lto-llvm-0469b9.o(.text.main) for main
    init.o(.text) refers to entry5.o(.ARM.Collect$$$$00000004) for __main_after_scatterload
    lto-llvm-0469b9.o(.ARM.exidxsystem_DA14xxx) refers to lto-llvm-0469b9.o(system_DA14xxx) for [Anonymous Symbol]
    lto-llvm-0469b9.o(.ARM.exidx.text.HardFault_HandlerC) refers to lto-llvm-0469b9.o(.text.HardFault_HandlerC) for [Anonymous Symbol]
    lto-llvm-0469b9.o(.ARM.exidx.text.NMI_HandlerC) refers to lto-llvm-0469b9.o(.text.NMI_HandlerC) for [Anonymous Symbol]
    lto-llvm-0469b9.o(.text.arch_printf) refers to lto-llvm-0469b9.o(.rodata.str1.1) for [Anonymous Symbol]
    lto-llvm-0469b9.o(.text.arch_printf) refers to lto-llvm-0469b9.o(.bss.retention_mem_area0) for [Anonymous Symbol]
    lto-llvm-0469b9.o(.text.arch_printf) refers to lto-llvm-0469b9.o(.bss.current_msg_buffer) for [Anonymous Symbol]
    lto-llvm-0469b9.o(.ARM.exidx.text.arch_printf) refers to lto-llvm-0469b9.o(.text.arch_printf) for [Anonymous Symbol]
    lto-llvm-0469b9.o(.text.uart_callback) refers to lto-llvm-0469b9.o(.bss.retention_mem_area0) for [Anonymous Symbol]
    lto-llvm-0469b9.o(.ARM.exidx.text.uart_callback) refers to lto-llvm-0469b9.o(.text.uart_callback) for [Anonymous Symbol]
    lto-llvm-0469b9.o(.text.nvds_get_func) refers to lto-llvm-0469b9.o(.bss.retention_mem_area0) for [Anonymous Symbol]
    lto-llvm-0469b9.o(.text.nvds_get_func) refers to lto-llvm-0469b9.o(.rodata.nvds_data_storage) for [Anonymous Symbol]
    lto-llvm-0469b9.o(.ARM.exidx.text.nvds_get_func) refers to lto-llvm-0469b9.o(.text.nvds_get_func) for [Anonymous Symbol]
    lto-llvm-0469b9.o(.ARM.exidx.text.nvds_init_func) refers to lto-llvm-0469b9.o(.text.nvds_init_func) for [Anonymous Symbol]
    lto-llvm-0469b9.o(.ARM.exidx.text.nvds_del_func) refers to lto-llvm-0469b9.o(.text.nvds_del_func) for [Anonymous Symbol]
    lto-llvm-0469b9.o(.ARM.exidx.text.nvds_put_func) refers to lto-llvm-0469b9.o(.text.nvds_put_func) for [Anonymous Symbol]
    lto-llvm-0469b9.o(.text.main) refers to lto-llvm-0469b9.o(.bss.retention_mem_area0) for [Anonymous Symbol]
    lto-llvm-0469b9.o(.text.main) refers to patch.o(.text) for patch_global_vars_init
    lto-llvm-0469b9.o(.text.main) refers to lto-llvm-0469b9.o(.text.periph_init) for periph_init
    lto-llvm-0469b9.o(.text.main) refers to lto-llvm-0469b9.o(.rodata.gap_cfg_user_var_struct) for [Anonymous Symbol]
    lto-llvm-0469b9.o(.text.main) refers to lto-llvm-0469b9.o(.rodata.rom_func_addr_table_var) for [Anonymous Symbol]
    lto-llvm-0469b9.o(.text.main) refers to lto-llvm-0469b9.o(.rodata.rom_cfg_table_var) for [Anonymous Symbol]
    lto-llvm-0469b9.o(.text.main) refers to lto-llvm-0469b9.o(.bss.trng_buffer_area_zi) for [Anonymous Symbol]
    lto-llvm-0469b9.o(.text.main) refers to lto-llvm-0469b9.o(.text.user_gamepad_enable_buttons) for user_gamepad_enable_buttons
    lto-llvm-0469b9.o(.text.main) refers to lto-llvm-0469b9.o(.bss.trng_bits) for [Anonymous Symbol]
    lto-llvm-0469b9.o(.text.main) refers to lto-llvm-0469b9.o(.rodata.str1.4) for [Anonymous Symbol]
    lto-llvm-0469b9.o(.text.main) refers to lto-llvm-0469b9.o(.rodata.TASK_DESC_APP) for [Anonymous Symbol]
    lto-llvm-0469b9.o(.text.main) refers to rf_calibration.o(.text) for rf_calibration_585
    lto-llvm-0469b9.o(.text.main) refers to lto-llvm-0469b9.o(.bss.current_msg_buffer) for [Anonymous Symbol]
    lto-llvm-0469b9.o(.text.main) refers to lto-llvm-0469b9.o(.text.uart_callback) for uart_callback
    lto-llvm-0469b9.o(.text.main) refers to lto-llvm-0469b9.o(.data.startup_sleep_delay) for [Anonymous Symbol]
    lto-llvm-0469b9.o(.ARM.exidx.text.main) refers to lto-llvm-0469b9.o(.text.main) for [Anonymous Symbol]
    lto-llvm-0469b9.o(.ARM.exidx.text.platform_reset_func) refers to lto-llvm-0469b9.o(.text.platform_reset_func) for [Anonymous Symbol]
    lto-llvm-0469b9.o(.ARM.exidx.text.dbg_init_func_empty) refers to lto-llvm-0469b9.o(.text.dbg_init_func_empty) for [Anonymous Symbol]
    lto-llvm-0469b9.o(.ARM.exidx.text.dbg_platform_reset_complete_func_empty) refers to lto-llvm-0469b9.o(.text.dbg_platform_reset_complete_func_empty) for [Anonymous Symbol]
    lto-llvm-0469b9.o(.ARM.exidx.text.crypto_init_func) refers to lto-llvm-0469b9.o(.text.crypto_init_func) for [Anonymous Symbol]
    lto-llvm-0469b9.o(.ARM.exidx.text.dia_rand_func) refers to lto-llvm-0469b9.o(.text.dia_rand_func) for [Anonymous Symbol]
    lto-llvm-0469b9.o(.ARM.exidx.text.dia_srand_func) refers to lto-llvm-0469b9.o(.text.dia_srand_func) for [Anonymous Symbol]
    lto-llvm-0469b9.o(.ARM.exidx.text.ba431_get_rand_func) refers to lto-llvm-0469b9.o(.text.ba431_get_rand_func) for [Anonymous Symbol]
    lto-llvm-0469b9.o(.ARM.exidx.text.smpm_ecdh_key_create_empty_func) refers to lto-llvm-0469b9.o(.text.smpm_ecdh_key_create_empty_func) for [Anonymous Symbol]
    lto-llvm-0469b9.o(.ARM.exidx.text.lld_sleep_us_2_lpcycles_sel_func) refers to lto-llvm-0469b9.o(.text.lld_sleep_us_2_lpcycles_sel_func) for [Anonymous Symbol]
    lto-llvm-0469b9.o(.ARM.exidx.text.lld_sleep_lpcycles_2_us_sel_func) refers to lto-llvm-0469b9.o(.text.lld_sleep_lpcycles_2_us_sel_func) for [Anonymous Symbol]
    lto-llvm-0469b9.o(.text.lld_sleep_init_func) refers to lto-llvm-0469b9.o(.bss.retention_mem_area0) for [Anonymous Symbol]
    lto-llvm-0469b9.o(.ARM.exidx.text.lld_sleep_init_func) refers to lto-llvm-0469b9.o(.text.lld_sleep_init_func) for [Anonymous Symbol]
    lto-llvm-0469b9.o(.ARM.exidx.text.GPIO0_Handler) refers to lto-llvm-0469b9.o(.text.GPIO0_Handler) for [Anonymous Symbol]
    lto-llvm-0469b9.o(.ARM.exidx.text.GPIO1_Handler) refers to lto-llvm-0469b9.o(.text.GPIO1_Handler) for [Anonymous Symbol]
    lto-llvm-0469b9.o(.ARM.exidx.text.GPIO2_Handler) refers to lto-llvm-0469b9.o(.text.GPIO2_Handler) for [Anonymous Symbol]
    lto-llvm-0469b9.o(.ARM.exidx.text.GPIO3_Handler) refers to lto-llvm-0469b9.o(.text.GPIO3_Handler) for [Anonymous Symbol]
    lto-llvm-0469b9.o(.ARM.exidx.text.GPIO4_Handler) refers to lto-llvm-0469b9.o(.text.GPIO4_Handler) for [Anonymous Symbol]
    lto-llvm-0469b9.o(.text.WKUP_QUADEC_Handler) refers to lto-llvm-0469b9.o(.text.user_gamepad_button_cb) for user_gamepad_button_cb
    lto-llvm-0469b9.o(.text.WKUP_QUADEC_Handler) refers to lto-llvm-0469b9.o(.bss.retention_mem_area0) for [Anonymous Symbol]
    lto-llvm-0469b9.o(.ARM.exidx.text.WKUP_QUADEC_Handler) refers to lto-llvm-0469b9.o(.text.WKUP_QUADEC_Handler) for [Anonymous Symbol]
    lto-llvm-0469b9.o(.ARM.exidx.text.adc_get_sample) refers to lto-llvm-0469b9.o(.text.adc_get_sample) for [Anonymous Symbol]
    lto-llvm-0469b9.o(.ARM.exidx.text.ADC_Handler) refers to lto-llvm-0469b9.o(.text.ADC_Handler) for [Anonymous Symbol]
    lto-llvm-0469b9.o(.ARM.exidx.text.I2C_Handler) refers to lto-llvm-0469b9.o(.text.I2C_Handler) for [Anonymous Symbol]
    lto-llvm-0469b9.o(.text.UART2_Handler) refers to lto-llvm-0469b9.o(.text.uart_callback) for uart_callback
    lto-llvm-0469b9.o(.text.UART2_Handler) refers to lto-llvm-0469b9.o(.bss.retention_mem_area0) for [Anonymous Symbol]
    lto-llvm-0469b9.o(.ARM.exidx.text.UART2_Handler) refers to lto-llvm-0469b9.o(.text.UART2_Handler) for [Anonymous Symbol]
    lto-llvm-0469b9.o(.text.lld_sleep_compensate_func) refers to lto-llvm-0469b9.o(.bss.retention_mem_area0) for [Anonymous Symbol]
    lto-llvm-0469b9.o(.text.lld_sleep_compensate_func) refers to lto-llvm-0469b9.o(.bss.cal_failed) for [Anonymous Symbol]
    lto-llvm-0469b9.o(.ARM.exidx.text.lld_sleep_compensate_func) refers to lto-llvm-0469b9.o(.text.lld_sleep_compensate_func) for [Anonymous Symbol]
    lto-llvm-0469b9.o(.text.BLE_WAKEUP_LP_Handler) refers to lto-llvm-0469b9.o(.text.periph_init) for periph_init
    lto-llvm-0469b9.o(.text.BLE_WAKEUP_LP_Handler) refers to lto-llvm-0469b9.o(.bss.retention_mem_area0) for [Anonymous Symbol]
    lto-llvm-0469b9.o(.text.BLE_WAKEUP_LP_Handler) refers to lto-llvm-0469b9.o(.bss.cal_failed) for [Anonymous Symbol]
    lto-llvm-0469b9.o(.ARM.exidx.text.BLE_WAKEUP_LP_Handler) refers to lto-llvm-0469b9.o(.text.BLE_WAKEUP_LP_Handler) for [Anonymous Symbol]
    lto-llvm-0469b9.o(.text.rwble_isr) refers to lto-llvm-0469b9.o(.bss.retention_mem_area0) for [Anonymous Symbol]
    lto-llvm-0469b9.o(.ARM.exidx.text.rwble_isr) refers to lto-llvm-0469b9.o(.text.rwble_isr) for [Anonymous Symbol]
    lto-llvm-0469b9.o(.text.rf_init_func) refers to rf_calibration.o(.text) for rf_calibration_585
    lto-llvm-0469b9.o(.text.rf_init_func) refers to lto-llvm-0469b9.o(.text.rf_reg_wr) for rf_reg_wr
    lto-llvm-0469b9.o(.text.rf_init_func) refers to lto-llvm-0469b9.o(.text.rf_reg_rd) for rf_reg_rd
    lto-llvm-0469b9.o(.text.rf_init_func) refers to lto-llvm-0469b9.o(.text.rf_sleep) for rf_sleep
    lto-llvm-0469b9.o(.text.rf_init_func) refers to lto-llvm-0469b9.o(.text.rf_txpwr_dbm_get) for rf_txpwr_dbm_get
    lto-llvm-0469b9.o(.text.rf_init_func) refers to lto-llvm-0469b9.o(.text.RADIOCNTL_Handler) for RADIOCNTL_Handler
    lto-llvm-0469b9.o(.text.rf_init_func) refers to lto-llvm-0469b9.o(.text.rf_reset) for rf_reset
    lto-llvm-0469b9.o(.text.rf_init_func) refers to lto-llvm-0469b9.o(.text.rf_rssi_convert) for rf_rssi_convert
    lto-llvm-0469b9.o(.text.rf_init_func) refers to lto-llvm-0469b9.o(.text.rf_force_agc_enable) for rf_force_agc_enable
    lto-llvm-0469b9.o(.text.rf_init_func) refers to lto-llvm-0469b9.o(.bss.retention_mem_area0) for [Anonymous Symbol]
    lto-llvm-0469b9.o(.ARM.exidx.text.rf_init_func) refers to lto-llvm-0469b9.o(.text.rf_init_func) for [Anonymous Symbol]
    lto-llvm-0469b9.o(.ARM.exidx.text.rf_reg_rd) refers to lto-llvm-0469b9.o(.text.rf_reg_rd) for [Anonymous Symbol]
    lto-llvm-0469b9.o(.ARM.exidx.text.rf_reg_wr) refers to lto-llvm-0469b9.o(.text.rf_reg_wr) for [Anonymous Symbol]
    lto-llvm-0469b9.o(.ARM.exidx.text.rf_txpwr_dbm_get) refers to lto-llvm-0469b9.o(.text.rf_txpwr_dbm_get) for [Anonymous Symbol]
    lto-llvm-0469b9.o(.ARM.exidx.text.rf_sleep) refers to lto-llvm-0469b9.o(.text.rf_sleep) for [Anonymous Symbol]
    lto-llvm-0469b9.o(.ARM.exidx.text.rf_reset) refers to lto-llvm-0469b9.o(.text.rf_reset) for [Anonymous Symbol]
    lto-llvm-0469b9.o(.ARM.exidx.text.RADIOCNTL_Handler) refers to lto-llvm-0469b9.o(.text.RADIOCNTL_Handler) for [Anonymous Symbol]
    lto-llvm-0469b9.o(.ARM.exidx.text.rf_force_agc_enable) refers to lto-llvm-0469b9.o(.text.rf_force_agc_enable) for [Anonymous Symbol]
    lto-llvm-0469b9.o(.ARM.exidx.text.rf_rssi_convert) refers to lto-llvm-0469b9.o(.text.rf_rssi_convert) for [Anonymous Symbol]
    lto-llvm-0469b9.o(.text.rf_reinit_func) refers to lto-llvm-0469b9.o(.bss.retention_mem_area0) for [Anonymous Symbol]
    lto-llvm-0469b9.o(.ARM.exidx.text.rf_reinit_func) refers to lto-llvm-0469b9.o(.text.rf_reinit_func) for [Anonymous Symbol]
    lto-llvm-0469b9.o(.text.diss_init) refers to lto-llvm-0469b9.o(.rodata.diss_att_db) for [Anonymous Symbol]
    lto-llvm-0469b9.o(.text.diss_init) refers to lto-llvm-0469b9.o(.rodata.diss_default_handler) for [Anonymous Symbol]
    lto-llvm-0469b9.o(.ARM.exidx.text.diss_init) refers to lto-llvm-0469b9.o(.text.diss_init) for [Anonymous Symbol]
    lto-llvm-0469b9.o(.ARM.exidx.text.diss_destroy) refers to lto-llvm-0469b9.o(.text.diss_destroy) for [Anonymous Symbol]
    lto-llvm-0469b9.o(.ARM.exidx.text.diss_create) refers to lto-llvm-0469b9.o(.text.diss_create) for [Anonymous Symbol]
    lto-llvm-0469b9.o(.ARM.exidx.text.diss_cleanup) refers to lto-llvm-0469b9.o(.text.diss_cleanup) for [Anonymous Symbol]
    lto-llvm-0469b9.o(.ARM.exidx.text.diss_value_to_handle) refers to lto-llvm-0469b9.o(.text.diss_value_to_handle) for [Anonymous Symbol]
    lto-llvm-0469b9.o(.text.diss_set_value_req_handler) refers to lto-llvm-0469b9.o(.text.prf_env_get) for prf_env_get
    lto-llvm-0469b9.o(.text.diss_set_value_req_handler) refers to lto-llvm-0469b9.o(.text.diss_value_to_handle) for diss_value_to_handle
    lto-llvm-0469b9.o(.ARM.exidx.text.diss_set_value_req_handler) refers to lto-llvm-0469b9.o(.text.diss_set_value_req_handler) for [Anonymous Symbol]
    lto-llvm-0469b9.o(.text.gattc_read_req_ind_handler) refers to lto-llvm-0469b9.o(.text.prf_env_get) for prf_env_get
    lto-llvm-0469b9.o(.ARM.exidx.text.gattc_read_req_ind_handler) refers to lto-llvm-0469b9.o(.text.gattc_read_req_ind_handler) for [Anonymous Symbol]
    lto-llvm-0469b9.o(.text.diss_value_cfm_handler) refers to lto-llvm-0469b9.o(.text.prf_env_get) for prf_env_get
    lto-llvm-0469b9.o(.text.diss_value_cfm_handler) refers to lto-llvm-0469b9.o(.text.diss_value_to_handle) for diss_value_to_handle
    lto-llvm-0469b9.o(.ARM.exidx.text.diss_value_cfm_handler) refers to lto-llvm-0469b9.o(.text.diss_value_cfm_handler) for [Anonymous Symbol]
    lto-llvm-0469b9.o(.text.custs1_init) refers to lto-llvm-0469b9.o(.text.prf_env_get) for prf_env_get
    lto-llvm-0469b9.o(.text.custs1_init) refers to lto-llvm-0469b9.o(.rodata.custs1_svc1) for [Anonymous Symbol]
    lto-llvm-0469b9.o(.text.custs1_init) refers to lto-llvm-0469b9.o(.rodata.custs1_att_db) for [Anonymous Symbol]
    lto-llvm-0469b9.o(.text.custs1_init) refers to lto-llvm-0469b9.o(.rodata.custs1_default_handler) for [Anonymous Symbol]
    lto-llvm-0469b9.o(.ARM.exidx.text.custs1_init) refers to lto-llvm-0469b9.o(.text.custs1_init) for [Anonymous Symbol]
    lto-llvm-0469b9.o(.ARM.exidx.text.custs1_destroy) refers to lto-llvm-0469b9.o(.text.custs1_destroy) for [Anonymous Symbol]
    lto-llvm-0469b9.o(.text.custs1_create) refers to lto-llvm-0469b9.o(.text.custs1_set_ccc_value) for custs1_set_ccc_value
    lto-llvm-0469b9.o(.ARM.exidx.text.custs1_create) refers to lto-llvm-0469b9.o(.text.custs1_create) for [Anonymous Symbol]
    lto-llvm-0469b9.o(.text.custs1_cleanup) refers to lto-llvm-0469b9.o(.text.custs1_set_ccc_value) for custs1_set_ccc_value
    lto-llvm-0469b9.o(.ARM.exidx.text.custs1_cleanup) refers to lto-llvm-0469b9.o(.text.custs1_cleanup) for [Anonymous Symbol]
    lto-llvm-0469b9.o(.text.gattc_read_req_ind_handler.67) refers to lto-llvm-0469b9.o(.text.prf_env_get) for prf_env_get
    lto-llvm-0469b9.o(.text.gattc_read_req_ind_handler.67) refers to lto-llvm-0469b9.o(.rodata.custs1_att_db) for [Anonymous Symbol]
    lto-llvm-0469b9.o(.ARM.exidx.text.gattc_read_req_ind_handler.67) refers to lto-llvm-0469b9.o(.text.gattc_read_req_ind_handler.67) for [Anonymous Symbol]
    lto-llvm-0469b9.o(.text.gattc_write_req_ind_handler) refers to lto-llvm-0469b9.o(.text.prf_env_get) for prf_env_get
    lto-llvm-0469b9.o(.text.gattc_write_req_ind_handler) refers to lto-llvm-0469b9.o(.text.custs1_set_ccc_value) for custs1_set_ccc_value
    lto-llvm-0469b9.o(.text.gattc_write_req_ind_handler) refers to lto-llvm-0469b9.o(.rodata.custs1_att_db) for [Anonymous Symbol]
    lto-llvm-0469b9.o(.ARM.exidx.text.gattc_write_req_ind_handler) refers to lto-llvm-0469b9.o(.text.gattc_write_req_ind_handler) for [Anonymous Symbol]
    lto-llvm-0469b9.o(.text.gattc_att_info_req_ind_handler) refers to lto-llvm-0469b9.o(.text.prf_env_get) for prf_env_get
    lto-llvm-0469b9.o(.ARM.exidx.text.gattc_att_info_req_ind_handler) refers to lto-llvm-0469b9.o(.text.gattc_att_info_req_ind_handler) for [Anonymous Symbol]
    lto-llvm-0469b9.o(.text.gattc_cmp_evt_handler) refers to lto-llvm-0469b9.o(.text.custs1_exe_operation) for custs1_exe_operation
    lto-llvm-0469b9.o(.ARM.exidx.text.gattc_cmp_evt_handler) refers to lto-llvm-0469b9.o(.text.gattc_cmp_evt_handler) for [Anonymous Symbol]
    lto-llvm-0469b9.o(.text.custs1_val_ntf_req_handler) refers to lto-llvm-0469b9.o(.text.prf_env_get) for prf_env_get
    lto-llvm-0469b9.o(.text.custs1_val_ntf_req_handler) refers to lto-llvm-0469b9.o(.text.custs1_exe_operation) for custs1_exe_operation
    lto-llvm-0469b9.o(.ARM.exidx.text.custs1_val_ntf_req_handler) refers to lto-llvm-0469b9.o(.text.custs1_val_ntf_req_handler) for [Anonymous Symbol]
    lto-llvm-0469b9.o(.text.custs1_val_set_req_handler) refers to lto-llvm-0469b9.o(.text.prf_env_get) for prf_env_get
    lto-llvm-0469b9.o(.ARM.exidx.text.custs1_val_set_req_handler) refers to lto-llvm-0469b9.o(.text.custs1_val_set_req_handler) for [Anonymous Symbol]
    lto-llvm-0469b9.o(.text.custs1_val_ind_req_handler) refers to lto-llvm-0469b9.o(.text.prf_env_get) for prf_env_get
    lto-llvm-0469b9.o(.text.custs1_val_ind_req_handler) refers to lto-llvm-0469b9.o(.text.custs1_exe_operation) for custs1_exe_operation
    lto-llvm-0469b9.o(.ARM.exidx.text.custs1_val_ind_req_handler) refers to lto-llvm-0469b9.o(.text.custs1_val_ind_req_handler) for [Anonymous Symbol]
    lto-llvm-0469b9.o(.text.custs1_att_info_rsp_handler) refers to lto-llvm-0469b9.o(.text.prf_env_get) for prf_env_get
    lto-llvm-0469b9.o(.ARM.exidx.text.custs1_att_info_rsp_handler) refers to lto-llvm-0469b9.o(.text.custs1_att_info_rsp_handler) for [Anonymous Symbol]
    lto-llvm-0469b9.o(.text.custs1_value_req_rsp_handler) refers to lto-llvm-0469b9.o(.text.prf_env_get) for prf_env_get
    lto-llvm-0469b9.o(.ARM.exidx.text.custs1_value_req_rsp_handler) refers to lto-llvm-0469b9.o(.text.custs1_value_req_rsp_handler) for [Anonymous Symbol]
    lto-llvm-0469b9.o(.text.custs1_exe_operation) refers to lto-llvm-0469b9.o(.text.prf_env_get) for prf_env_get
    lto-llvm-0469b9.o(.ARM.exidx.text.custs1_exe_operation) refers to lto-llvm-0469b9.o(.text.custs1_exe_operation) for [Anonymous Symbol]
    lto-llvm-0469b9.o(.text.custs1_set_ccc_value) refers to lto-llvm-0469b9.o(.text.prf_env_get) for prf_env_get
    lto-llvm-0469b9.o(.ARM.exidx.text.custs1_set_ccc_value) refers to lto-llvm-0469b9.o(.text.custs1_set_ccc_value) for [Anonymous Symbol]
    lto-llvm-0469b9.o(.text.prf_init_func) refers to lto-llvm-0469b9.o(.bss.retention_mem_area0) for [Anonymous Symbol]
    lto-llvm-0469b9.o(.text.prf_init_func) refers to lto-llvm-0469b9.o(.rodata.diss_itf) for [Anonymous Symbol]
    lto-llvm-0469b9.o(.text.prf_init_func) refers to lto-llvm-0469b9.o(.rodata.custs1_itf) for [Anonymous Symbol]
    lto-llvm-0469b9.o(.text.prf_init_func) refers to lto-llvm-0469b9.o(.rodata.hogpd_itf) for [Anonymous Symbol]
    lto-llvm-0469b9.o(.ARM.exidx.text.prf_init_func) refers to lto-llvm-0469b9.o(.text.prf_init_func) for [Anonymous Symbol]
    lto-llvm-0469b9.o(.text.prf_add_profile_func) refers to lto-llvm-0469b9.o(.rodata.hogpd_itf) for [Anonymous Symbol]
    lto-llvm-0469b9.o(.text.prf_add_profile_func) refers to lto-llvm-0469b9.o(.rodata.diss_itf) for [Anonymous Symbol]
    lto-llvm-0469b9.o(.text.prf_add_profile_func) refers to lto-llvm-0469b9.o(.rodata.custs1_itf) for [Anonymous Symbol]
    lto-llvm-0469b9.o(.text.prf_add_profile_func) refers to lto-llvm-0469b9.o(.bss.retention_mem_area0) for [Anonymous Symbol]
    lto-llvm-0469b9.o(.ARM.exidx.text.prf_add_profile_func) refers to lto-llvm-0469b9.o(.text.prf_add_profile_func) for [Anonymous Symbol]
    lto-llvm-0469b9.o(.text.prf_create_func) refers to lto-llvm-0469b9.o(.bss.retention_mem_area0) for [Anonymous Symbol]
    lto-llvm-0469b9.o(.text.prf_create_func) refers to lto-llvm-0469b9.o(.rodata.diss_itf) for [Anonymous Symbol]
    lto-llvm-0469b9.o(.text.prf_create_func) refers to lto-llvm-0469b9.o(.rodata.custs1_itf) for [Anonymous Symbol]
    lto-llvm-0469b9.o(.text.prf_create_func) refers to lto-llvm-0469b9.o(.rodata.hogpd_itf) for [Anonymous Symbol]
    lto-llvm-0469b9.o(.ARM.exidx.text.prf_create_func) refers to lto-llvm-0469b9.o(.text.prf_create_func) for [Anonymous Symbol]
    lto-llvm-0469b9.o(.text.prf_cleanup_func) refers to lto-llvm-0469b9.o(.bss.retention_mem_area0) for [Anonymous Symbol]
    lto-llvm-0469b9.o(.text.prf_cleanup_func) refers to lto-llvm-0469b9.o(.rodata.diss_itf) for [Anonymous Symbol]
    lto-llvm-0469b9.o(.text.prf_cleanup_func) refers to lto-llvm-0469b9.o(.rodata.custs1_itf) for [Anonymous Symbol]
    lto-llvm-0469b9.o(.text.prf_cleanup_func) refers to lto-llvm-0469b9.o(.rodata.hogpd_itf) for [Anonymous Symbol]
    lto-llvm-0469b9.o(.ARM.exidx.text.prf_cleanup_func) refers to lto-llvm-0469b9.o(.text.prf_cleanup_func) for [Anonymous Symbol]
    lto-llvm-0469b9.o(.text.prf_env_get) refers to lto-llvm-0469b9.o(.bss.retention_mem_area0) for [Anonymous Symbol]
    lto-llvm-0469b9.o(.ARM.exidx.text.prf_env_get) refers to lto-llvm-0469b9.o(.text.prf_env_get) for [Anonymous Symbol]
    lto-llvm-0469b9.o(.text.prf_get_id_from_task_func) refers to lto-llvm-0469b9.o(.bss.retention_mem_area0) for [Anonymous Symbol]
    lto-llvm-0469b9.o(.ARM.exidx.text.prf_get_id_from_task_func) refers to lto-llvm-0469b9.o(.text.prf_get_id_from_task_func) for [Anonymous Symbol]
    lto-llvm-0469b9.o(.text.prf_get_task_from_id_func) refers to lto-llvm-0469b9.o(.bss.retention_mem_area0) for [Anonymous Symbol]
    lto-llvm-0469b9.o(.ARM.exidx.text.prf_get_task_from_id_func) refers to lto-llvm-0469b9.o(.text.prf_get_task_from_id_func) for [Anonymous Symbol]
    lto-llvm-0469b9.o(.text.hogpd_init) refers to lto-llvm-0469b9.o(.rodata.hids_att_db) for [Anonymous Symbol]
    lto-llvm-0469b9.o(.text.hogpd_init) refers to lto-llvm-0469b9.o(.rodata.hogpd_default_handler) for [Anonymous Symbol]
    lto-llvm-0469b9.o(.ARM.exidx.text.hogpd_init) refers to lto-llvm-0469b9.o(.text.hogpd_init) for [Anonymous Symbol]
    lto-llvm-0469b9.o(.ARM.exidx.text.hogpd_destroy) refers to lto-llvm-0469b9.o(.text.hogpd_destroy) for [Anonymous Symbol]
    lto-llvm-0469b9.o(.ARM.exidx.text.hogpd_create) refers to lto-llvm-0469b9.o(.text.hogpd_create) for [Anonymous Symbol]
    lto-llvm-0469b9.o(.ARM.exidx.text.hogpd_cleanup) refers to lto-llvm-0469b9.o(.text.hogpd_cleanup) for [Anonymous Symbol]
    lto-llvm-0469b9.o(.ARM.exidx.text.hogpd_get_att_handle) refers to lto-llvm-0469b9.o(.text.hogpd_get_att_handle) for [Anonymous Symbol]
    lto-llvm-0469b9.o(.ARM.exidx.text.hogpd_get_att_idx) refers to lto-llvm-0469b9.o(.text.hogpd_get_att_idx) for [Anonymous Symbol]
    lto-llvm-0469b9.o(.text.hogpd_enable_req_handler) refers to lto-llvm-0469b9.o(.text.prf_env_get) for prf_env_get
    lto-llvm-0469b9.o(.ARM.exidx.text.hogpd_enable_req_handler) refers to lto-llvm-0469b9.o(.text.hogpd_enable_req_handler) for [Anonymous Symbol]
    lto-llvm-0469b9.o(.text.hogpd_report_upd_req_handler) refers to lto-llvm-0469b9.o(.text.prf_env_get) for prf_env_get
    lto-llvm-0469b9.o(.text.hogpd_report_upd_req_handler) refers to lto-llvm-0469b9.o(.text.hogpd_get_att_handle) for hogpd_get_att_handle
    lto-llvm-0469b9.o(.ARM.exidx.text.hogpd_report_upd_req_handler) refers to lto-llvm-0469b9.o(.text.hogpd_report_upd_req_handler) for [Anonymous Symbol]
    lto-llvm-0469b9.o(.text.hogpd_report_cfm_handler) refers to lto-llvm-0469b9.o(.text.prf_env_get) for prf_env_get
    lto-llvm-0469b9.o(.text.hogpd_report_cfm_handler) refers to lto-llvm-0469b9.o(.text.hogpd_get_att_handle) for hogpd_get_att_handle
    lto-llvm-0469b9.o(.ARM.exidx.text.hogpd_report_cfm_handler) refers to lto-llvm-0469b9.o(.text.hogpd_report_cfm_handler) for [Anonymous Symbol]
    lto-llvm-0469b9.o(.text.hogpd_proto_mode_cfm_handler) refers to lto-llvm-0469b9.o(.text.prf_env_get) for prf_env_get
    lto-llvm-0469b9.o(.text.hogpd_proto_mode_cfm_handler) refers to lto-llvm-0469b9.o(.text.hogpd_get_att_handle) for hogpd_get_att_handle
    lto-llvm-0469b9.o(.ARM.exidx.text.hogpd_proto_mode_cfm_handler) refers to lto-llvm-0469b9.o(.text.hogpd_proto_mode_cfm_handler) for [Anonymous Symbol]
    lto-llvm-0469b9.o(.text.gattc_att_info_req_ind_handler.94) refers to lto-llvm-0469b9.o(.text.prf_env_get) for prf_env_get
    lto-llvm-0469b9.o(.text.gattc_att_info_req_ind_handler.94) refers to lto-llvm-0469b9.o(.text.hogpd_get_att_idx) for hogpd_get_att_idx
    lto-llvm-0469b9.o(.text.gattc_att_info_req_ind_handler.94) refers to lto-llvm-0469b9.o(.rodata..Lswitch.table.gattc_att_info_req_ind_handler) for [Anonymous Symbol]
    lto-llvm-0469b9.o(.ARM.exidx.text.gattc_att_info_req_ind_handler.94) refers to lto-llvm-0469b9.o(.text.gattc_att_info_req_ind_handler.94) for [Anonymous Symbol]
    lto-llvm-0469b9.o(.text.gattc_write_req_ind_handler.95) refers to lto-llvm-0469b9.o(.text.prf_env_get) for prf_env_get
    lto-llvm-0469b9.o(.text.gattc_write_req_ind_handler.95) refers to lto-llvm-0469b9.o(.text.hogpd_get_att_idx) for hogpd_get_att_idx
    lto-llvm-0469b9.o(.ARM.exidx.text.gattc_write_req_ind_handler.95) refers to lto-llvm-0469b9.o(.text.gattc_write_req_ind_handler.95) for [Anonymous Symbol]
    lto-llvm-0469b9.o(.text.gattc_read_req_ind_handler.96) refers to lto-llvm-0469b9.o(.text.prf_env_get) for prf_env_get
    lto-llvm-0469b9.o(.text.gattc_read_req_ind_handler.96) refers to lto-llvm-0469b9.o(.text.hogpd_get_att_idx) for hogpd_get_att_idx
    lto-llvm-0469b9.o(.ARM.exidx.text.gattc_read_req_ind_handler.96) refers to lto-llvm-0469b9.o(.text.gattc_read_req_ind_handler.96) for [Anonymous Symbol]
    lto-llvm-0469b9.o(.text.gattc_cmp_evt_handler.97) refers to lto-llvm-0469b9.o(.text.prf_env_get) for prf_env_get
    lto-llvm-0469b9.o(.ARM.exidx.text.gattc_cmp_evt_handler.97) refers to lto-llvm-0469b9.o(.text.gattc_cmp_evt_handler.97) for [Anonymous Symbol]
    lto-llvm-0469b9.o(.text.app_db_init_next) refers to lto-llvm-0469b9.o(.bss.retention_mem_area0) for [Anonymous Symbol]
    lto-llvm-0469b9.o(.text.app_db_init_next) refers to lto-llvm-0469b9.o(.rodata.user_prf_funcs) for [Anonymous Symbol]
    lto-llvm-0469b9.o(.text.app_db_init_next) refers to lto-llvm-0469b9.o(.rodata.prf_funcs) for [Anonymous Symbol]
    lto-llvm-0469b9.o(.text.app_db_init_next) refers to lto-llvm-0469b9.o(.rodata.cust_prf_funcs) for [Anonymous Symbol]
    lto-llvm-0469b9.o(.ARM.exidx.text.app_db_init_next) refers to lto-llvm-0469b9.o(.text.app_db_init_next) for [Anonymous Symbol]
    lto-llvm-0469b9.o(.ARM.exidx.text.gapm_device_ready_ind_handler) refers to lto-llvm-0469b9.o(.text.gapm_device_ready_ind_handler) for [Anonymous Symbol]
    lto-llvm-0469b9.o(.text.gapm_cmp_evt_handler) refers to lto-llvm-0469b9.o(.text.user_catch_rest_hndl) for user_catch_rest_hndl
    lto-llvm-0469b9.o(.text.gapm_cmp_evt_handler) refers to lto-llvm-0469b9.o(.text.app_db_init_next) for app_db_init_next
    lto-llvm-0469b9.o(.text.gapm_cmp_evt_handler) refers to lto-llvm-0469b9.o(.bss.retention_mem_area0) for [Anonymous Symbol]
    lto-llvm-0469b9.o(.text.gapm_cmp_evt_handler) refers to lto-llvm-0469b9.o(.rodata..L.str.1.111) for [Anonymous Symbol]
    lto-llvm-0469b9.o(.text.gapm_cmp_evt_handler) refers to lto-llvm-0469b9.o(.rodata.str1.4) for [Anonymous Symbol]
    lto-llvm-0469b9.o(.ARM.exidx.text.gapm_cmp_evt_handler) refers to lto-llvm-0469b9.o(.text.gapm_cmp_evt_handler) for [Anonymous Symbol]
    lto-llvm-0469b9.o(.text.gapc_cmp_evt_handler) refers to lto-llvm-0469b9.o(.text.user_catch_rest_hndl) for user_catch_rest_hndl
    lto-llvm-0469b9.o(.ARM.exidx.text.gapc_cmp_evt_handler) refers to lto-llvm-0469b9.o(.text.gapc_cmp_evt_handler) for [Anonymous Symbol]
    lto-llvm-0469b9.o(.text.gapc_connection_req_ind_handler) refers to lto-llvm-0469b9.o(.text.app_easy_timer) for app_easy_timer
    lto-llvm-0469b9.o(.text.gapc_connection_req_ind_handler) refers to lto-llvm-0469b9.o(.bss.retention_mem_area0) for [Anonymous Symbol]
    lto-llvm-0469b9.o(.text.gapc_connection_req_ind_handler) refers to lto-llvm-0469b9.o(.text.param_update_request_timer_cb) for param_update_request_timer_cb
    lto-llvm-0469b9.o(.text.gapc_connection_req_ind_handler) refers to lto-llvm-0469b9.o(.rodata..L.str.1.111) for [Anonymous Symbol]
    lto-llvm-0469b9.o(.text.gapc_connection_req_ind_handler) refers to lto-llvm-0469b9.o(.rodata.str1.4) for [Anonymous Symbol]
    lto-llvm-0469b9.o(.text.gapc_connection_req_ind_handler) refers to lto-llvm-0469b9.o(.bss.hogpd_conidx) for [Anonymous Symbol]
    lto-llvm-0469b9.o(.ARM.exidx.text.gapc_connection_req_ind_handler) refers to lto-llvm-0469b9.o(.text.gapc_connection_req_ind_handler) for [Anonymous Symbol]
    lto-llvm-0469b9.o(.text.gapc_disconnect_ind_handler) refers to lto-llvm-0469b9.o(.bss.retention_mem_area0) for [Anonymous Symbol]
    lto-llvm-0469b9.o(.text.gapc_disconnect_ind_handler) refers to lto-llvm-0469b9.o(.text.timer_canceled_handler) for timer_canceled_handler
    lto-llvm-0469b9.o(.text.gapc_disconnect_ind_handler) refers to lto-llvm-0469b9.o(.rodata..L.str.1.111) for [Anonymous Symbol]
    lto-llvm-0469b9.o(.text.gapc_disconnect_ind_handler) refers to lto-llvm-0469b9.o(.rodata.str1.4) for [Anonymous Symbol]
    lto-llvm-0469b9.o(.ARM.exidx.text.gapc_disconnect_ind_handler) refers to lto-llvm-0469b9.o(.text.gapc_disconnect_ind_handler) for [Anonymous Symbol]
    lto-llvm-0469b9.o(.text.gapc_get_dev_info_req_ind_handler) refers to lto-llvm-0469b9.o(.bss.retention_mem_area0) for [Anonymous Symbol]
    lto-llvm-0469b9.o(.ARM.exidx.text.gapc_get_dev_info_req_ind_handler) refers to lto-llvm-0469b9.o(.text.gapc_get_dev_info_req_ind_handler) for [Anonymous Symbol]
    lto-llvm-0469b9.o(.text.gapc_set_dev_info_req_ind_handler) refers to lto-llvm-0469b9.o(.bss.retention_mem_area0) for [Anonymous Symbol]
    lto-llvm-0469b9.o(.ARM.exidx.text.gapc_set_dev_info_req_ind_handler) refers to lto-llvm-0469b9.o(.text.gapc_set_dev_info_req_ind_handler) for [Anonymous Symbol]
    lto-llvm-0469b9.o(.text.gapm_profile_added_ind_handler) refers to lto-llvm-0469b9.o(.text.app_db_init_next) for app_db_init_next
    lto-llvm-0469b9.o(.text.gapm_profile_added_ind_handler) refers to lto-llvm-0469b9.o(.text.adc_get_raw_sample) for adc_get_raw_sample
    lto-llvm-0469b9.o(.text.gapm_profile_added_ind_handler) refers to lto-llvm-0469b9.o(.text.user_gamepad_update_joystick) for user_gamepad_update_joystick
    lto-llvm-0469b9.o(.text.gapm_profile_added_ind_handler) refers to lto-llvm-0469b9.o(.text.app_easy_timer) for app_easy_timer
    lto-llvm-0469b9.o(.text.gapm_profile_added_ind_handler) refers to lto-llvm-0469b9.o(.bss.retention_mem_area0) for [Anonymous Symbol]
    lto-llvm-0469b9.o(.text.gapm_profile_added_ind_handler) refers to lto-llvm-0469b9.o(.text.user_gamepad_axis_polling_cb) for user_gamepad_axis_polling_cb
    lto-llvm-0469b9.o(.text.gapm_profile_added_ind_handler) refers to lto-llvm-0469b9.o(.rodata..L.str.1.111) for [Anonymous Symbol]
    lto-llvm-0469b9.o(.text.gapm_profile_added_ind_handler) refers to lto-llvm-0469b9.o(.rodata.str1.4) for [Anonymous Symbol]
    lto-llvm-0469b9.o(.ARM.exidx.text.gapm_profile_added_ind_handler) refers to lto-llvm-0469b9.o(.text.gapm_profile_added_ind_handler) for [Anonymous Symbol]
    lto-llvm-0469b9.o(.ARM.exidx.text.gapm_adv_report_ind_handler) refers to lto-llvm-0469b9.o(.text.gapm_adv_report_ind_handler) for [Anonymous Symbol]
    lto-llvm-0469b9.o(.ARM.exidx.text.gapc_param_update_req_ind_handler) refers to lto-llvm-0469b9.o(.text.gapc_param_update_req_ind_handler) for [Anonymous Symbol]
    lto-llvm-0469b9.o(.ARM.exidx.text.gapc_le_pkt_size_ind_handler) refers to lto-llvm-0469b9.o(.text.gapc_le_pkt_size_ind_handler) for [Anonymous Symbol]
    lto-llvm-0469b9.o(.ARM.exidx.text.gattc_svc_changed_cfg_ind_handler) refers to lto-llvm-0469b9.o(.text.gattc_svc_changed_cfg_ind_handler) for [Anonymous Symbol]
    lto-llvm-0469b9.o(.ARM.exidx.text.gapc_peer_features_ind_handler) refers to lto-llvm-0469b9.o(.text.gapc_peer_features_ind_handler) for [Anonymous Symbol]
    lto-llvm-0469b9.o(.ARM.exidx.text.gapc_security_ind_handler) refers to lto-llvm-0469b9.o(.text.gapc_security_ind_handler) for [Anonymous Symbol]
    lto-llvm-0469b9.o(.text.gapc_bond_req_ind_handler) refers to lto-llvm-0469b9.o(.text.app_fill_random_byte_array) for app_fill_random_byte_array
    lto-llvm-0469b9.o(.text.gapc_bond_req_ind_handler) refers to lto-llvm-0469b9.o(.bss.retention_mem_area0) for [Anonymous Symbol]
    lto-llvm-0469b9.o(.text.gapc_bond_req_ind_handler) refers to lto-llvm-0469b9.o(.rodata.user_security_conf) for [Anonymous Symbol]
    lto-llvm-0469b9.o(.ARM.exidx.text.gapc_bond_req_ind_handler) refers to lto-llvm-0469b9.o(.text.gapc_bond_req_ind_handler) for [Anonymous Symbol]
    lto-llvm-0469b9.o(.text.gapc_bond_ind_handler) refers to lto-llvm-0469b9.o(.text.user_catch_rest_hndl) for user_catch_rest_hndl
    lto-llvm-0469b9.o(.text.gapc_bond_ind_handler) refers to lto-llvm-0469b9.o(.bss.retention_mem_area0) for [Anonymous Symbol]
    lto-llvm-0469b9.o(.ARM.exidx.text.gapc_bond_ind_handler) refers to lto-llvm-0469b9.o(.text.gapc_bond_ind_handler) for [Anonymous Symbol]
    lto-llvm-0469b9.o(.text.gapc_encrypt_req_ind_handler) refers to lto-llvm-0469b9.o(.bss.retention_mem_area0) for [Anonymous Symbol]
    lto-llvm-0469b9.o(.ARM.exidx.text.gapc_encrypt_req_ind_handler) refers to lto-llvm-0469b9.o(.text.gapc_encrypt_req_ind_handler) for [Anonymous Symbol]
    lto-llvm-0469b9.o(.text.gapc_encrypt_ind_handler) refers to lto-llvm-0469b9.o(.bss.retention_mem_area0) for [Anonymous Symbol]
    lto-llvm-0469b9.o(.ARM.exidx.text.gapc_encrypt_ind_handler) refers to lto-llvm-0469b9.o(.text.gapc_encrypt_ind_handler) for [Anonymous Symbol]
    lto-llvm-0469b9.o(.ARM.exidx.text.gapm_addr_solved_ind_handler) refers to lto-llvm-0469b9.o(.text.gapm_addr_solved_ind_handler) for [Anonymous Symbol]
    lto-llvm-0469b9.o(.ARM.exidx.text.gapm_ral_size_ind_handler) refers to lto-llvm-0469b9.o(.text.gapm_ral_size_ind_handler) for [Anonymous Symbol]
    lto-llvm-0469b9.o(.ARM.exidx.text.gapm_ral_addr_ind_handler) refers to lto-llvm-0469b9.o(.text.gapm_ral_addr_ind_handler) for [Anonymous Symbol]
    lto-llvm-0469b9.o(.text.app_diss_create_db) refers to lto-llvm-0469b9.o(.bss.retention_mem_area0) for [Anonymous Symbol]
    lto-llvm-0469b9.o(.ARM.exidx.text.app_diss_create_db) refers to lto-llvm-0469b9.o(.text.app_diss_create_db) for [Anonymous Symbol]
    lto-llvm-0469b9.o(.text.diss_value_req_ind_handler) refers to lto-llvm-0469b9.o(.rodata.str1.1) for [Anonymous Symbol]
    lto-llvm-0469b9.o(.ARM.exidx.text.diss_value_req_ind_handler) refers to lto-llvm-0469b9.o(.text.diss_value_req_ind_handler) for [Anonymous Symbol]
    lto-llvm-0469b9.o(.text.app_entry_point_handler) refers to lto-llvm-0469b9.o(.text.diss_value_req_ind_handler) for diss_value_req_ind_handler
    lto-llvm-0469b9.o(.text.app_entry_point_handler) refers to lto-llvm-0469b9.o(.text.user_catch_rest_hndl) for user_catch_rest_hndl
    lto-llvm-0469b9.o(.text.app_entry_point_handler) refers to lto-llvm-0469b9.o(.rodata.app_gap_process_handlers) for [Anonymous Symbol]
    lto-llvm-0469b9.o(.text.app_entry_point_handler) refers to lto-llvm-0469b9.o(.bss.retention_mem_area0) for [Anonymous Symbol]
    lto-llvm-0469b9.o(.text.app_entry_point_handler) refers to lto-llvm-0469b9.o(.text.timer_modified_handler) for timer_modified_handler
    lto-llvm-0469b9.o(.text.app_entry_point_handler) refers to lto-llvm-0469b9.o(.text.timer_canceled_handler) for timer_canceled_handler
    lto-llvm-0469b9.o(.text.app_entry_point_handler) refers to lto-llvm-0469b9.o(.text.gapc_bond_req_ind_handler) for gapc_bond_req_ind_handler
    lto-llvm-0469b9.o(.text.app_entry_point_handler) refers to lto-llvm-0469b9.o(.text.gapc_bond_ind_handler) for gapc_bond_ind_handler
    lto-llvm-0469b9.o(.text.app_entry_point_handler) refers to lto-llvm-0469b9.o(.text.gapc_encrypt_req_ind_handler) for gapc_encrypt_req_ind_handler
    lto-llvm-0469b9.o(.text.app_entry_point_handler) refers to lto-llvm-0469b9.o(.text.gapc_encrypt_ind_handler) for gapc_encrypt_ind_handler
    lto-llvm-0469b9.o(.text.app_entry_point_handler) refers to lto-llvm-0469b9.o(.text.gapm_addr_solved_ind_handler) for gapm_addr_solved_ind_handler
    lto-llvm-0469b9.o(.text.app_entry_point_handler) refers to lto-llvm-0469b9.o(.text.gapm_ral_size_ind_handler) for gapm_ral_size_ind_handler
    lto-llvm-0469b9.o(.text.app_entry_point_handler) refers to lto-llvm-0469b9.o(.text.gapm_ral_addr_ind_handler) for gapm_ral_addr_ind_handler
    lto-llvm-0469b9.o(.ARM.exidx.text.app_entry_point_handler) refers to lto-llvm-0469b9.o(.text.app_entry_point_handler) for [Anonymous Symbol]
    lto-llvm-0469b9.o(.ARM.exidx.text.timer_canceled_handler) refers to lto-llvm-0469b9.o(.text.timer_canceled_handler) for [Anonymous Symbol]
    lto-llvm-0469b9.o(.ARM.exidx.text.timer_modified_handler) refers to lto-llvm-0469b9.o(.text.timer_modified_handler) for [Anonymous Symbol]
    lto-llvm-0469b9.o(.text.app_easy_timer) refers to lto-llvm-0469b9.o(.bss.retention_mem_area0) for [Anonymous Symbol]
    lto-llvm-0469b9.o(.ARM.exidx.text.app_easy_timer) refers to lto-llvm-0469b9.o(.text.app_easy_timer) for [Anonymous Symbol]
    lto-llvm-0469b9.o(.text.app_custs1_create_db) refers to lto-llvm-0469b9.o(.bss.retention_mem_area0) for [Anonymous Symbol]
    lto-llvm-0469b9.o(.ARM.exidx.text.app_custs1_create_db) refers to lto-llvm-0469b9.o(.text.app_custs1_create_db) for [Anonymous Symbol]
    lto-llvm-0469b9.o(.ARM.exidx.text.app_fill_random_byte_array) refers to lto-llvm-0469b9.o(.text.app_fill_random_byte_array) for [Anonymous Symbol]
    lto-llvm-0469b9.o(.text.periph_init) refers to patch.o(.text) for patch_func
    lto-llvm-0469b9.o(.text.periph_init) refers to lto-llvm-0469b9.o(.bss.retention_mem_area0) for [Anonymous Symbol]
    lto-llvm-0469b9.o(.ARM.exidx.text.periph_init) refers to lto-llvm-0469b9.o(.text.periph_init) for [Anonymous Symbol]
    lto-llvm-0469b9.o(.text.param_update_request_timer_cb) refers to lto-llvm-0469b9.o(.bss.retention_mem_area0) for [Anonymous Symbol]
    lto-llvm-0469b9.o(.ARM.exidx.text.param_update_request_timer_cb) refers to lto-llvm-0469b9.o(.text.param_update_request_timer_cb) for [Anonymous Symbol]
    lto-llvm-0469b9.o(.text.user_catch_rest_hndl) refers to lto-llvm-0469b9.o(.rodata.report_map) for [Anonymous Symbol]
    lto-llvm-0469b9.o(.text.user_catch_rest_hndl) refers to lto-llvm-0469b9.o(.bss.retention_mem_area0) for [Anonymous Symbol]
    lto-llvm-0469b9.o(.ARM.exidx.text.user_catch_rest_hndl) refers to lto-llvm-0469b9.o(.text.user_catch_rest_hndl) for [Anonymous Symbol]
    lto-llvm-0469b9.o(.text.user_gamepad_enable_buttons) refers to lto-llvm-0469b9.o(.bss.retention_mem_area0) for [Anonymous Symbol]
    lto-llvm-0469b9.o(.text.user_gamepad_enable_buttons) refers to lto-llvm-0469b9.o(.text.user_gamepad_button_cb) for user_gamepad_button_cb
    lto-llvm-0469b9.o(.ARM.exidx.text.user_gamepad_enable_buttons) refers to lto-llvm-0469b9.o(.text.user_gamepad_enable_buttons) for [Anonymous Symbol]
    lto-llvm-0469b9.o(.text.user_gamepad_button_cb) refers to lto-llvm-0469b9.o(.text.user_gamepad_enable_buttons) for user_gamepad_enable_buttons
    lto-llvm-0469b9.o(.text.user_gamepad_button_cb) refers to lto-llvm-0469b9.o(.bss.retention_mem_area0) for [Anonymous Symbol]
    lto-llvm-0469b9.o(.text.user_gamepad_button_cb) refers to lto-llvm-0469b9.o(.bss.hogpd_conidx) for [Anonymous Symbol]
    lto-llvm-0469b9.o(.ARM.exidx.text.user_gamepad_button_cb) refers to lto-llvm-0469b9.o(.text.user_gamepad_button_cb) for [Anonymous Symbol]
    lto-llvm-0469b9.o(.text.adc_get_raw_sample) refers to lto-llvm-0469b9.o(.text.adc_get_sample) for adc_get_sample
    lto-llvm-0469b9.o(.ARM.exidx.text.adc_get_raw_sample) refers to lto-llvm-0469b9.o(.text.adc_get_raw_sample) for [Anonymous Symbol]
    lto-llvm-0469b9.o(.text.user_gamepad_update_joystick) refers to lto-llvm-0469b9.o(.bss.retention_mem_area0) for [Anonymous Symbol]
    lto-llvm-0469b9.o(.text.user_gamepad_update_joystick) refers to lto-llvm-0469b9.o(.bss.hogpd_conidx) for [Anonymous Symbol]
    lto-llvm-0469b9.o(.ARM.exidx.text.user_gamepad_update_joystick) refers to lto-llvm-0469b9.o(.text.user_gamepad_update_joystick) for [Anonymous Symbol]
    lto-llvm-0469b9.o(.text.user_gamepad_axis_polling_cb) refers to lto-llvm-0469b9.o(.text.adc_get_raw_sample) for adc_get_raw_sample
    lto-llvm-0469b9.o(.text.user_gamepad_axis_polling_cb) refers to lto-llvm-0469b9.o(.text.user_gamepad_update_joystick) for user_gamepad_update_joystick
    lto-llvm-0469b9.o(.text.user_gamepad_axis_polling_cb) refers to lto-llvm-0469b9.o(.text.app_easy_timer) for app_easy_timer
    lto-llvm-0469b9.o(.text.user_gamepad_axis_polling_cb) refers to lto-llvm-0469b9.o(.bss.retention_mem_area0) for [Anonymous Symbol]
    lto-llvm-0469b9.o(.ARM.exidx.text.user_gamepad_axis_polling_cb) refers to lto-llvm-0469b9.o(.text.user_gamepad_axis_polling_cb) for [Anonymous Symbol]
    lto-llvm-0469b9.o(.text.app_hogpd_enable) refers to lto-llvm-0469b9.o(.bss.hogpd_conidx) for [Anonymous Symbol]
    lto-llvm-0469b9.o(.ARM.exidx.text.app_hogpd_enable) refers to lto-llvm-0469b9.o(.text.app_hogpd_enable) for [Anonymous Symbol]
    lto-llvm-0469b9.o(.text.app_hogpd_create_db) refers to lto-llvm-0469b9.o(.text.arch_printf) for arch_printf
    lto-llvm-0469b9.o(.text.app_hogpd_create_db) refers to lto-llvm-0469b9.o(.bss.retention_mem_area0) for [Anonymous Symbol]
    lto-llvm-0469b9.o(.ARM.exidx.text.app_hogpd_create_db) refers to lto-llvm-0469b9.o(.text.app_hogpd_create_db) for [Anonymous Symbol]
    lto-llvm-0469b9.o(.rodata.rom_func_addr_table_var) refers to lto-llvm-0469b9.o(.text.rf_init_func) for rf_init_func
    lto-llvm-0469b9.o(.rodata.rom_func_addr_table_var) refers to lto-llvm-0469b9.o(.text.rf_reinit_func) for rf_reinit_func
    lto-llvm-0469b9.o(.rodata.rom_func_addr_table_var) refers to lto-llvm-0469b9.o(.text.nvds_get_func) for nvds_get_func
    lto-llvm-0469b9.o(.rodata.rom_func_addr_table_var) refers to lto-llvm-0469b9.o(.text.nvds_put_func) for nvds_put_func
    lto-llvm-0469b9.o(.rodata.rom_func_addr_table_var) refers to lto-llvm-0469b9.o(.text.nvds_del_func) for nvds_del_func
    lto-llvm-0469b9.o(.rodata.rom_func_addr_table_var) refers to lto-llvm-0469b9.o(.text.nvds_init_func) for nvds_init_func
    lto-llvm-0469b9.o(.rodata.rom_func_addr_table_var) refers to lto-llvm-0469b9.o(.text.platform_reset_func) for platform_reset_func
    lto-llvm-0469b9.o(.rodata.rom_func_addr_table_var) refers to lto-llvm-0469b9.o(.text.lld_sleep_compensate_func) for lld_sleep_compensate_func
    lto-llvm-0469b9.o(.rodata.rom_func_addr_table_var) refers to lto-llvm-0469b9.o(.text.lld_sleep_init_func) for lld_sleep_init_func
    lto-llvm-0469b9.o(.rodata.rom_func_addr_table_var) refers to lto-llvm-0469b9.o(.text.lld_sleep_us_2_lpcycles_sel_func) for lld_sleep_us_2_lpcycles_sel_func
    lto-llvm-0469b9.o(.rodata.rom_func_addr_table_var) refers to lto-llvm-0469b9.o(.text.lld_sleep_lpcycles_2_us_sel_func) for lld_sleep_lpcycles_2_us_sel_func
    lto-llvm-0469b9.o(.rodata.rom_func_addr_table_var) refers to lto-llvm-0469b9.o(.text.prf_init_func) for prf_init_func
    lto-llvm-0469b9.o(.rodata.rom_func_addr_table_var) refers to lto-llvm-0469b9.o(.text.prf_add_profile_func) for prf_add_profile_func
    lto-llvm-0469b9.o(.rodata.rom_func_addr_table_var) refers to lto-llvm-0469b9.o(.text.prf_create_func) for prf_create_func
    lto-llvm-0469b9.o(.rodata.rom_func_addr_table_var) refers to lto-llvm-0469b9.o(.text.prf_cleanup_func) for prf_cleanup_func
    lto-llvm-0469b9.o(.rodata.rom_func_addr_table_var) refers to lto-llvm-0469b9.o(.text.prf_get_id_from_task_func) for prf_get_id_from_task_func
    lto-llvm-0469b9.o(.rodata.rom_func_addr_table_var) refers to lto-llvm-0469b9.o(.text.prf_get_task_from_id_func) for prf_get_task_from_id_func
    lto-llvm-0469b9.o(.rodata.rom_func_addr_table_var) refers to lto-llvm-0469b9.o(.text.dbg_init_func_empty) for dbg_init_func_empty
    lto-llvm-0469b9.o(.rodata.rom_func_addr_table_var) refers to lto-llvm-0469b9.o(.text.dbg_platform_reset_complete_func_empty) for dbg_platform_reset_complete_func_empty
    lto-llvm-0469b9.o(.rodata.rom_func_addr_table_var) refers to patch.o(.text) for JT_l2cc_pdu_unpack_func
    lto-llvm-0469b9.o(.rodata.rom_func_addr_table_var) refers to lto-llvm-0469b9.o(.text.crypto_init_func) for crypto_init_func
    lto-llvm-0469b9.o(.rodata.rom_func_addr_table_var) refers to lto-llvm-0469b9.o(.text.dia_rand_func) for dia_rand_func
    lto-llvm-0469b9.o(.rodata.rom_func_addr_table_var) refers to lto-llvm-0469b9.o(.text.dia_srand_func) for dia_srand_func
    lto-llvm-0469b9.o(.rodata.rom_func_addr_table_var) refers to lto-llvm-0469b9.o(.text.ba431_get_rand_func) for ba431_get_rand_func
    lto-llvm-0469b9.o(.rodata.rom_func_addr_table_var) refers to lto-llvm-0469b9.o(.text.smpm_ecdh_key_create_empty_func) for smpm_ecdh_key_create_empty_func
    lto-llvm-0469b9.o(.rodata.rom_cfg_table_var) refers to lto-llvm-0469b9.o(.bss.heap_mem_area_not_ret) for [Anonymous Symbol]
    lto-llvm-0469b9.o(.rodata.rom_cfg_table_var) refers to lto-llvm-0469b9.o(.bss.heap_env_area) for [Anonymous Symbol]
    lto-llvm-0469b9.o(.rodata.rom_cfg_table_var) refers to lto-llvm-0469b9.o(.bss.heap_db_area) for [Anonymous Symbol]
    lto-llvm-0469b9.o(.rodata.rom_cfg_table_var) refers to lto-llvm-0469b9.o(.bss.heap_msg_area) for [Anonymous Symbol]
    lto-llvm-0469b9.o(.rodata.diss_itf) refers to lto-llvm-0469b9.o(.text.diss_init) for diss_init
    lto-llvm-0469b9.o(.rodata.diss_itf) refers to lto-llvm-0469b9.o(.text.diss_destroy) for diss_destroy
    lto-llvm-0469b9.o(.rodata.diss_itf) refers to lto-llvm-0469b9.o(.text.diss_create) for diss_create
    lto-llvm-0469b9.o(.rodata.diss_itf) refers to lto-llvm-0469b9.o(.text.diss_cleanup) for diss_cleanup
    lto-llvm-0469b9.o(.rodata.diss_default_state) refers to lto-llvm-0469b9.o(.text.diss_set_value_req_handler) for diss_set_value_req_handler
    lto-llvm-0469b9.o(.rodata.diss_default_state) refers to lto-llvm-0469b9.o(.text.gattc_read_req_ind_handler) for gattc_read_req_ind_handler
    lto-llvm-0469b9.o(.rodata.diss_default_state) refers to lto-llvm-0469b9.o(.text.diss_value_cfm_handler) for diss_value_cfm_handler
    lto-llvm-0469b9.o(.rodata.diss_default_handler) refers to lto-llvm-0469b9.o(.rodata.diss_default_state) for [Anonymous Symbol]
    lto-llvm-0469b9.o(.rodata.custs1_itf) refers to lto-llvm-0469b9.o(.text.custs1_init) for custs1_init
    lto-llvm-0469b9.o(.rodata.custs1_itf) refers to lto-llvm-0469b9.o(.text.custs1_destroy) for custs1_destroy
    lto-llvm-0469b9.o(.rodata.custs1_itf) refers to lto-llvm-0469b9.o(.text.custs1_create) for custs1_create
    lto-llvm-0469b9.o(.rodata.custs1_itf) refers to lto-llvm-0469b9.o(.text.custs1_cleanup) for custs1_cleanup
    lto-llvm-0469b9.o(.rodata.custs1_default_state) refers to lto-llvm-0469b9.o(.text.gattc_read_req_ind_handler.67) for gattc_read_req_ind_handler.67
    lto-llvm-0469b9.o(.rodata.custs1_default_state) refers to lto-llvm-0469b9.o(.text.gattc_write_req_ind_handler) for gattc_write_req_ind_handler
    lto-llvm-0469b9.o(.rodata.custs1_default_state) refers to lto-llvm-0469b9.o(.text.gattc_att_info_req_ind_handler) for gattc_att_info_req_ind_handler
    lto-llvm-0469b9.o(.rodata.custs1_default_state) refers to lto-llvm-0469b9.o(.text.gattc_cmp_evt_handler) for gattc_cmp_evt_handler
    lto-llvm-0469b9.o(.rodata.custs1_default_state) refers to lto-llvm-0469b9.o(.text.custs1_val_ntf_req_handler) for custs1_val_ntf_req_handler
    lto-llvm-0469b9.o(.rodata.custs1_default_state) refers to lto-llvm-0469b9.o(.text.custs1_val_set_req_handler) for custs1_val_set_req_handler
    lto-llvm-0469b9.o(.rodata.custs1_default_state) refers to lto-llvm-0469b9.o(.text.custs1_val_ind_req_handler) for custs1_val_ind_req_handler
    lto-llvm-0469b9.o(.rodata.custs1_default_state) refers to lto-llvm-0469b9.o(.text.custs1_att_info_rsp_handler) for custs1_att_info_rsp_handler
    lto-llvm-0469b9.o(.rodata.custs1_default_state) refers to lto-llvm-0469b9.o(.text.custs1_value_req_rsp_handler) for custs1_value_req_rsp_handler
    lto-llvm-0469b9.o(.rodata.custs1_default_handler) refers to lto-llvm-0469b9.o(.rodata.custs1_default_state) for [Anonymous Symbol]
    lto-llvm-0469b9.o(.rodata.hogpd_itf) refers to lto-llvm-0469b9.o(.text.hogpd_init) for hogpd_init
    lto-llvm-0469b9.o(.rodata.hogpd_itf) refers to lto-llvm-0469b9.o(.text.hogpd_destroy) for hogpd_destroy
    lto-llvm-0469b9.o(.rodata.hogpd_itf) refers to lto-llvm-0469b9.o(.text.hogpd_create) for hogpd_create
    lto-llvm-0469b9.o(.rodata.hogpd_itf) refers to lto-llvm-0469b9.o(.text.hogpd_cleanup) for hogpd_cleanup
    lto-llvm-0469b9.o(.rodata.hogpd_default_state) refers to lto-llvm-0469b9.o(.text.hogpd_enable_req_handler) for hogpd_enable_req_handler
    lto-llvm-0469b9.o(.rodata.hogpd_default_state) refers to lto-llvm-0469b9.o(.text.hogpd_report_upd_req_handler) for hogpd_report_upd_req_handler
    lto-llvm-0469b9.o(.rodata.hogpd_default_state) refers to lto-llvm-0469b9.o(.text.hogpd_report_cfm_handler) for hogpd_report_cfm_handler
    lto-llvm-0469b9.o(.rodata.hogpd_default_state) refers to lto-llvm-0469b9.o(.text.hogpd_proto_mode_cfm_handler) for hogpd_proto_mode_cfm_handler
    lto-llvm-0469b9.o(.rodata.hogpd_default_state) refers to lto-llvm-0469b9.o(.text.gattc_att_info_req_ind_handler.94) for gattc_att_info_req_ind_handler.94
    lto-llvm-0469b9.o(.rodata.hogpd_default_state) refers to lto-llvm-0469b9.o(.text.gattc_write_req_ind_handler.95) for gattc_write_req_ind_handler.95
    lto-llvm-0469b9.o(.rodata.hogpd_default_state) refers to lto-llvm-0469b9.o(.text.gattc_read_req_ind_handler.96) for gattc_read_req_ind_handler.96
    lto-llvm-0469b9.o(.rodata.hogpd_default_state) refers to lto-llvm-0469b9.o(.text.gattc_cmp_evt_handler.97) for gattc_cmp_evt_handler.97
    lto-llvm-0469b9.o(.rodata.hogpd_default_handler) refers to lto-llvm-0469b9.o(.rodata.hogpd_default_state) for [Anonymous Symbol]
    lto-llvm-0469b9.o(.rodata.prf_funcs) refers to lto-llvm-0469b9.o(.text.app_diss_create_db) for app_diss_create_db
    lto-llvm-0469b9.o(.rodata.user_prf_funcs) refers to lto-llvm-0469b9.o(.text.app_hogpd_create_db) for app_hogpd_create_db
    lto-llvm-0469b9.o(.rodata.user_prf_funcs) refers to lto-llvm-0469b9.o(.text.app_hogpd_enable) for app_hogpd_enable
    lto-llvm-0469b9.o(.rodata.TASK_DESC_APP) refers to lto-llvm-0469b9.o(.rodata.app_default_handler) for [Anonymous Symbol]
    lto-llvm-0469b9.o(.rodata.TASK_DESC_APP) refers to lto-llvm-0469b9.o(.bss.retention_mem_area0) for [Anonymous Symbol]
    lto-llvm-0469b9.o(.rodata.app_default_state) refers to lto-llvm-0469b9.o(.text.app_entry_point_handler) for app_entry_point_handler
    lto-llvm-0469b9.o(.rodata.app_default_handler) refers to lto-llvm-0469b9.o(.rodata.app_default_state) for [Anonymous Symbol]
    lto-llvm-0469b9.o(.rodata.app_gap_process_handlers) refers to lto-llvm-0469b9.o(.text.gapm_device_ready_ind_handler) for gapm_device_ready_ind_handler
    lto-llvm-0469b9.o(.rodata.app_gap_process_handlers) refers to lto-llvm-0469b9.o(.text.gapm_cmp_evt_handler) for gapm_cmp_evt_handler
    lto-llvm-0469b9.o(.rodata.app_gap_process_handlers) refers to lto-llvm-0469b9.o(.text.gapc_cmp_evt_handler) for gapc_cmp_evt_handler
    lto-llvm-0469b9.o(.rodata.app_gap_process_handlers) refers to lto-llvm-0469b9.o(.text.gapc_connection_req_ind_handler) for gapc_connection_req_ind_handler
    lto-llvm-0469b9.o(.rodata.app_gap_process_handlers) refers to lto-llvm-0469b9.o(.text.gapc_disconnect_ind_handler) for gapc_disconnect_ind_handler
    lto-llvm-0469b9.o(.rodata.app_gap_process_handlers) refers to lto-llvm-0469b9.o(.text.gapc_get_dev_info_req_ind_handler) for gapc_get_dev_info_req_ind_handler
    lto-llvm-0469b9.o(.rodata.app_gap_process_handlers) refers to lto-llvm-0469b9.o(.text.gapc_set_dev_info_req_ind_handler) for gapc_set_dev_info_req_ind_handler
    lto-llvm-0469b9.o(.rodata.app_gap_process_handlers) refers to lto-llvm-0469b9.o(.text.gapm_profile_added_ind_handler) for gapm_profile_added_ind_handler
    lto-llvm-0469b9.o(.rodata.app_gap_process_handlers) refers to lto-llvm-0469b9.o(.text.gapm_adv_report_ind_handler) for gapm_adv_report_ind_handler
    lto-llvm-0469b9.o(.rodata.app_gap_process_handlers) refers to lto-llvm-0469b9.o(.text.gapc_param_update_req_ind_handler) for gapc_param_update_req_ind_handler
    lto-llvm-0469b9.o(.rodata.app_gap_process_handlers) refers to lto-llvm-0469b9.o(.text.gapc_le_pkt_size_ind_handler) for gapc_le_pkt_size_ind_handler
    lto-llvm-0469b9.o(.rodata.app_gap_process_handlers) refers to lto-llvm-0469b9.o(.text.gattc_svc_changed_cfg_ind_handler) for gattc_svc_changed_cfg_ind_handler
    lto-llvm-0469b9.o(.rodata.app_gap_process_handlers) refers to lto-llvm-0469b9.o(.text.gapc_peer_features_ind_handler) for gapc_peer_features_ind_handler
    lto-llvm-0469b9.o(.rodata.app_gap_process_handlers) refers to lto-llvm-0469b9.o(.text.gapc_security_ind_handler) for gapc_security_ind_handler
    lto-llvm-0469b9.o(.rodata.cust_prf_funcs) refers to lto-llvm-0469b9.o(.rodata.custs1_att_db) for [Anonymous Symbol]
    lto-llvm-0469b9.o(.rodata.cust_prf_funcs) refers to lto-llvm-0469b9.o(.text.app_custs1_create_db) for app_custs1_create_db
    lto-llvm-0469b9.o(.rodata.custs1_att_db) refers to lto-llvm-0469b9.o(.rodata.att_decl_svc) for [Anonymous Symbol]
    lto-llvm-0469b9.o(.rodata.custs1_att_db) refers to lto-llvm-0469b9.o(.rodata.custs1_svc1) for [Anonymous Symbol]
    lto-llvm-0469b9.o(.rodata.custs1_att_db) refers to lto-llvm-0469b9.o(.rodata.att_decl_char) for [Anonymous Symbol]
    lto-llvm-0469b9.o(.rodata.custs1_att_db) refers to lto-llvm-0469b9.o(.data.custs1_server_rx_char) for [Anonymous Symbol]
    lto-llvm-0469b9.o(.rodata.custs1_att_db) refers to lto-llvm-0469b9.o(.rodata.CUST1_SERVER_RX_UUID_128) for [Anonymous Symbol]
    lto-llvm-0469b9.o(.rodata.custs1_att_db) refers to lto-llvm-0469b9.o(.rodata.att_desc_user_desc) for [Anonymous Symbol]
    lto-llvm-0469b9.o(.rodata.custs1_att_db) refers to lto-llvm-0469b9.o(.rodata.str1.1) for [Anonymous Symbol]
    lto-llvm-0469b9.o(.rodata.custs1_att_db) refers to lto-llvm-0469b9.o(.data.custs1_server_tx_char) for [Anonymous Symbol]
    lto-llvm-0469b9.o(.rodata.custs1_att_db) refers to lto-llvm-0469b9.o(.rodata.CUST1_SERVER_TX_UUID_128) for [Anonymous Symbol]
    lto-llvm-0469b9.o(.rodata.custs1_att_db) refers to lto-llvm-0469b9.o(.rodata.att_desc_cfg) for [Anonymous Symbol]


==============================================================================

Removing Unused input sections from the image.

    Removing startup_da14585_586.o(HEAP), (256 bytes).
    Removing lto-llvm-0469b9.o(.text), (0 bytes).
    Removing lto-llvm-0469b9.o(.ARM.exidxsystem_DA14xxx), (8 bytes).
    Removing lto-llvm-0469b9.o(.ARM.exidx.text.HardFault_HandlerC), (8 bytes).
    Removing lto-llvm-0469b9.o(.ARM.exidx.text.NMI_HandlerC), (8 bytes).
    Removing lto-llvm-0469b9.o(.ARM.exidx.text.arch_printf), (8 bytes).
    Removing lto-llvm-0469b9.o(.ARM.exidx.text.uart_callback), (8 bytes).
    Removing lto-llvm-0469b9.o(.ARM.exidx.text.nvds_get_func), (8 bytes).
    Removing lto-llvm-0469b9.o(.ARM.exidx.text.nvds_init_func), (8 bytes).
    Removing lto-llvm-0469b9.o(.ARM.exidx.text.nvds_del_func), (8 bytes).
    Removing lto-llvm-0469b9.o(.ARM.exidx.text.nvds_put_func), (8 bytes).
    Removing lto-llvm-0469b9.o(.ARM.exidx.text.main), (8 bytes).
    Removing lto-llvm-0469b9.o(.ARM.exidx.text.platform_reset_func), (8 bytes).
    Removing lto-llvm-0469b9.o(.ARM.exidx.text.dbg_init_func_empty), (8 bytes).
    Removing lto-llvm-0469b9.o(.ARM.exidx.text.dbg_platform_reset_complete_func_empty), (8 bytes).
    Removing lto-llvm-0469b9.o(.ARM.exidx.text.crypto_init_func), (8 bytes).
    Removing lto-llvm-0469b9.o(.ARM.exidx.text.dia_rand_func), (8 bytes).
    Removing lto-llvm-0469b9.o(.ARM.exidx.text.dia_srand_func), (8 bytes).
    Removing lto-llvm-0469b9.o(.ARM.exidx.text.ba431_get_rand_func), (8 bytes).
    Removing lto-llvm-0469b9.o(.ARM.exidx.text.smpm_ecdh_key_create_empty_func), (8 bytes).
    Removing lto-llvm-0469b9.o(.ARM.exidx.text.lld_sleep_us_2_lpcycles_sel_func), (8 bytes).
    Removing lto-llvm-0469b9.o(.ARM.exidx.text.lld_sleep_lpcycles_2_us_sel_func), (8 bytes).
    Removing lto-llvm-0469b9.o(.ARM.exidx.text.lld_sleep_init_func), (8 bytes).
    Removing lto-llvm-0469b9.o(.ARM.exidx.text.GPIO0_Handler), (8 bytes).
    Removing lto-llvm-0469b9.o(.ARM.exidx.text.GPIO1_Handler), (8 bytes).
    Removing lto-llvm-0469b9.o(.ARM.exidx.text.GPIO2_Handler), (8 bytes).
    Removing lto-llvm-0469b9.o(.ARM.exidx.text.GPIO3_Handler), (8 bytes).
    Removing lto-llvm-0469b9.o(.ARM.exidx.text.GPIO4_Handler), (8 bytes).
    Removing lto-llvm-0469b9.o(.ARM.exidx.text.WKUP_QUADEC_Handler), (8 bytes).
    Removing lto-llvm-0469b9.o(.ARM.exidx.text.adc_get_sample), (8 bytes).
    Removing lto-llvm-0469b9.o(.ARM.exidx.text.ADC_Handler), (8 bytes).
    Removing lto-llvm-0469b9.o(.ARM.exidx.text.I2C_Handler), (8 bytes).
    Removing lto-llvm-0469b9.o(.ARM.exidx.text.UART2_Handler), (8 bytes).
    Removing lto-llvm-0469b9.o(.ARM.exidx.text.lld_sleep_compensate_func), (8 bytes).
    Removing lto-llvm-0469b9.o(.ARM.exidx.text.BLE_WAKEUP_LP_Handler), (8 bytes).
    Removing lto-llvm-0469b9.o(.ARM.exidx.text.rwble_isr), (8 bytes).
    Removing lto-llvm-0469b9.o(.ARM.exidx.text.rf_init_func), (8 bytes).
    Removing lto-llvm-0469b9.o(.ARM.exidx.text.rf_reg_rd), (8 bytes).
    Removing lto-llvm-0469b9.o(.ARM.exidx.text.rf_reg_wr), (8 bytes).
    Removing lto-llvm-0469b9.o(.ARM.exidx.text.rf_txpwr_dbm_get), (8 bytes).
    Removing lto-llvm-0469b9.o(.ARM.exidx.text.rf_sleep), (8 bytes).
    Removing lto-llvm-0469b9.o(.ARM.exidx.text.rf_reset), (8 bytes).
    Removing lto-llvm-0469b9.o(.ARM.exidx.text.RADIOCNTL_Handler), (8 bytes).
    Removing lto-llvm-0469b9.o(.ARM.exidx.text.rf_force_agc_enable), (8 bytes).
    Removing lto-llvm-0469b9.o(.ARM.exidx.text.rf_rssi_convert), (8 bytes).
    Removing lto-llvm-0469b9.o(.ARM.exidx.text.rf_reinit_func), (8 bytes).
    Removing lto-llvm-0469b9.o(.ARM.exidx.text.diss_init), (8 bytes).
    Removing lto-llvm-0469b9.o(.ARM.exidx.text.diss_destroy), (8 bytes).
    Removing lto-llvm-0469b9.o(.ARM.exidx.text.diss_create), (8 bytes).
    Removing lto-llvm-0469b9.o(.ARM.exidx.text.diss_cleanup), (8 bytes).
    Removing lto-llvm-0469b9.o(.ARM.exidx.text.diss_value_to_handle), (8 bytes).
    Removing lto-llvm-0469b9.o(.ARM.exidx.text.diss_set_value_req_handler), (8 bytes).
    Removing lto-llvm-0469b9.o(.ARM.exidx.text.gattc_read_req_ind_handler), (8 bytes).
    Removing lto-llvm-0469b9.o(.ARM.exidx.text.diss_value_cfm_handler), (8 bytes).
    Removing lto-llvm-0469b9.o(.ARM.exidx.text.custs1_init), (8 bytes).
    Removing lto-llvm-0469b9.o(.ARM.exidx.text.custs1_destroy), (8 bytes).
    Removing lto-llvm-0469b9.o(.ARM.exidx.text.custs1_create), (8 bytes).
    Removing lto-llvm-0469b9.o(.ARM.exidx.text.custs1_cleanup), (8 bytes).
    Removing lto-llvm-0469b9.o(.ARM.exidx.text.gattc_read_req_ind_handler.67), (8 bytes).
    Removing lto-llvm-0469b9.o(.ARM.exidx.text.gattc_write_req_ind_handler), (8 bytes).
    Removing lto-llvm-0469b9.o(.ARM.exidx.text.gattc_att_info_req_ind_handler), (8 bytes).
    Removing lto-llvm-0469b9.o(.ARM.exidx.text.gattc_cmp_evt_handler), (8 bytes).
    Removing lto-llvm-0469b9.o(.ARM.exidx.text.custs1_val_ntf_req_handler), (8 bytes).
    Removing lto-llvm-0469b9.o(.ARM.exidx.text.custs1_val_set_req_handler), (8 bytes).
    Removing lto-llvm-0469b9.o(.ARM.exidx.text.custs1_val_ind_req_handler), (8 bytes).
    Removing lto-llvm-0469b9.o(.ARM.exidx.text.custs1_att_info_rsp_handler), (8 bytes).
    Removing lto-llvm-0469b9.o(.ARM.exidx.text.custs1_value_req_rsp_handler), (8 bytes).
    Removing lto-llvm-0469b9.o(.ARM.exidx.text.custs1_exe_operation), (8 bytes).
    Removing lto-llvm-0469b9.o(.ARM.exidx.text.custs1_set_ccc_value), (8 bytes).
    Removing lto-llvm-0469b9.o(.ARM.exidx.text.prf_init_func), (8 bytes).
    Removing lto-llvm-0469b9.o(.ARM.exidx.text.prf_add_profile_func), (8 bytes).
    Removing lto-llvm-0469b9.o(.ARM.exidx.text.prf_create_func), (8 bytes).
    Removing lto-llvm-0469b9.o(.ARM.exidx.text.prf_cleanup_func), (8 bytes).
    Removing lto-llvm-0469b9.o(.ARM.exidx.text.prf_env_get), (8 bytes).
    Removing lto-llvm-0469b9.o(.ARM.exidx.text.prf_get_id_from_task_func), (8 bytes).
    Removing lto-llvm-0469b9.o(.ARM.exidx.text.prf_get_task_from_id_func), (8 bytes).
    Removing lto-llvm-0469b9.o(.ARM.exidx.text.hogpd_init), (8 bytes).
    Removing lto-llvm-0469b9.o(.ARM.exidx.text.hogpd_destroy), (8 bytes).
    Removing lto-llvm-0469b9.o(.ARM.exidx.text.hogpd_create), (8 bytes).
    Removing lto-llvm-0469b9.o(.ARM.exidx.text.hogpd_cleanup), (8 bytes).
    Removing lto-llvm-0469b9.o(.ARM.exidx.text.hogpd_get_att_handle), (8 bytes).
    Removing lto-llvm-0469b9.o(.ARM.exidx.text.hogpd_get_att_idx), (8 bytes).
    Removing lto-llvm-0469b9.o(.ARM.exidx.text.hogpd_enable_req_handler), (8 bytes).
    Removing lto-llvm-0469b9.o(.ARM.exidx.text.hogpd_report_upd_req_handler), (8 bytes).
    Removing lto-llvm-0469b9.o(.ARM.exidx.text.hogpd_report_cfm_handler), (8 bytes).
    Removing lto-llvm-0469b9.o(.ARM.exidx.text.hogpd_proto_mode_cfm_handler), (8 bytes).
    Removing lto-llvm-0469b9.o(.ARM.exidx.text.gattc_att_info_req_ind_handler.94), (8 bytes).
    Removing lto-llvm-0469b9.o(.ARM.exidx.text.gattc_write_req_ind_handler.95), (8 bytes).
    Removing lto-llvm-0469b9.o(.ARM.exidx.text.gattc_read_req_ind_handler.96), (8 bytes).
    Removing lto-llvm-0469b9.o(.ARM.exidx.text.gattc_cmp_evt_handler.97), (8 bytes).
    Removing lto-llvm-0469b9.o(.ARM.exidx.text.app_db_init_next), (8 bytes).
    Removing lto-llvm-0469b9.o(.ARM.exidx.text.gapm_device_ready_ind_handler), (8 bytes).
    Removing lto-llvm-0469b9.o(.ARM.exidx.text.gapm_cmp_evt_handler), (8 bytes).
    Removing lto-llvm-0469b9.o(.ARM.exidx.text.gapc_cmp_evt_handler), (8 bytes).
    Removing lto-llvm-0469b9.o(.ARM.exidx.text.gapc_connection_req_ind_handler), (8 bytes).
    Removing lto-llvm-0469b9.o(.ARM.exidx.text.gapc_disconnect_ind_handler), (8 bytes).
    Removing lto-llvm-0469b9.o(.ARM.exidx.text.gapc_get_dev_info_req_ind_handler), (8 bytes).
    Removing lto-llvm-0469b9.o(.ARM.exidx.text.gapc_set_dev_info_req_ind_handler), (8 bytes).
    Removing lto-llvm-0469b9.o(.ARM.exidx.text.gapm_profile_added_ind_handler), (8 bytes).
    Removing lto-llvm-0469b9.o(.ARM.exidx.text.gapm_adv_report_ind_handler), (8 bytes).
    Removing lto-llvm-0469b9.o(.ARM.exidx.text.gapc_param_update_req_ind_handler), (8 bytes).
    Removing lto-llvm-0469b9.o(.ARM.exidx.text.gapc_le_pkt_size_ind_handler), (8 bytes).
    Removing lto-llvm-0469b9.o(.ARM.exidx.text.gattc_svc_changed_cfg_ind_handler), (8 bytes).
    Removing lto-llvm-0469b9.o(.ARM.exidx.text.gapc_peer_features_ind_handler), (8 bytes).
    Removing lto-llvm-0469b9.o(.ARM.exidx.text.gapc_security_ind_handler), (8 bytes).
    Removing lto-llvm-0469b9.o(.ARM.exidx.text.gapc_bond_req_ind_handler), (8 bytes).
    Removing lto-llvm-0469b9.o(.ARM.exidx.text.gapc_bond_ind_handler), (8 bytes).
    Removing lto-llvm-0469b9.o(.ARM.exidx.text.gapc_encrypt_req_ind_handler), (8 bytes).
    Removing lto-llvm-0469b9.o(.ARM.exidx.text.gapc_encrypt_ind_handler), (8 bytes).
    Removing lto-llvm-0469b9.o(.ARM.exidx.text.gapm_addr_solved_ind_handler), (8 bytes).
    Removing lto-llvm-0469b9.o(.ARM.exidx.text.gapm_ral_size_ind_handler), (8 bytes).
    Removing lto-llvm-0469b9.o(.ARM.exidx.text.gapm_ral_addr_ind_handler), (8 bytes).
    Removing lto-llvm-0469b9.o(.ARM.exidx.text.app_diss_create_db), (8 bytes).
    Removing lto-llvm-0469b9.o(.ARM.exidx.text.diss_value_req_ind_handler), (8 bytes).
    Removing lto-llvm-0469b9.o(.ARM.exidx.text.app_entry_point_handler), (8 bytes).
    Removing lto-llvm-0469b9.o(.ARM.exidx.text.timer_canceled_handler), (8 bytes).
    Removing lto-llvm-0469b9.o(.ARM.exidx.text.timer_modified_handler), (8 bytes).
    Removing lto-llvm-0469b9.o(.ARM.exidx.text.app_easy_timer), (8 bytes).
    Removing lto-llvm-0469b9.o(.ARM.exidx.text.app_custs1_create_db), (8 bytes).
    Removing lto-llvm-0469b9.o(.ARM.exidx.text.app_fill_random_byte_array), (8 bytes).
    Removing lto-llvm-0469b9.o(.ARM.exidx.text.periph_init), (8 bytes).
    Removing lto-llvm-0469b9.o(.ARM.exidx.text.param_update_request_timer_cb), (8 bytes).
    Removing lto-llvm-0469b9.o(.ARM.exidx.text.user_catch_rest_hndl), (8 bytes).
    Removing lto-llvm-0469b9.o(.ARM.exidx.text.user_gamepad_enable_buttons), (8 bytes).
    Removing lto-llvm-0469b9.o(.ARM.exidx.text.user_gamepad_button_cb), (8 bytes).
    Removing lto-llvm-0469b9.o(.ARM.exidx.text.adc_get_raw_sample), (8 bytes).
    Removing lto-llvm-0469b9.o(.ARM.exidx.text.user_gamepad_update_joystick), (8 bytes).
    Removing lto-llvm-0469b9.o(.ARM.exidx.text.user_gamepad_axis_polling_cb), (8 bytes).
    Removing lto-llvm-0469b9.o(.ARM.exidx.text.app_hogpd_enable), (8 bytes).
    Removing lto-llvm-0469b9.o(.ARM.exidx.text.app_hogpd_create_db), (8 bytes).
    Removing lto-llvm-0469b9.o(.ARM.use_no_argv), (4 bytes).
    Removing patch.o(i.__ARM_common_switch8), (26 bytes).

132 unused section(s) (total 1310 bytes) removed from the image.

==============================================================================

Image Symbol Table

    Local Symbols

    Symbol Name                              Value     Ov Type        Size  Object(Section)

    ../clib/microlib/init/entry.s            0x00000000   Number         0  entry.o ABSOLUTE
    ../clib/microlib/init/entry.s            0x00000000   Number         0  entry2.o ABSOLUTE
    ../clib/microlib/init/entry.s            0x00000000   Number         0  entry5.o ABSOLUTE
    ../clib/microlib/init/entry.s            0x00000000   Number         0  entry7a.o ABSOLUTE
    ../clib/microlib/init/entry.s            0x00000000   Number         0  entry7b.o ABSOLUTE
    ../clib/microlib/init/entry.s            0x00000000   Number         0  entry8a.o ABSOLUTE
    ../clib/microlib/init/entry.s            0x00000000   Number         0  entry8b.o ABSOLUTE
    ../clib/microlib/init/entry.s            0x00000000   Number         0  entry9a.o ABSOLUTE
    ../clib/microlib/init/entry.s            0x00000000   Number         0  entry9b.o ABSOLUTE
    ../clib/microlib/init/entry.s            0x00000000   Number         0  entry10a.o ABSOLUTE
    ../clib/microlib/init/entry.s            0x00000000   Number         0  entry10b.o ABSOLUTE
    ../clib/microlib/init/entry.s            0x00000000   Number         0  entry11a.o ABSOLUTE
    ../clib/microlib/init/entry.s            0x00000000   Number         0  entry11b.o ABSOLUTE
    ..\..\..\..\..\sdk\platform\arch\boot\ARM\startup_DA14585_586.s 0x00000000   Number         0  startup_da14585_586.o ABSOLUTE
    ..\..\src\DA14585_586\patch.c            0x00000000   Number         0  patch.o ABSOLUTE
    ..\..\src\DA14585_586\rf_calibration.c   0x00000000   Number         0  rf_calibration.o ABSOLUTE
    ..\..\src\DA14585_586\smpc_util.c        0x00000000   Number         0  smpc_util.o ABSOLUTE
    handlers.s                               0x00000000   Number         0  handlers.o ABSOLUTE
    init.s                                   0x00000000   Number         0  init.o ABSOLUTE
    ld-temp.o                                0x00000000   Number         0  lto-llvm-0469b9.o ABSOLUTE
    RESET                                    0x07fc0000   Section      160  startup_da14585_586.o(RESET)
    rfadc_data_buffer                        0x07fc0110   Data        1024  lto-llvm-0469b9.o(.bss.trng_buffer_area_zi)
    [Anonymous Symbol]                       0x07fc0110   Section        0  lto-llvm-0469b9.o(.bss.trng_buffer_area_zi)
    .ARM.Collect$$$$00000000                 0x07fc0510   Section        0  entry.o(.ARM.Collect$$$$00000000)
    .ARM.Collect$$$$00000001                 0x07fc0510   Section        4  entry2.o(.ARM.Collect$$$$00000001)
    .ARM.Collect$$$$00000004                 0x07fc0514   Section        4  entry5.o(.ARM.Collect$$$$00000004)
    .ARM.Collect$$$$00000008                 0x07fc0518   Section        0  entry7b.o(.ARM.Collect$$$$00000008)
    .ARM.Collect$$$$0000000A                 0x07fc0518   Section        0  entry8b.o(.ARM.Collect$$$$0000000A)
    .ARM.Collect$$$$0000000B                 0x07fc0518   Section        8  entry9a.o(.ARM.Collect$$$$0000000B)
    __lit__00000000                          0x07fc0520   Data           4  entry2.o(.ARM.Collect$$$$00002712)
    .ARM.Collect$$$$0000000D                 0x07fc0520   Section        0  entry10a.o(.ARM.Collect$$$$0000000D)
    .ARM.Collect$$$$0000000F                 0x07fc0520   Section        0  entry11a.o(.ARM.Collect$$$$0000000F)
    .ARM.Collect$$$$00002712                 0x07fc0520   Section        4  entry2.o(.ARM.Collect$$$$00002712)
    .text                                    0x07fc0524   Section       80  startup_da14585_586.o(.text)
    NMI_Handler                              0x07fc052d   Thumb Code    24  startup_da14585_586.o(.text)
    HardFault_Handler                        0x07fc0545   Thumb Code    24  startup_da14585_586.o(.text)
    .text                                    0x07fc0574   Section        0  patch.o(.text)
    PATCHED_gapm_reset_cmd_handler           0x07fc0d9d   Thumb Code    78  patch.o(.text)
    l2cc_handle_invalid_pdu                  0x07fc0e59   Thumb Code   276  patch.o(.text)
    PATCHED_hci_acl_data_rx_handler          0x07fc0f6d   Thumb Code   620  patch.o(.text)
    PATCHED_smpc_recv_pair_rand_pdu          0x07fc15b9   Thumb Code   306  patch.o(.text)
    PATCHED_llc_data_ind_handler             0x07fc1755   Thumb Code   146  patch.o(.text)
    .text                                    0x07fc1ab8   Section        0  rf_calibration.o(.text)
    .text                                    0x07fc1bcc   Section        0  smpc_util.o(.text)
    .text                                    0x07fc1cb4   Section       36  init.o(.text)
    [Anonymous Symbol]                       0x07fc1cd8   Section        0  lto-llvm-0469b9.o(.text.ADC_Handler)
    __arm_cp.28_0                            0x07fc1ce0   Number         4  lto-llvm-0469b9.o(.text.ADC_Handler)
    [Anonymous Symbol]                       0x07fc1ce4   Section        0  lto-llvm-0469b9.o(.text.BLE_WAKEUP_LP_Handler)
    __arm_cp.32_0                            0x07fc20d4   Number         4  lto-llvm-0469b9.o(.text.BLE_WAKEUP_LP_Handler)
    __arm_cp.32_1                            0x07fc20d8   Number         4  lto-llvm-0469b9.o(.text.BLE_WAKEUP_LP_Handler)
    __arm_cp.32_2                            0x07fc20dc   Number         4  lto-llvm-0469b9.o(.text.BLE_WAKEUP_LP_Handler)
    __arm_cp.32_3                            0x07fc20e0   Number         4  lto-llvm-0469b9.o(.text.BLE_WAKEUP_LP_Handler)
    __arm_cp.32_4                            0x07fc20e4   Number         4  lto-llvm-0469b9.o(.text.BLE_WAKEUP_LP_Handler)
    __arm_cp.32_5                            0x07fc20e8   Number         4  lto-llvm-0469b9.o(.text.BLE_WAKEUP_LP_Handler)
    __arm_cp.32_6                            0x07fc20ec   Number         4  lto-llvm-0469b9.o(.text.BLE_WAKEUP_LP_Handler)
    __arm_cp.32_7                            0x07fc20f0   Number         4  lto-llvm-0469b9.o(.text.BLE_WAKEUP_LP_Handler)
    __arm_cp.32_8                            0x07fc20f4   Number         4  lto-llvm-0469b9.o(.text.BLE_WAKEUP_LP_Handler)
    __arm_cp.32_9                            0x07fc20f8   Number         4  lto-llvm-0469b9.o(.text.BLE_WAKEUP_LP_Handler)
    __arm_cp.32_10                           0x07fc20fc   Number         4  lto-llvm-0469b9.o(.text.BLE_WAKEUP_LP_Handler)
    __arm_cp.32_11                           0x07fc2100   Number         4  lto-llvm-0469b9.o(.text.BLE_WAKEUP_LP_Handler)
    [Anonymous Symbol]                       0x07fc2104   Section        0  lto-llvm-0469b9.o(.text.GPIO0_Handler)
    [Anonymous Symbol]                       0x07fc2118   Section        0  lto-llvm-0469b9.o(.text.GPIO1_Handler)
    [Anonymous Symbol]                       0x07fc212c   Section        0  lto-llvm-0469b9.o(.text.GPIO2_Handler)
    [Anonymous Symbol]                       0x07fc2140   Section        0  lto-llvm-0469b9.o(.text.GPIO3_Handler)
    [Anonymous Symbol]                       0x07fc2154   Section        0  lto-llvm-0469b9.o(.text.GPIO4_Handler)
    __arm_cp.25_0                            0x07fc2168   Number         4  lto-llvm-0469b9.o(.text.GPIO4_Handler)
    [Anonymous Symbol]                       0x07fc216c   Section        0  lto-llvm-0469b9.o(.text.HardFault_HandlerC)
    __arm_cp.1_0                             0x07fc21c0   Number         4  lto-llvm-0469b9.o(.text.HardFault_HandlerC)
    __arm_cp.1_1                             0x07fc21c4   Number         4  lto-llvm-0469b9.o(.text.HardFault_HandlerC)
    [Anonymous Symbol]                       0x07fc21c8   Section        0  lto-llvm-0469b9.o(.text.I2C_Handler)
    __arm_cp.29_0                            0x07fc21d4   Number         4  lto-llvm-0469b9.o(.text.I2C_Handler)
    [Anonymous Symbol]                       0x07fc21d8   Section        0  lto-llvm-0469b9.o(.text.NMI_HandlerC)
    __arm_cp.2_0                             0x07fc2264   Number         4  lto-llvm-0469b9.o(.text.NMI_HandlerC)
    __arm_cp.2_1                             0x07fc2268   Number         4  lto-llvm-0469b9.o(.text.NMI_HandlerC)
    __arm_cp.2_2                             0x07fc226c   Number         4  lto-llvm-0469b9.o(.text.NMI_HandlerC)
    __arm_cp.2_3                             0x07fc2270   Number         4  lto-llvm-0469b9.o(.text.NMI_HandlerC)
    __arm_cp.2_4                             0x07fc2274   Number         4  lto-llvm-0469b9.o(.text.NMI_HandlerC)
    __arm_cp.2_5                             0x07fc2278   Number         4  lto-llvm-0469b9.o(.text.NMI_HandlerC)
    RADIOCNTL_Handler                        0x07fc227d   Thumb Code     2  lto-llvm-0469b9.o(.text.RADIOCNTL_Handler)
    [Anonymous Symbol]                       0x07fc227c   Section        0  lto-llvm-0469b9.o(.text.RADIOCNTL_Handler)
    [Anonymous Symbol]                       0x07fc2280   Section        0  lto-llvm-0469b9.o(.text.UART2_Handler)
    __arm_cp.30_0                            0x07fc2328   Number         4  lto-llvm-0469b9.o(.text.UART2_Handler)
    __arm_cp.30_1                            0x07fc232c   Number         4  lto-llvm-0469b9.o(.text.UART2_Handler)
    __arm_cp.30_2                            0x07fc2330   Number         4  lto-llvm-0469b9.o(.text.UART2_Handler)
    __arm_cp.30_3                            0x07fc2334   Number         4  lto-llvm-0469b9.o(.text.UART2_Handler)
    __arm_cp.30_4                            0x07fc2338   Number         4  lto-llvm-0469b9.o(.text.UART2_Handler)
    __arm_cp.30_5                            0x07fc233c   Number         4  lto-llvm-0469b9.o(.text.UART2_Handler)
    [Anonymous Symbol]                       0x07fc2340   Section        0  lto-llvm-0469b9.o(.text.WKUP_QUADEC_Handler)
    __arm_cp.26_0                            0x07fc23a8   Number         4  lto-llvm-0469b9.o(.text.WKUP_QUADEC_Handler)
    __arm_cp.26_1                            0x07fc23ac   Number         4  lto-llvm-0469b9.o(.text.WKUP_QUADEC_Handler)
    __arm_cp.26_2                            0x07fc23b0   Number         4  lto-llvm-0469b9.o(.text.WKUP_QUADEC_Handler)
    adc_get_raw_sample                       0x07fc23b5   Thumb Code   632  lto-llvm-0469b9.o(.text.adc_get_raw_sample)
    [Anonymous Symbol]                       0x07fc23b4   Section        0  lto-llvm-0469b9.o(.text.adc_get_raw_sample)
    __arm_cp.123_1                           0x07fc262c   Number         4  lto-llvm-0469b9.o(.text.adc_get_raw_sample)
    __arm_cp.123_2                           0x07fc2630   Number         4  lto-llvm-0469b9.o(.text.adc_get_raw_sample)
    __arm_cp.123_3                           0x07fc2634   Number         4  lto-llvm-0469b9.o(.text.adc_get_raw_sample)
    adc_get_sample                           0x07fc2639   Thumb Code    92  lto-llvm-0469b9.o(.text.adc_get_sample)
    [Anonymous Symbol]                       0x07fc2638   Section        0  lto-llvm-0469b9.o(.text.adc_get_sample)
    __arm_cp.27_0                            0x07fc2694   Number         4  lto-llvm-0469b9.o(.text.adc_get_sample)
    __arm_cp.27_1                            0x07fc2698   Number         4  lto-llvm-0469b9.o(.text.adc_get_sample)
    app_custs1_create_db                     0x07fc269d   Thumb Code   152  lto-llvm-0469b9.o(.text.app_custs1_create_db)
    [Anonymous Symbol]                       0x07fc269c   Section        0  lto-llvm-0469b9.o(.text.app_custs1_create_db)
    app_db_init_next                         0x07fc2735   Thumb Code   288  lto-llvm-0469b9.o(.text.app_db_init_next)
    [Anonymous Symbol]                       0x07fc2734   Section        0  lto-llvm-0469b9.o(.text.app_db_init_next)
    __arm_cp.88_0                            0x07fc2854   Number         4  lto-llvm-0469b9.o(.text.app_db_init_next)
    __arm_cp.88_1                            0x07fc2858   Number         4  lto-llvm-0469b9.o(.text.app_db_init_next)
    __arm_cp.88_2                            0x07fc285c   Number         4  lto-llvm-0469b9.o(.text.app_db_init_next)
    __arm_cp.88_3                            0x07fc2860   Number         4  lto-llvm-0469b9.o(.text.app_db_init_next)
    __arm_cp.88_4                            0x07fc2864   Number         4  lto-llvm-0469b9.o(.text.app_db_init_next)
    __arm_cp.88_5                            0x07fc2868   Number         4  lto-llvm-0469b9.o(.text.app_db_init_next)
    app_diss_create_db                       0x07fc286d   Thumb Code   152  lto-llvm-0469b9.o(.text.app_diss_create_db)
    [Anonymous Symbol]                       0x07fc286c   Section        0  lto-llvm-0469b9.o(.text.app_diss_create_db)
    __arm_cp.110_0                           0x07fc2904   Number         4  lto-llvm-0469b9.o(.text.app_diss_create_db)
    __arm_cp.110_1                           0x07fc2908   Number         4  lto-llvm-0469b9.o(.text.app_diss_create_db)
    app_easy_timer                           0x07fc290d   Thumb Code   236  lto-llvm-0469b9.o(.text.app_easy_timer)
    [Anonymous Symbol]                       0x07fc290c   Section        0  lto-llvm-0469b9.o(.text.app_easy_timer)
    __arm_cp.115_0                           0x07fc29f8   Number         4  lto-llvm-0469b9.o(.text.app_easy_timer)
    app_entry_point_handler                  0x07fc29fd   Thumb Code   912  lto-llvm-0469b9.o(.text.app_entry_point_handler)
    [Anonymous Symbol]                       0x07fc29fc   Section        0  lto-llvm-0469b9.o(.text.app_entry_point_handler)
    __arm_cp.112_31                          0x07fc2b60   Number         4  lto-llvm-0469b9.o(.text.app_entry_point_handler)
    __arm_cp.112_32                          0x07fc2b64   Number         4  lto-llvm-0469b9.o(.text.app_entry_point_handler)
    __arm_cp.112_1                           0x07fc2cf4   Number         4  lto-llvm-0469b9.o(.text.app_entry_point_handler)
    __arm_cp.112_3                           0x07fc2cf8   Number         4  lto-llvm-0469b9.o(.text.app_entry_point_handler)
    __arm_cp.112_4                           0x07fc2cfc   Number         4  lto-llvm-0469b9.o(.text.app_entry_point_handler)
    __arm_cp.112_5                           0x07fc2d00   Number         4  lto-llvm-0469b9.o(.text.app_entry_point_handler)
    __arm_cp.112_6                           0x07fc2d04   Number         4  lto-llvm-0469b9.o(.text.app_entry_point_handler)
    __arm_cp.112_7                           0x07fc2d08   Number         4  lto-llvm-0469b9.o(.text.app_entry_point_handler)
    __arm_cp.112_8                           0x07fc2d0c   Number         4  lto-llvm-0469b9.o(.text.app_entry_point_handler)
    __arm_cp.112_9                           0x07fc2d10   Number         4  lto-llvm-0469b9.o(.text.app_entry_point_handler)
    __arm_cp.112_10                          0x07fc2d14   Number         4  lto-llvm-0469b9.o(.text.app_entry_point_handler)
    __arm_cp.112_11                          0x07fc2d18   Number         4  lto-llvm-0469b9.o(.text.app_entry_point_handler)
    __arm_cp.112_12                          0x07fc2d1c   Number         4  lto-llvm-0469b9.o(.text.app_entry_point_handler)
    __arm_cp.112_13                          0x07fc2d20   Number         4  lto-llvm-0469b9.o(.text.app_entry_point_handler)
    __arm_cp.112_14                          0x07fc2d24   Number         4  lto-llvm-0469b9.o(.text.app_entry_point_handler)
    __arm_cp.112_15                          0x07fc2d28   Number         4  lto-llvm-0469b9.o(.text.app_entry_point_handler)
    __arm_cp.112_16                          0x07fc2d2c   Number         4  lto-llvm-0469b9.o(.text.app_entry_point_handler)
    __arm_cp.112_17                          0x07fc2d30   Number         4  lto-llvm-0469b9.o(.text.app_entry_point_handler)
    __arm_cp.112_18                          0x07fc2d34   Number         4  lto-llvm-0469b9.o(.text.app_entry_point_handler)
    __arm_cp.112_19                          0x07fc2d38   Number         4  lto-llvm-0469b9.o(.text.app_entry_point_handler)
    __arm_cp.112_20                          0x07fc2d3c   Number         4  lto-llvm-0469b9.o(.text.app_entry_point_handler)
    __arm_cp.112_21                          0x07fc2d40   Number         4  lto-llvm-0469b9.o(.text.app_entry_point_handler)
    __arm_cp.112_22                          0x07fc2d44   Number         4  lto-llvm-0469b9.o(.text.app_entry_point_handler)
    __arm_cp.112_23                          0x07fc2d48   Number         4  lto-llvm-0469b9.o(.text.app_entry_point_handler)
    __arm_cp.112_24                          0x07fc2d4c   Number         4  lto-llvm-0469b9.o(.text.app_entry_point_handler)
    __arm_cp.112_25                          0x07fc2d50   Number         4  lto-llvm-0469b9.o(.text.app_entry_point_handler)
    app_sec_process_handlers                 0x07fc2d54   Number         0  lto-llvm-0469b9.o(.text.app_entry_point_handler)
    app_fill_random_byte_array               0x07fc2d8d   Thumb Code   326  lto-llvm-0469b9.o(.text.app_fill_random_byte_array)
    [Anonymous Symbol]                       0x07fc2d8c   Section        0  lto-llvm-0469b9.o(.text.app_fill_random_byte_array)
    app_hogpd_create_db                      0x07fc2ed5   Thumb Code   196  lto-llvm-0469b9.o(.text.app_hogpd_create_db)
    [Anonymous Symbol]                       0x07fc2ed4   Section        0  lto-llvm-0469b9.o(.text.app_hogpd_create_db)
    __arm_cp.127_0                           0x07fc2f98   Number         4  lto-llvm-0469b9.o(.text.app_hogpd_create_db)
    __arm_cp.127_1                           0x07fc2f9c   Number         4  lto-llvm-0469b9.o(.text.app_hogpd_create_db)
    app_hogpd_enable                         0x07fc2fa1   Thumb Code    44  lto-llvm-0469b9.o(.text.app_hogpd_enable)
    [Anonymous Symbol]                       0x07fc2fa0   Section        0  lto-llvm-0469b9.o(.text.app_hogpd_enable)
    __arm_cp.126_0                           0x07fc2fcc   Number         4  lto-llvm-0469b9.o(.text.app_hogpd_enable)
    arch_printf                              0x07fc2fd1   Thumb Code  2032  lto-llvm-0469b9.o(.text.arch_printf)
    [Anonymous Symbol]                       0x07fc2fd0   Section        0  lto-llvm-0469b9.o(.text.arch_printf)
    __arm_cp.3_10                            0x07fc3514   Number         4  lto-llvm-0469b9.o(.text.arch_printf)
    __arm_cp.3_2                             0x07fc37c0   Number         4  lto-llvm-0469b9.o(.text.arch_printf)
    __arm_cp.3_3                             0x07fc37c4   Number         4  lto-llvm-0469b9.o(.text.arch_printf)
    __arm_cp.3_4                             0x07fc37c8   Number         4  lto-llvm-0469b9.o(.text.arch_printf)
    __arm_cp.3_5                             0x07fc37cc   Number         4  lto-llvm-0469b9.o(.text.arch_printf)
    __arm_cp.3_6                             0x07fc37d0   Number         4  lto-llvm-0469b9.o(.text.arch_printf)
    __arm_cp.3_7                             0x07fc37d4   Number         4  lto-llvm-0469b9.o(.text.arch_printf)
    ba431_get_rand_func                      0x07fc37d9   Thumb Code   200  lto-llvm-0469b9.o(.text.ba431_get_rand_func)
    [Anonymous Symbol]                       0x07fc37d8   Section        0  lto-llvm-0469b9.o(.text.ba431_get_rand_func)
    crypto_init_func                         0x07fc38a1   Thumb Code     2  lto-llvm-0469b9.o(.text.crypto_init_func)
    [Anonymous Symbol]                       0x07fc38a0   Section        0  lto-llvm-0469b9.o(.text.crypto_init_func)
    custs1_att_info_rsp_handler              0x07fc38a5   Thumb Code    64  lto-llvm-0469b9.o(.text.custs1_att_info_rsp_handler)
    [Anonymous Symbol]                       0x07fc38a4   Section        0  lto-llvm-0469b9.o(.text.custs1_att_info_rsp_handler)
    __arm_cp.63_0                            0x07fc38e4   Number         4  lto-llvm-0469b9.o(.text.custs1_att_info_rsp_handler)
    custs1_cleanup                           0x07fc38e9   Thumb Code    44  lto-llvm-0469b9.o(.text.custs1_cleanup)
    [Anonymous Symbol]                       0x07fc38e8   Section        0  lto-llvm-0469b9.o(.text.custs1_cleanup)
    custs1_create                            0x07fc3915   Thumb Code    20  lto-llvm-0469b9.o(.text.custs1_create)
    [Anonymous Symbol]                       0x07fc3914   Section        0  lto-llvm-0469b9.o(.text.custs1_create)
    custs1_destroy                           0x07fc3929   Thumb Code    44  lto-llvm-0469b9.o(.text.custs1_destroy)
    [Anonymous Symbol]                       0x07fc3928   Section        0  lto-llvm-0469b9.o(.text.custs1_destroy)
    custs1_exe_operation                     0x07fc3955   Thumb Code   512  lto-llvm-0469b9.o(.text.custs1_exe_operation)
    [Anonymous Symbol]                       0x07fc3954   Section        0  lto-llvm-0469b9.o(.text.custs1_exe_operation)
    __arm_cp.65_0                            0x07fc3b54   Number         4  lto-llvm-0469b9.o(.text.custs1_exe_operation)
    __arm_cp.65_1                            0x07fc3b58   Number         4  lto-llvm-0469b9.o(.text.custs1_exe_operation)
    __arm_cp.65_2                            0x07fc3b5c   Number         4  lto-llvm-0469b9.o(.text.custs1_exe_operation)
    custs1_init                              0x07fc3b61   Thumb Code   904  lto-llvm-0469b9.o(.text.custs1_init)
    [Anonymous Symbol]                       0x07fc3b60   Section        0  lto-llvm-0469b9.o(.text.custs1_init)
    __arm_cp.52_0                            0x07fc3ee8   Number         4  lto-llvm-0469b9.o(.text.custs1_init)
    __arm_cp.52_1                            0x07fc3eec   Number         4  lto-llvm-0469b9.o(.text.custs1_init)
    __arm_cp.52_2                            0x07fc3ef0   Number         4  lto-llvm-0469b9.o(.text.custs1_init)
    __arm_cp.52_3                            0x07fc3ef4   Number         4  lto-llvm-0469b9.o(.text.custs1_init)
    __arm_cp.52_4                            0x07fc3ef8   Number         4  lto-llvm-0469b9.o(.text.custs1_init)
    custs1_set_ccc_value                     0x07fc3efd   Thumb Code   246  lto-llvm-0469b9.o(.text.custs1_set_ccc_value)
    [Anonymous Symbol]                       0x07fc3efc   Section        0  lto-llvm-0469b9.o(.text.custs1_set_ccc_value)
    custs1_val_ind_req_handler               0x07fc3ff5   Thumb Code   240  lto-llvm-0469b9.o(.text.custs1_val_ind_req_handler)
    [Anonymous Symbol]                       0x07fc3ff4   Section        0  lto-llvm-0469b9.o(.text.custs1_val_ind_req_handler)
    custs1_val_ntf_req_handler               0x07fc40e5   Thumb Code   240  lto-llvm-0469b9.o(.text.custs1_val_ntf_req_handler)
    [Anonymous Symbol]                       0x07fc40e4   Section        0  lto-llvm-0469b9.o(.text.custs1_val_ntf_req_handler)
    __arm_cp.60_0                            0x07fc41d4   Number         4  lto-llvm-0469b9.o(.text.custs1_val_ntf_req_handler)
    custs1_val_set_req_handler               0x07fc41d9   Thumb Code    34  lto-llvm-0469b9.o(.text.custs1_val_set_req_handler)
    [Anonymous Symbol]                       0x07fc41d8   Section        0  lto-llvm-0469b9.o(.text.custs1_val_set_req_handler)
    custs1_value_req_rsp_handler             0x07fc41fd   Thumb Code   152  lto-llvm-0469b9.o(.text.custs1_value_req_rsp_handler)
    [Anonymous Symbol]                       0x07fc41fc   Section        0  lto-llvm-0469b9.o(.text.custs1_value_req_rsp_handler)
    dbg_init_func_empty                      0x07fc4295   Thumb Code     2  lto-llvm-0469b9.o(.text.dbg_init_func_empty)
    [Anonymous Symbol]                       0x07fc4294   Section        0  lto-llvm-0469b9.o(.text.dbg_init_func_empty)
    dbg_platform_reset_complete_func_empty   0x07fc4297   Thumb Code     2  lto-llvm-0469b9.o(.text.dbg_platform_reset_complete_func_empty)
    [Anonymous Symbol]                       0x07fc4296   Section        0  lto-llvm-0469b9.o(.text.dbg_platform_reset_complete_func_empty)
    dia_rand_func                            0x07fc4299   Thumb Code     8  lto-llvm-0469b9.o(.text.dia_rand_func)
    [Anonymous Symbol]                       0x07fc4298   Section        0  lto-llvm-0469b9.o(.text.dia_rand_func)
    dia_srand_func                           0x07fc42a1   Thumb Code     8  lto-llvm-0469b9.o(.text.dia_srand_func)
    [Anonymous Symbol]                       0x07fc42a0   Section        0  lto-llvm-0469b9.o(.text.dia_srand_func)
    diss_cleanup                             0x07fc42a9   Thumb Code     2  lto-llvm-0469b9.o(.text.diss_cleanup)
    [Anonymous Symbol]                       0x07fc42a8   Section        0  lto-llvm-0469b9.o(.text.diss_cleanup)
    diss_create                              0x07fc42ab   Thumb Code     2  lto-llvm-0469b9.o(.text.diss_create)
    [Anonymous Symbol]                       0x07fc42aa   Section        0  lto-llvm-0469b9.o(.text.diss_create)
    diss_destroy                             0x07fc42ad   Thumb Code    42  lto-llvm-0469b9.o(.text.diss_destroy)
    [Anonymous Symbol]                       0x07fc42ac   Section        0  lto-llvm-0469b9.o(.text.diss_destroy)
    diss_init                                0x07fc42d9   Thumb Code   248  lto-llvm-0469b9.o(.text.diss_init)
    [Anonymous Symbol]                       0x07fc42d8   Section        0  lto-llvm-0469b9.o(.text.diss_init)
    __arm_cp.44_0                            0x07fc43d0   Number         4  lto-llvm-0469b9.o(.text.diss_init)
    __arm_cp.44_1                            0x07fc43d4   Number         4  lto-llvm-0469b9.o(.text.diss_init)
    __arm_cp.44_2                            0x07fc43d8   Number         4  lto-llvm-0469b9.o(.text.diss_init)
    diss_set_value_req_handler               0x07fc43dd   Thumb Code   228  lto-llvm-0469b9.o(.text.diss_set_value_req_handler)
    [Anonymous Symbol]                       0x07fc43dc   Section        0  lto-llvm-0469b9.o(.text.diss_set_value_req_handler)
    __arm_cp.49_0                            0x07fc44c0   Number         4  lto-llvm-0469b9.o(.text.diss_set_value_req_handler)
    diss_value_cfm_handler                   0x07fc44c5   Thumb Code   132  lto-llvm-0469b9.o(.text.diss_value_cfm_handler)
    [Anonymous Symbol]                       0x07fc44c4   Section        0  lto-llvm-0469b9.o(.text.diss_value_cfm_handler)
    __arm_cp.51_0                            0x07fc4548   Number         4  lto-llvm-0469b9.o(.text.diss_value_cfm_handler)
    diss_value_req_ind_handler               0x07fc454d   Thumb Code   136  lto-llvm-0469b9.o(.text.diss_value_req_ind_handler)
    [Anonymous Symbol]                       0x07fc454c   Section        0  lto-llvm-0469b9.o(.text.diss_value_req_ind_handler)
    __arm_cp.111_2                           0x07fc45e8   Number         4  lto-llvm-0469b9.o(.text.diss_value_req_ind_handler)
    __arm_cp.111_3                           0x07fc45ec   Number         4  lto-llvm-0469b9.o(.text.diss_value_req_ind_handler)
    __arm_cp.111_7                           0x07fc4610   Number         4  lto-llvm-0469b9.o(.text.diss_value_req_ind_handler)
    diss_value_to_handle                     0x07fc4615   Thumb Code   102  lto-llvm-0469b9.o(.text.diss_value_to_handle)
    [Anonymous Symbol]                       0x07fc4614   Section        0  lto-llvm-0469b9.o(.text.diss_value_to_handle)
    gapc_bond_ind_handler                    0x07fc467d   Thumb Code   240  lto-llvm-0469b9.o(.text.gapc_bond_ind_handler)
    [Anonymous Symbol]                       0x07fc467c   Section        0  lto-llvm-0469b9.o(.text.gapc_bond_ind_handler)
    __arm_cp.104_2                           0x07fc476c   Number         4  lto-llvm-0469b9.o(.text.gapc_bond_ind_handler)
    gapc_bond_req_ind_handler                0x07fc4771   Thumb Code   616  lto-llvm-0469b9.o(.text.gapc_bond_req_ind_handler)
    [Anonymous Symbol]                       0x07fc4770   Section        0  lto-llvm-0469b9.o(.text.gapc_bond_req_ind_handler)
    __arm_cp.103_0                           0x07fc49d8   Number         4  lto-llvm-0469b9.o(.text.gapc_bond_req_ind_handler)
    __arm_cp.103_1                           0x07fc49dc   Number         4  lto-llvm-0469b9.o(.text.gapc_bond_req_ind_handler)
    __arm_cp.103_2                           0x07fc49e0   Number         4  lto-llvm-0469b9.o(.text.gapc_bond_req_ind_handler)
    __arm_cp.103_3                           0x07fc49e4   Number         4  lto-llvm-0469b9.o(.text.gapc_bond_req_ind_handler)
    __arm_cp.103_4                           0x07fc49e8   Number         4  lto-llvm-0469b9.o(.text.gapc_bond_req_ind_handler)
    __arm_cp.103_5                           0x07fc49ec   Number         4  lto-llvm-0469b9.o(.text.gapc_bond_req_ind_handler)
    __arm_cp.103_7                           0x07fc4a00   Number         4  lto-llvm-0469b9.o(.text.gapc_bond_req_ind_handler)
    __arm_cp.103_8                           0x07fc4a04   Number         4  lto-llvm-0469b9.o(.text.gapc_bond_req_ind_handler)
    __arm_cp.103_9                           0x07fc4a08   Number         4  lto-llvm-0469b9.o(.text.gapc_bond_req_ind_handler)
    gapc_cmp_evt_handler                     0x07fc4a0d   Thumb Code    24  lto-llvm-0469b9.o(.text.gapc_cmp_evt_handler)
    [Anonymous Symbol]                       0x07fc4a0c   Section        0  lto-llvm-0469b9.o(.text.gapc_cmp_evt_handler)
    gapc_connection_req_ind_handler          0x07fc4a25   Thumb Code   524  lto-llvm-0469b9.o(.text.gapc_connection_req_ind_handler)
    [Anonymous Symbol]                       0x07fc4a24   Section        0  lto-llvm-0469b9.o(.text.gapc_connection_req_ind_handler)
    __arm_cp.92_3                            0x07fc4c30   Number         4  lto-llvm-0469b9.o(.text.gapc_connection_req_ind_handler)
    __arm_cp.92_4                            0x07fc4c34   Number         4  lto-llvm-0469b9.o(.text.gapc_connection_req_ind_handler)
    __arm_cp.92_9                            0x07fc4c38   Number         4  lto-llvm-0469b9.o(.text.gapc_connection_req_ind_handler)
    __arm_cp.92_10                           0x07fc4c3c   Number         4  lto-llvm-0469b9.o(.text.gapc_connection_req_ind_handler)
    __arm_cp.92_11                           0x07fc4c40   Number         4  lto-llvm-0469b9.o(.text.gapc_connection_req_ind_handler)
    gapc_disconnect_ind_handler              0x07fc4c45   Thumb Code   224  lto-llvm-0469b9.o(.text.gapc_disconnect_ind_handler)
    [Anonymous Symbol]                       0x07fc4c44   Section        0  lto-llvm-0469b9.o(.text.gapc_disconnect_ind_handler)
    __arm_cp.93_1                            0x07fc4d24   Number         4  lto-llvm-0469b9.o(.text.gapc_disconnect_ind_handler)
    __arm_cp.93_2                            0x07fc4d28   Number         4  lto-llvm-0469b9.o(.text.gapc_disconnect_ind_handler)
    __arm_cp.93_3                            0x07fc4d2c   Number         4  lto-llvm-0469b9.o(.text.gapc_disconnect_ind_handler)
    __arm_cp.93_4                            0x07fc4d30   Number         4  lto-llvm-0469b9.o(.text.gapc_disconnect_ind_handler)
    __arm_cp.93_5                            0x07fc4d34   Number         4  lto-llvm-0469b9.o(.text.gapc_disconnect_ind_handler)
    __arm_cp.93_6                            0x07fc4d38   Number         4  lto-llvm-0469b9.o(.text.gapc_disconnect_ind_handler)
    __arm_cp.93_7                            0x07fc4d3c   Number         4  lto-llvm-0469b9.o(.text.gapc_disconnect_ind_handler)
    __arm_cp.93_8                            0x07fc4d40   Number         4  lto-llvm-0469b9.o(.text.gapc_disconnect_ind_handler)
    gapc_encrypt_ind_handler                 0x07fc4d45   Thumb Code    20  lto-llvm-0469b9.o(.text.gapc_encrypt_ind_handler)
    [Anonymous Symbol]                       0x07fc4d44   Section        0  lto-llvm-0469b9.o(.text.gapc_encrypt_ind_handler)
    __arm_cp.106_0                           0x07fc4d58   Number         4  lto-llvm-0469b9.o(.text.gapc_encrypt_ind_handler)
    gapc_encrypt_req_ind_handler             0x07fc4d5d   Thumb Code    96  lto-llvm-0469b9.o(.text.gapc_encrypt_req_ind_handler)
    [Anonymous Symbol]                       0x07fc4d5c   Section        0  lto-llvm-0469b9.o(.text.gapc_encrypt_req_ind_handler)
    __arm_cp.105_0                           0x07fc4dbc   Number         4  lto-llvm-0469b9.o(.text.gapc_encrypt_req_ind_handler)
    __arm_cp.105_1                           0x07fc4dc0   Number         4  lto-llvm-0469b9.o(.text.gapc_encrypt_req_ind_handler)
    __arm_cp.105_2                           0x07fc4dc4   Number         4  lto-llvm-0469b9.o(.text.gapc_encrypt_req_ind_handler)
    gapc_get_dev_info_req_ind_handler        0x07fc4dc9   Thumb Code   148  lto-llvm-0469b9.o(.text.gapc_get_dev_info_req_ind_handler)
    [Anonymous Symbol]                       0x07fc4dc8   Section        0  lto-llvm-0469b9.o(.text.gapc_get_dev_info_req_ind_handler)
    __arm_cp.94_0                            0x07fc4e5c   Number         4  lto-llvm-0469b9.o(.text.gapc_get_dev_info_req_ind_handler)
    gapc_le_pkt_size_ind_handler             0x07fc4e61   Thumb Code     4  lto-llvm-0469b9.o(.text.gapc_le_pkt_size_ind_handler)
    [Anonymous Symbol]                       0x07fc4e60   Section        0  lto-llvm-0469b9.o(.text.gapc_le_pkt_size_ind_handler)
    gapc_param_update_req_ind_handler        0x07fc4e65   Thumb Code    32  lto-llvm-0469b9.o(.text.gapc_param_update_req_ind_handler)
    [Anonymous Symbol]                       0x07fc4e64   Section        0  lto-llvm-0469b9.o(.text.gapc_param_update_req_ind_handler)
    gapc_peer_features_ind_handler           0x07fc4e85   Thumb Code     4  lto-llvm-0469b9.o(.text.gapc_peer_features_ind_handler)
    [Anonymous Symbol]                       0x07fc4e84   Section        0  lto-llvm-0469b9.o(.text.gapc_peer_features_ind_handler)
    gapc_security_ind_handler                0x07fc4e89   Thumb Code     4  lto-llvm-0469b9.o(.text.gapc_security_ind_handler)
    [Anonymous Symbol]                       0x07fc4e88   Section        0  lto-llvm-0469b9.o(.text.gapc_security_ind_handler)
    gapc_set_dev_info_req_ind_handler        0x07fc4e8d   Thumb Code    84  lto-llvm-0469b9.o(.text.gapc_set_dev_info_req_ind_handler)
    [Anonymous Symbol]                       0x07fc4e8c   Section        0  lto-llvm-0469b9.o(.text.gapc_set_dev_info_req_ind_handler)
    __arm_cp.95_0                            0x07fc4ee0   Number         4  lto-llvm-0469b9.o(.text.gapc_set_dev_info_req_ind_handler)
    __arm_cp.95_1                            0x07fc4ee4   Number         4  lto-llvm-0469b9.o(.text.gapc_set_dev_info_req_ind_handler)
    gapm_addr_solved_ind_handler             0x07fc4ee9   Thumb Code     4  lto-llvm-0469b9.o(.text.gapm_addr_solved_ind_handler)
    [Anonymous Symbol]                       0x07fc4ee8   Section        0  lto-llvm-0469b9.o(.text.gapm_addr_solved_ind_handler)
    gapm_adv_report_ind_handler              0x07fc4eed   Thumb Code     4  lto-llvm-0469b9.o(.text.gapm_adv_report_ind_handler)
    [Anonymous Symbol]                       0x07fc4eec   Section        0  lto-llvm-0469b9.o(.text.gapm_adv_report_ind_handler)
    gapm_cmp_evt_handler                     0x07fc4ef1   Thumb Code   416  lto-llvm-0469b9.o(.text.gapm_cmp_evt_handler)
    [Anonymous Symbol]                       0x07fc4ef0   Section        0  lto-llvm-0469b9.o(.text.gapm_cmp_evt_handler)
    __arm_cp.90_0                            0x07fc5090   Number         4  lto-llvm-0469b9.o(.text.gapm_cmp_evt_handler)
    __arm_cp.90_1                            0x07fc5094   Number         4  lto-llvm-0469b9.o(.text.gapm_cmp_evt_handler)
    __arm_cp.90_2                            0x07fc5098   Number         4  lto-llvm-0469b9.o(.text.gapm_cmp_evt_handler)
    __arm_cp.90_3                            0x07fc509c   Number         4  lto-llvm-0469b9.o(.text.gapm_cmp_evt_handler)
    __arm_cp.90_4                            0x07fc50a0   Number         4  lto-llvm-0469b9.o(.text.gapm_cmp_evt_handler)
    __arm_cp.90_5                            0x07fc50a4   Number         4  lto-llvm-0469b9.o(.text.gapm_cmp_evt_handler)
    __arm_cp.90_6                            0x07fc50a8   Number         4  lto-llvm-0469b9.o(.text.gapm_cmp_evt_handler)
    __arm_cp.90_7                            0x07fc50ac   Number         4  lto-llvm-0469b9.o(.text.gapm_cmp_evt_handler)
    gapm_device_ready_ind_handler            0x07fc50b1   Thumb Code    44  lto-llvm-0469b9.o(.text.gapm_device_ready_ind_handler)
    [Anonymous Symbol]                       0x07fc50b0   Section        0  lto-llvm-0469b9.o(.text.gapm_device_ready_ind_handler)
    __arm_cp.89_0                            0x07fc50dc   Number         4  lto-llvm-0469b9.o(.text.gapm_device_ready_ind_handler)
    gapm_profile_added_ind_handler           0x07fc50e1   Thumb Code   208  lto-llvm-0469b9.o(.text.gapm_profile_added_ind_handler)
    [Anonymous Symbol]                       0x07fc50e0   Section        0  lto-llvm-0469b9.o(.text.gapm_profile_added_ind_handler)
    __arm_cp.96_0                            0x07fc51b0   Number         4  lto-llvm-0469b9.o(.text.gapm_profile_added_ind_handler)
    __arm_cp.96_1                            0x07fc51b4   Number         4  lto-llvm-0469b9.o(.text.gapm_profile_added_ind_handler)
    __arm_cp.96_2                            0x07fc51b8   Number         4  lto-llvm-0469b9.o(.text.gapm_profile_added_ind_handler)
    __arm_cp.96_3                            0x07fc51bc   Number         4  lto-llvm-0469b9.o(.text.gapm_profile_added_ind_handler)
    __arm_cp.96_4                            0x07fc51c0   Number         4  lto-llvm-0469b9.o(.text.gapm_profile_added_ind_handler)
    __arm_cp.96_5                            0x07fc51c4   Number         4  lto-llvm-0469b9.o(.text.gapm_profile_added_ind_handler)
    __arm_cp.96_6                            0x07fc51c8   Number         4  lto-llvm-0469b9.o(.text.gapm_profile_added_ind_handler)
    gapm_ral_addr_ind_handler                0x07fc51cd   Thumb Code     4  lto-llvm-0469b9.o(.text.gapm_ral_addr_ind_handler)
    [Anonymous Symbol]                       0x07fc51cc   Section        0  lto-llvm-0469b9.o(.text.gapm_ral_addr_ind_handler)
    gapm_ral_size_ind_handler                0x07fc51d1   Thumb Code     4  lto-llvm-0469b9.o(.text.gapm_ral_size_ind_handler)
    [Anonymous Symbol]                       0x07fc51d0   Section        0  lto-llvm-0469b9.o(.text.gapm_ral_size_ind_handler)
    gattc_att_info_req_ind_handler           0x07fc51d5   Thumb Code    68  lto-llvm-0469b9.o(.text.gattc_att_info_req_ind_handler)
    [Anonymous Symbol]                       0x07fc51d4   Section        0  lto-llvm-0469b9.o(.text.gattc_att_info_req_ind_handler)
    __arm_cp.58_0                            0x07fc5218   Number         4  lto-llvm-0469b9.o(.text.gattc_att_info_req_ind_handler)
    gattc_att_info_req_ind_handler.94        0x07fc521d   Thumb Code    92  lto-llvm-0469b9.o(.text.gattc_att_info_req_ind_handler.94)
    [Anonymous Symbol]                       0x07fc521c   Section        0  lto-llvm-0469b9.o(.text.gattc_att_info_req_ind_handler.94)
    __arm_cp.84_0                            0x07fc5278   Number         4  lto-llvm-0469b9.o(.text.gattc_att_info_req_ind_handler.94)
    __arm_cp.84_2                            0x07fc5288   Number         4  lto-llvm-0469b9.o(.text.gattc_att_info_req_ind_handler.94)
    gattc_cmp_evt_handler                    0x07fc528d   Thumb Code    20  lto-llvm-0469b9.o(.text.gattc_cmp_evt_handler)
    [Anonymous Symbol]                       0x07fc528c   Section        0  lto-llvm-0469b9.o(.text.gattc_cmp_evt_handler)
    gattc_cmp_evt_handler.97                 0x07fc52a1   Thumb Code    80  lto-llvm-0469b9.o(.text.gattc_cmp_evt_handler.97)
    [Anonymous Symbol]                       0x07fc52a0   Section        0  lto-llvm-0469b9.o(.text.gattc_cmp_evt_handler.97)
    __arm_cp.87_1                            0x07fc52f0   Number         4  lto-llvm-0469b9.o(.text.gattc_cmp_evt_handler.97)
    gattc_read_req_ind_handler               0x07fc52f5   Thumb Code   400  lto-llvm-0469b9.o(.text.gattc_read_req_ind_handler)
    [Anonymous Symbol]                       0x07fc52f4   Section        0  lto-llvm-0469b9.o(.text.gattc_read_req_ind_handler)
    __arm_cp.50_2                            0x07fc5484   Number         4  lto-llvm-0469b9.o(.text.gattc_read_req_ind_handler)
    gattc_read_req_ind_handler.67            0x07fc5489   Thumb Code   308  lto-llvm-0469b9.o(.text.gattc_read_req_ind_handler.67)
    [Anonymous Symbol]                       0x07fc5488   Section        0  lto-llvm-0469b9.o(.text.gattc_read_req_ind_handler.67)
    __arm_cp.56_0                            0x07fc55bc   Number         4  lto-llvm-0469b9.o(.text.gattc_read_req_ind_handler.67)
    __arm_cp.56_1                            0x07fc55c0   Number         4  lto-llvm-0469b9.o(.text.gattc_read_req_ind_handler.67)
    __arm_cp.56_2                            0x07fc55c4   Number         4  lto-llvm-0469b9.o(.text.gattc_read_req_ind_handler.67)
    __arm_cp.56_3                            0x07fc55c8   Number         4  lto-llvm-0469b9.o(.text.gattc_read_req_ind_handler.67)
    gattc_read_req_ind_handler.96            0x07fc55cd   Thumb Code   428  lto-llvm-0469b9.o(.text.gattc_read_req_ind_handler.96)
    [Anonymous Symbol]                       0x07fc55cc   Section        0  lto-llvm-0469b9.o(.text.gattc_read_req_ind_handler.96)
    __arm_cp.86_0                            0x07fc5778   Number         4  lto-llvm-0469b9.o(.text.gattc_read_req_ind_handler.96)
    __arm_cp.86_1                            0x07fc577c   Number         4  lto-llvm-0469b9.o(.text.gattc_read_req_ind_handler.96)
    __arm_cp.86_2                            0x07fc5780   Number         4  lto-llvm-0469b9.o(.text.gattc_read_req_ind_handler.96)
    gattc_svc_changed_cfg_ind_handler        0x07fc5785   Thumb Code     4  lto-llvm-0469b9.o(.text.gattc_svc_changed_cfg_ind_handler)
    [Anonymous Symbol]                       0x07fc5784   Section        0  lto-llvm-0469b9.o(.text.gattc_svc_changed_cfg_ind_handler)
    gattc_write_req_ind_handler              0x07fc5789   Thumb Code   428  lto-llvm-0469b9.o(.text.gattc_write_req_ind_handler)
    [Anonymous Symbol]                       0x07fc5788   Section        0  lto-llvm-0469b9.o(.text.gattc_write_req_ind_handler)
    __arm_cp.57_0                            0x07fc5934   Number         4  lto-llvm-0469b9.o(.text.gattc_write_req_ind_handler)
    __arm_cp.57_1                            0x07fc5938   Number         4  lto-llvm-0469b9.o(.text.gattc_write_req_ind_handler)
    __arm_cp.57_2                            0x07fc593c   Number         4  lto-llvm-0469b9.o(.text.gattc_write_req_ind_handler)
    __arm_cp.57_3                            0x07fc5940   Number         4  lto-llvm-0469b9.o(.text.gattc_write_req_ind_handler)
    gattc_write_req_ind_handler.95           0x07fc5945   Thumb Code   604  lto-llvm-0469b9.o(.text.gattc_write_req_ind_handler.95)
    [Anonymous Symbol]                       0x07fc5944   Section        0  lto-llvm-0469b9.o(.text.gattc_write_req_ind_handler.95)
    __arm_cp.85_0                            0x07fc5ba0   Number         4  lto-llvm-0469b9.o(.text.gattc_write_req_ind_handler.95)
    __arm_cp.85_1                            0x07fc5ba4   Number         4  lto-llvm-0469b9.o(.text.gattc_write_req_ind_handler.95)
    __arm_cp.85_2                            0x07fc5ba8   Number         4  lto-llvm-0469b9.o(.text.gattc_write_req_ind_handler.95)
    hogpd_cleanup                            0x07fc5bad   Thumb Code   106  lto-llvm-0469b9.o(.text.hogpd_cleanup)
    [Anonymous Symbol]                       0x07fc5bac   Section        0  lto-llvm-0469b9.o(.text.hogpd_cleanup)
    hogpd_create                             0x07fc5c17   Thumb Code     2  lto-llvm-0469b9.o(.text.hogpd_create)
    [Anonymous Symbol]                       0x07fc5c16   Section        0  lto-llvm-0469b9.o(.text.hogpd_create)
    hogpd_destroy                            0x07fc5c19   Thumb Code    16  lto-llvm-0469b9.o(.text.hogpd_destroy)
    [Anonymous Symbol]                       0x07fc5c18   Section        0  lto-llvm-0469b9.o(.text.hogpd_destroy)
    hogpd_enable_req_handler                 0x07fc5c29   Thumb Code   284  lto-llvm-0469b9.o(.text.hogpd_enable_req_handler)
    [Anonymous Symbol]                       0x07fc5c28   Section        0  lto-llvm-0469b9.o(.text.hogpd_enable_req_handler)
    __arm_cp.80_0                            0x07fc5d44   Number         4  lto-llvm-0469b9.o(.text.hogpd_enable_req_handler)
    __arm_cp.80_1                            0x07fc5d48   Number         4  lto-llvm-0469b9.o(.text.hogpd_enable_req_handler)
    hogpd_get_att_handle                     0x07fc5d4d   Thumb Code   482  lto-llvm-0469b9.o(.text.hogpd_get_att_handle)
    [Anonymous Symbol]                       0x07fc5d4c   Section        0  lto-llvm-0469b9.o(.text.hogpd_get_att_handle)
    hogpd_get_att_idx                        0x07fc5f2f   Thumb Code   428  lto-llvm-0469b9.o(.text.hogpd_get_att_idx)
    [Anonymous Symbol]                       0x07fc5f2e   Section        0  lto-llvm-0469b9.o(.text.hogpd_get_att_idx)
    hogpd_init                               0x07fc60dd   Thumb Code  1792  lto-llvm-0469b9.o(.text.hogpd_init)
    [Anonymous Symbol]                       0x07fc60dc   Section        0  lto-llvm-0469b9.o(.text.hogpd_init)
    __arm_cp.74_7                            0x07fc6578   Number         4  lto-llvm-0469b9.o(.text.hogpd_init)
    __arm_cp.74_8                            0x07fc657c   Number         4  lto-llvm-0469b9.o(.text.hogpd_init)
    __arm_cp.74_9                            0x07fc6580   Number         4  lto-llvm-0469b9.o(.text.hogpd_init)
    __arm_cp.74_10                           0x07fc6584   Number         4  lto-llvm-0469b9.o(.text.hogpd_init)
    __arm_cp.74_12                           0x07fc6588   Number         4  lto-llvm-0469b9.o(.text.hogpd_init)
    __arm_cp.74_4                            0x07fc67dc   Number         4  lto-llvm-0469b9.o(.text.hogpd_init)
    __arm_cp.74_6                            0x07fc67e0   Number         4  lto-llvm-0469b9.o(.text.hogpd_init)
    hogpd_proto_mode_cfm_handler             0x07fc67e5   Thumb Code   204  lto-llvm-0469b9.o(.text.hogpd_proto_mode_cfm_handler)
    [Anonymous Symbol]                       0x07fc67e4   Section        0  lto-llvm-0469b9.o(.text.hogpd_proto_mode_cfm_handler)
    hogpd_report_cfm_handler                 0x07fc68b1   Thumb Code   252  lto-llvm-0469b9.o(.text.hogpd_report_cfm_handler)
    [Anonymous Symbol]                       0x07fc68b0   Section        0  lto-llvm-0469b9.o(.text.hogpd_report_cfm_handler)
    __arm_cp.82_1                            0x07fc69b4   Number         4  lto-llvm-0469b9.o(.text.hogpd_report_cfm_handler)
    hogpd_report_upd_req_handler             0x07fc69b9   Thumb Code   384  lto-llvm-0469b9.o(.text.hogpd_report_upd_req_handler)
    [Anonymous Symbol]                       0x07fc69b8   Section        0  lto-llvm-0469b9.o(.text.hogpd_report_upd_req_handler)
    __arm_cp.81_0                            0x07fc6b38   Number         4  lto-llvm-0469b9.o(.text.hogpd_report_upd_req_handler)
    __arm_cp.81_1                            0x07fc6b3c   Number         4  lto-llvm-0469b9.o(.text.hogpd_report_upd_req_handler)
    __arm_cp.81_2                            0x07fc6b40   Number         4  lto-llvm-0469b9.o(.text.hogpd_report_upd_req_handler)
    lld_sleep_compensate_func                0x07fc6b45   Thumb Code   112  lto-llvm-0469b9.o(.text.lld_sleep_compensate_func)
    [Anonymous Symbol]                       0x07fc6b44   Section        0  lto-llvm-0469b9.o(.text.lld_sleep_compensate_func)
    __arm_cp.31_1                            0x07fc6bb4   Number         4  lto-llvm-0469b9.o(.text.lld_sleep_compensate_func)
    __arm_cp.31_2                            0x07fc6bb8   Number         4  lto-llvm-0469b9.o(.text.lld_sleep_compensate_func)
    __arm_cp.31_3                            0x07fc6bbc   Number         4  lto-llvm-0469b9.o(.text.lld_sleep_compensate_func)
    __arm_cp.31_4                            0x07fc6bc0   Number         4  lto-llvm-0469b9.o(.text.lld_sleep_compensate_func)
    __arm_cp.31_5                            0x07fc6bc4   Number         4  lto-llvm-0469b9.o(.text.lld_sleep_compensate_func)
    __arm_cp.31_6                            0x07fc6bc8   Number         4  lto-llvm-0469b9.o(.text.lld_sleep_compensate_func)
    lld_sleep_init_func                      0x07fc6bcd   Thumb Code    64  lto-llvm-0469b9.o(.text.lld_sleep_init_func)
    [Anonymous Symbol]                       0x07fc6bcc   Section        0  lto-llvm-0469b9.o(.text.lld_sleep_init_func)
    __arm_cp.20_0                            0x07fc6c0c   Number         4  lto-llvm-0469b9.o(.text.lld_sleep_init_func)
    __arm_cp.20_1                            0x07fc6c10   Number         4  lto-llvm-0469b9.o(.text.lld_sleep_init_func)
    __arm_cp.20_2                            0x07fc6c14   Number         4  lto-llvm-0469b9.o(.text.lld_sleep_init_func)
    __arm_cp.20_3                            0x07fc6c18   Number         4  lto-llvm-0469b9.o(.text.lld_sleep_init_func)
    lld_sleep_lpcycles_2_us_sel_func         0x07fc6c1d   Thumb Code     8  lto-llvm-0469b9.o(.text.lld_sleep_lpcycles_2_us_sel_func)
    [Anonymous Symbol]                       0x07fc6c1c   Section        0  lto-llvm-0469b9.o(.text.lld_sleep_lpcycles_2_us_sel_func)
    lld_sleep_us_2_lpcycles_sel_func         0x07fc6c25   Thumb Code     8  lto-llvm-0469b9.o(.text.lld_sleep_us_2_lpcycles_sel_func)
    [Anonymous Symbol]                       0x07fc6c24   Section        0  lto-llvm-0469b9.o(.text.lld_sleep_us_2_lpcycles_sel_func)
    [Anonymous Symbol]                       0x07fc6c2c   Section        0  lto-llvm-0469b9.o(.text.main)
    __arm_cp.9_123                           0x07fc6f9c   Number         4  lto-llvm-0469b9.o(.text.main)
    __arm_cp.9_124                           0x07fc6fa0   Number         4  lto-llvm-0469b9.o(.text.main)
    p_mask                                   0x07fc6fa4   Number         0  lto-llvm-0469b9.o(.text.main)
    __arm_cp.9_126                           0x07fc6fac   Number         4  lto-llvm-0469b9.o(.text.main)
    __arm_cp.9_131                           0x07fc6fc0   Number         4  lto-llvm-0469b9.o(.text.main)
    __arm_cp.9_132                           0x07fc6fc4   Number         4  lto-llvm-0469b9.o(.text.main)
    __arm_cp.9_137                           0x07fc70d8   Number         4  lto-llvm-0469b9.o(.text.main)
    __arm_cp.9_138                           0x07fc70dc   Number         4  lto-llvm-0469b9.o(.text.main)
    __arm_cp.9_139                           0x07fc70e0   Number         4  lto-llvm-0469b9.o(.text.main)
    __arm_cp.9_144                           0x07fc74b0   Number         4  lto-llvm-0469b9.o(.text.main)
    __arm_cp.9_145                           0x07fc74b4   Number         4  lto-llvm-0469b9.o(.text.main)
    __arm_cp.9_146                           0x07fc74b8   Number         4  lto-llvm-0469b9.o(.text.main)
    __arm_cp.9_147                           0x07fc74bc   Number         4  lto-llvm-0469b9.o(.text.main)
    __arm_cp.9_148                           0x07fc74c0   Number         4  lto-llvm-0469b9.o(.text.main)
    __arm_cp.9_149                           0x07fc74c4   Number         4  lto-llvm-0469b9.o(.text.main)
    __arm_cp.9_150                           0x07fc74c8   Number         4  lto-llvm-0469b9.o(.text.main)
    __arm_cp.9_151                           0x07fc74cc   Number         4  lto-llvm-0469b9.o(.text.main)
    __arm_cp.9_152                           0x07fc74d0   Number         4  lto-llvm-0469b9.o(.text.main)
    __arm_cp.9_153                           0x07fc74d4   Number         4  lto-llvm-0469b9.o(.text.main)
    __arm_cp.9_155                           0x07fc74dc   Number         4  lto-llvm-0469b9.o(.text.main)
    __arm_cp.9_156                           0x07fc74e0   Number         4  lto-llvm-0469b9.o(.text.main)
    __arm_cp.9_157                           0x07fc74e4   Number         4  lto-llvm-0469b9.o(.text.main)
    __arm_cp.9_158                           0x07fc74e8   Number         4  lto-llvm-0469b9.o(.text.main)
    __arm_cp.9_159                           0x07fc74ec   Number         4  lto-llvm-0469b9.o(.text.main)
    __arm_cp.9_160                           0x07fc74f0   Number         4  lto-llvm-0469b9.o(.text.main)
    __arm_cp.9_161                           0x07fc74f4   Number         4  lto-llvm-0469b9.o(.text.main)
    __arm_cp.9_162                           0x07fc74f8   Number         4  lto-llvm-0469b9.o(.text.main)
    __arm_cp.9_163                           0x07fc74fc   Number         4  lto-llvm-0469b9.o(.text.main)
    __arm_cp.9_164                           0x07fc7500   Number         4  lto-llvm-0469b9.o(.text.main)
    __arm_cp.9_165                           0x07fc7504   Number         4  lto-llvm-0469b9.o(.text.main)
    __arm_cp.9_166                           0x07fc7508   Number         4  lto-llvm-0469b9.o(.text.main)
    __arm_cp.9_167                           0x07fc750c   Number         4  lto-llvm-0469b9.o(.text.main)
    __arm_cp.9_170                           0x07fc7518   Number         4  lto-llvm-0469b9.o(.text.main)
    __arm_cp.9_171                           0x07fc751c   Number         4  lto-llvm-0469b9.o(.text.main)
    __arm_cp.9_178                           0x07fc7538   Number         4  lto-llvm-0469b9.o(.text.main)
    __arm_cp.9_180                           0x07fc7540   Number         4  lto-llvm-0469b9.o(.text.main)
    __arm_cp.9_182                           0x07fc7548   Number         4  lto-llvm-0469b9.o(.text.main)
    __arm_cp.9_183                           0x07fc754c   Number         4  lto-llvm-0469b9.o(.text.main)
    __arm_cp.9_184                           0x07fc7550   Number         4  lto-llvm-0469b9.o(.text.main)
    __arm_cp.9_185                           0x07fc7554   Number         4  lto-llvm-0469b9.o(.text.main)
    __arm_cp.9_187                           0x07fc755c   Number         4  lto-llvm-0469b9.o(.text.main)
    __arm_cp.9_191                           0x07fc78cc   Number         4  lto-llvm-0469b9.o(.text.main)
    __arm_cp.9_192                           0x07fc78d0   Number         4  lto-llvm-0469b9.o(.text.main)
    __arm_cp.9_193                           0x07fc78d4   Number         4  lto-llvm-0469b9.o(.text.main)
    __arm_cp.9_194                           0x07fc78d8   Number         4  lto-llvm-0469b9.o(.text.main)
    __arm_cp.9_195                           0x07fc78dc   Number         4  lto-llvm-0469b9.o(.text.main)
    __arm_cp.9_196                           0x07fc78e0   Number         4  lto-llvm-0469b9.o(.text.main)
    __arm_cp.9_197                           0x07fc78e4   Number         4  lto-llvm-0469b9.o(.text.main)
    __arm_cp.9_198                           0x07fc78e8   Number         4  lto-llvm-0469b9.o(.text.main)
    __arm_cp.9_199                           0x07fc78ec   Number         4  lto-llvm-0469b9.o(.text.main)
    __arm_cp.9_201                           0x07fc78f4   Number         4  lto-llvm-0469b9.o(.text.main)
    __arm_cp.9_204                           0x07fc7900   Number         4  lto-llvm-0469b9.o(.text.main)
    __arm_cp.9_205                           0x07fc7904   Number         4  lto-llvm-0469b9.o(.text.main)
    __arm_cp.9_206                           0x07fc7908   Number         4  lto-llvm-0469b9.o(.text.main)
    __arm_cp.9_207                           0x07fc790c   Number         4  lto-llvm-0469b9.o(.text.main)
    __arm_cp.9_208                           0x07fc7910   Number         4  lto-llvm-0469b9.o(.text.main)
    __arm_cp.9_209                           0x07fc7914   Number         4  lto-llvm-0469b9.o(.text.main)
    __arm_cp.9_210                           0x07fc7918   Number         4  lto-llvm-0469b9.o(.text.main)
    __arm_cp.9_211                           0x07fc791c   Number         4  lto-llvm-0469b9.o(.text.main)
    __arm_cp.9_212                           0x07fc7920   Number         4  lto-llvm-0469b9.o(.text.main)
    __arm_cp.9_214                           0x07fc7928   Number         4  lto-llvm-0469b9.o(.text.main)
    __arm_cp.9_215                           0x07fc792c   Number         4  lto-llvm-0469b9.o(.text.main)
    __arm_cp.9_216                           0x07fc7930   Number         4  lto-llvm-0469b9.o(.text.main)
    __arm_cp.9_217                           0x07fc7934   Number         4  lto-llvm-0469b9.o(.text.main)
    __arm_cp.9_218                           0x07fc7938   Number         4  lto-llvm-0469b9.o(.text.main)
    __arm_cp.9_223                           0x07fc794c   Number         4  lto-llvm-0469b9.o(.text.main)
    __arm_cp.9_224                           0x07fc7950   Number         4  lto-llvm-0469b9.o(.text.main)
    __arm_cp.9_226                           0x07fc7958   Number         4  lto-llvm-0469b9.o(.text.main)
    __arm_cp.9_227                           0x07fc795c   Number         4  lto-llvm-0469b9.o(.text.main)
    __arm_cp.9_228                           0x07fc7960   Number         4  lto-llvm-0469b9.o(.text.main)
    __arm_cp.9_264                           0x07fc7bd4   Number         4  lto-llvm-0469b9.o(.text.main)
    __arm_cp.9_234                           0x07fc7d8c   Number         4  lto-llvm-0469b9.o(.text.main)
    __arm_cp.9_235                           0x07fc7d90   Number         4  lto-llvm-0469b9.o(.text.main)
    __arm_cp.9_237                           0x07fc7d98   Number         4  lto-llvm-0469b9.o(.text.main)
    __arm_cp.9_238                           0x07fc7d9c   Number         4  lto-llvm-0469b9.o(.text.main)
    __arm_cp.9_239                           0x07fc7da0   Number         4  lto-llvm-0469b9.o(.text.main)
    __arm_cp.9_240                           0x07fc7da4   Number         4  lto-llvm-0469b9.o(.text.main)
    __arm_cp.9_241                           0x07fc7da8   Number         4  lto-llvm-0469b9.o(.text.main)
    __arm_cp.9_242                           0x07fc7dac   Number         4  lto-llvm-0469b9.o(.text.main)
    __arm_cp.9_243                           0x07fc7db0   Number         4  lto-llvm-0469b9.o(.text.main)
    __arm_cp.9_244                           0x07fc7db4   Number         4  lto-llvm-0469b9.o(.text.main)
    __arm_cp.9_246                           0x07fc7dbc   Number         4  lto-llvm-0469b9.o(.text.main)
    __arm_cp.9_247                           0x07fc7dc0   Number         4  lto-llvm-0469b9.o(.text.main)
    __arm_cp.9_248                           0x07fc7dc4   Number         4  lto-llvm-0469b9.o(.text.main)
    __arm_cp.9_249                           0x07fc7dc8   Number         4  lto-llvm-0469b9.o(.text.main)
    __arm_cp.9_250                           0x07fc7dcc   Number         4  lto-llvm-0469b9.o(.text.main)
    __arm_cp.9_251                           0x07fc7dd0   Number         4  lto-llvm-0469b9.o(.text.main)
    __arm_cp.9_252                           0x07fc7dd4   Number         4  lto-llvm-0469b9.o(.text.main)
    __arm_cp.9_253                           0x07fc7dd8   Number         4  lto-llvm-0469b9.o(.text.main)
    __arm_cp.9_254                           0x07fc7ddc   Number         4  lto-llvm-0469b9.o(.text.main)
    __arm_cp.9_255                           0x07fc7de0   Number         4  lto-llvm-0469b9.o(.text.main)
    __arm_cp.9_256                           0x07fc7de4   Number         4  lto-llvm-0469b9.o(.text.main)
    __arm_cp.9_257                           0x07fc7de8   Number         4  lto-llvm-0469b9.o(.text.main)
    __arm_cp.9_261                           0x07fc805c   Number         4  lto-llvm-0469b9.o(.text.main)
    __arm_cp.9_6                             0x07fc8064   Number         4  lto-llvm-0469b9.o(.text.main)
    __arm_cp.9_7                             0x07fc8068   Number         4  lto-llvm-0469b9.o(.text.main)
    __arm_cp.9_11                            0x07fc806c   Number         4  lto-llvm-0469b9.o(.text.main)
    __arm_cp.9_12                            0x07fc8070   Number         4  lto-llvm-0469b9.o(.text.main)
    __arm_cp.9_28                            0x07fc8074   Number         4  lto-llvm-0469b9.o(.text.main)
    __arm_cp.9_43                            0x07fc8078   Number         4  lto-llvm-0469b9.o(.text.main)
    __arm_cp.9_44                            0x07fc807c   Number         4  lto-llvm-0469b9.o(.text.main)
    __arm_cp.9_45                            0x07fc8080   Number         4  lto-llvm-0469b9.o(.text.main)
    __arm_cp.9_46                            0x07fc8084   Number         4  lto-llvm-0469b9.o(.text.main)
    __arm_cp.9_48                            0x07fc8088   Number         4  lto-llvm-0469b9.o(.text.main)
    __arm_cp.9_64                            0x07fc808c   Number         4  lto-llvm-0469b9.o(.text.main)
    __arm_cp.9_74                            0x07fc8090   Number         4  lto-llvm-0469b9.o(.text.main)
    __arm_cp.9_79                            0x07fc8094   Number         4  lto-llvm-0469b9.o(.text.main)
    __arm_cp.9_80                            0x07fc8098   Number         4  lto-llvm-0469b9.o(.text.main)
    __arm_cp.9_87                            0x07fc809c   Number         4  lto-llvm-0469b9.o(.text.main)
    __arm_cp.9_107                           0x07fc80a0   Number         4  lto-llvm-0469b9.o(.text.main)
    __arm_cp.9_108                           0x07fc80a4   Number         4  lto-llvm-0469b9.o(.text.main)
    __arm_cp.9_109                           0x07fc80a8   Number         4  lto-llvm-0469b9.o(.text.main)
    __arm_cp.9_110                           0x07fc80ac   Number         4  lto-llvm-0469b9.o(.text.main)
    __arm_cp.9_111                           0x07fc80b0   Number         4  lto-llvm-0469b9.o(.text.main)
    __arm_cp.9_112                           0x07fc80b4   Number         4  lto-llvm-0469b9.o(.text.main)
    __arm_cp.9_113                           0x07fc80b8   Number         4  lto-llvm-0469b9.o(.text.main)
    __arm_cp.9_114                           0x07fc80bc   Number         4  lto-llvm-0469b9.o(.text.main)
    __arm_cp.9_115                           0x07fc80c0   Number         4  lto-llvm-0469b9.o(.text.main)
    __arm_cp.9_119                           0x07fc80c4   Number         4  lto-llvm-0469b9.o(.text.main)
    __arm_cp.9_120                           0x07fc80c8   Number         4  lto-llvm-0469b9.o(.text.main)
    __arm_cp.9_121                           0x07fc80cc   Number         4  lto-llvm-0469b9.o(.text.main)
    nvds_del_func                            0x07fc80d1   Thumb Code     4  lto-llvm-0469b9.o(.text.nvds_del_func)
    [Anonymous Symbol]                       0x07fc80d0   Section        0  lto-llvm-0469b9.o(.text.nvds_del_func)
    nvds_get_func                            0x07fc80d5   Thumb Code   220  lto-llvm-0469b9.o(.text.nvds_get_func)
    [Anonymous Symbol]                       0x07fc80d4   Section        0  lto-llvm-0469b9.o(.text.nvds_get_func)
    __arm_cp.5_0                             0x07fc81b0   Number         4  lto-llvm-0469b9.o(.text.nvds_get_func)
    __arm_cp.5_1                             0x07fc81b4   Number         4  lto-llvm-0469b9.o(.text.nvds_get_func)
    __arm_cp.5_2                             0x07fc81b8   Number         4  lto-llvm-0469b9.o(.text.nvds_get_func)
    nvds_init_func                           0x07fc81bd   Thumb Code     4  lto-llvm-0469b9.o(.text.nvds_init_func)
    [Anonymous Symbol]                       0x07fc81bc   Section        0  lto-llvm-0469b9.o(.text.nvds_init_func)
    nvds_put_func                            0x07fc81c1   Thumb Code     4  lto-llvm-0469b9.o(.text.nvds_put_func)
    [Anonymous Symbol]                       0x07fc81c0   Section        0  lto-llvm-0469b9.o(.text.nvds_put_func)
    param_update_request_timer_cb            0x07fc81c5   Thumb Code    80  lto-llvm-0469b9.o(.text.param_update_request_timer_cb)
    [Anonymous Symbol]                       0x07fc81c4   Section        0  lto-llvm-0469b9.o(.text.param_update_request_timer_cb)
    __arm_cp.119_0                           0x07fc8214   Number         4  lto-llvm-0469b9.o(.text.param_update_request_timer_cb)
    __arm_cp.119_1                           0x07fc8218   Number         4  lto-llvm-0469b9.o(.text.param_update_request_timer_cb)
    __arm_cp.119_2                           0x07fc821c   Number         4  lto-llvm-0469b9.o(.text.param_update_request_timer_cb)
    __arm_cp.119_3                           0x07fc8220   Number         4  lto-llvm-0469b9.o(.text.param_update_request_timer_cb)
    periph_init                              0x07fc8225   Thumb Code   636  lto-llvm-0469b9.o(.text.periph_init)
    [Anonymous Symbol]                       0x07fc8224   Section        0  lto-llvm-0469b9.o(.text.periph_init)
    __arm_cp.118_0                           0x07fc84a0   Number         4  lto-llvm-0469b9.o(.text.periph_init)
    __arm_cp.118_1                           0x07fc84a4   Number         4  lto-llvm-0469b9.o(.text.periph_init)
    __arm_cp.118_2                           0x07fc84a8   Number         4  lto-llvm-0469b9.o(.text.periph_init)
    __arm_cp.118_3                           0x07fc84ac   Number         4  lto-llvm-0469b9.o(.text.periph_init)
    __arm_cp.118_4                           0x07fc84b0   Number         4  lto-llvm-0469b9.o(.text.periph_init)
    __arm_cp.118_5                           0x07fc84b4   Number         4  lto-llvm-0469b9.o(.text.periph_init)
    __arm_cp.118_6                           0x07fc84b8   Number         4  lto-llvm-0469b9.o(.text.periph_init)
    __arm_cp.118_7                           0x07fc84bc   Number         4  lto-llvm-0469b9.o(.text.periph_init)
    __arm_cp.118_8                           0x07fc84c0   Number         4  lto-llvm-0469b9.o(.text.periph_init)
    platform_reset_func                      0x07fc84c5   Thumb Code    24  lto-llvm-0469b9.o(.text.platform_reset_func)
    [Anonymous Symbol]                       0x07fc84c4   Section        0  lto-llvm-0469b9.o(.text.platform_reset_func)
    __arm_cp.10_0                            0x07fc84dc   Number         4  lto-llvm-0469b9.o(.text.platform_reset_func)
    __arm_cp.10_1                            0x07fc84e0   Number         4  lto-llvm-0469b9.o(.text.platform_reset_func)
    __arm_cp.10_2                            0x07fc84e4   Number         4  lto-llvm-0469b9.o(.text.platform_reset_func)
    prf_add_profile_func                     0x07fc84e9   Thumb Code  1040  lto-llvm-0469b9.o(.text.prf_add_profile_func)
    [Anonymous Symbol]                       0x07fc84e8   Section        0  lto-llvm-0469b9.o(.text.prf_add_profile_func)
    __arm_cp.68_15                           0x07fc88f8   Number         4  lto-llvm-0469b9.o(.text.prf_add_profile_func)
    __arm_cp.68_0                            0x07fc88fc   Number         4  lto-llvm-0469b9.o(.text.prf_add_profile_func)
    __arm_cp.68_1                            0x07fc8900   Number         4  lto-llvm-0469b9.o(.text.prf_add_profile_func)
    __arm_cp.68_3                            0x07fc8904   Number         4  lto-llvm-0469b9.o(.text.prf_add_profile_func)
    __arm_cp.68_4                            0x07fc8908   Number         4  lto-llvm-0469b9.o(.text.prf_add_profile_func)
    __arm_cp.68_5                            0x07fc890c   Number         4  lto-llvm-0469b9.o(.text.prf_add_profile_func)
    __arm_cp.68_6                            0x07fc8910   Number         4  lto-llvm-0469b9.o(.text.prf_add_profile_func)
    __arm_cp.68_7                            0x07fc8914   Number         4  lto-llvm-0469b9.o(.text.prf_add_profile_func)
    __arm_cp.68_8                            0x07fc8918   Number         4  lto-llvm-0469b9.o(.text.prf_add_profile_func)
    __arm_cp.68_9                            0x07fc891c   Number         4  lto-llvm-0469b9.o(.text.prf_add_profile_func)
    __arm_cp.68_10                           0x07fc8920   Number         4  lto-llvm-0469b9.o(.text.prf_add_profile_func)
    __arm_cp.68_11                           0x07fc8924   Number         4  lto-llvm-0469b9.o(.text.prf_add_profile_func)
    __arm_cp.68_12                           0x07fc8928   Number         4  lto-llvm-0469b9.o(.text.prf_add_profile_func)
    __arm_cp.68_13                           0x07fc892c   Number         4  lto-llvm-0469b9.o(.text.prf_add_profile_func)
    __arm_cp.68_14                           0x07fc8930   Number         4  lto-llvm-0469b9.o(.text.prf_add_profile_func)
    prf_cleanup_func                         0x07fc8935   Thumb Code    56  lto-llvm-0469b9.o(.text.prf_cleanup_func)
    [Anonymous Symbol]                       0x07fc8934   Section        0  lto-llvm-0469b9.o(.text.prf_cleanup_func)
    prf_create_func                          0x07fc896d   Thumb Code    56  lto-llvm-0469b9.o(.text.prf_create_func)
    [Anonymous Symbol]                       0x07fc896c   Section        0  lto-llvm-0469b9.o(.text.prf_create_func)
    __arm_cp.69_1                            0x07fc89a4   Number         4  lto-llvm-0469b9.o(.text.prf_create_func)
    __arm_cp.69_2                            0x07fc89a8   Number         4  lto-llvm-0469b9.o(.text.prf_create_func)
    __arm_cp.69_3                            0x07fc89ac   Number         4  lto-llvm-0469b9.o(.text.prf_create_func)
    prf_env_get                              0x07fc89b1   Thumb Code   416  lto-llvm-0469b9.o(.text.prf_env_get)
    [Anonymous Symbol]                       0x07fc89b0   Section        0  lto-llvm-0469b9.o(.text.prf_env_get)
    __arm_cp.71_0                            0x07fc8b50   Number         4  lto-llvm-0469b9.o(.text.prf_env_get)
    __arm_cp.71_1                            0x07fc8b54   Number         4  lto-llvm-0469b9.o(.text.prf_env_get)
    __arm_cp.71_2                            0x07fc8b58   Number         4  lto-llvm-0469b9.o(.text.prf_env_get)
    __arm_cp.71_3                            0x07fc8b5c   Number         4  lto-llvm-0469b9.o(.text.prf_env_get)
    __arm_cp.71_4                            0x07fc8b60   Number         4  lto-llvm-0469b9.o(.text.prf_env_get)
    __arm_cp.71_5                            0x07fc8b64   Number         4  lto-llvm-0469b9.o(.text.prf_env_get)
    __arm_cp.71_6                            0x07fc8b68   Number         4  lto-llvm-0469b9.o(.text.prf_env_get)
    __arm_cp.71_7                            0x07fc8b6c   Number         4  lto-llvm-0469b9.o(.text.prf_env_get)
    __arm_cp.71_8                            0x07fc8b70   Number         4  lto-llvm-0469b9.o(.text.prf_env_get)
    __arm_cp.71_9                            0x07fc8b74   Number         4  lto-llvm-0469b9.o(.text.prf_env_get)
    __arm_cp.71_10                           0x07fc8b78   Number         4  lto-llvm-0469b9.o(.text.prf_env_get)
    __arm_cp.71_11                           0x07fc8b7c   Number         4  lto-llvm-0469b9.o(.text.prf_env_get)
    prf_get_id_from_task_func                0x07fc8b81   Thumb Code   448  lto-llvm-0469b9.o(.text.prf_get_id_from_task_func)
    [Anonymous Symbol]                       0x07fc8b80   Section        0  lto-llvm-0469b9.o(.text.prf_get_id_from_task_func)
    __arm_cp.72_0                            0x07fc8d40   Number         4  lto-llvm-0469b9.o(.text.prf_get_id_from_task_func)
    prf_get_task_from_id_func                0x07fc8d45   Thumb Code   424  lto-llvm-0469b9.o(.text.prf_get_task_from_id_func)
    [Anonymous Symbol]                       0x07fc8d44   Section        0  lto-llvm-0469b9.o(.text.prf_get_task_from_id_func)
    __arm_cp.73_0                            0x07fc8eec   Number         4  lto-llvm-0469b9.o(.text.prf_get_task_from_id_func)
    __arm_cp.73_1                            0x07fc8ef0   Number         4  lto-llvm-0469b9.o(.text.prf_get_task_from_id_func)
    __arm_cp.73_2                            0x07fc8ef4   Number         4  lto-llvm-0469b9.o(.text.prf_get_task_from_id_func)
    __arm_cp.73_3                            0x07fc8ef8   Number         4  lto-llvm-0469b9.o(.text.prf_get_task_from_id_func)
    __arm_cp.73_4                            0x07fc8efc   Number         4  lto-llvm-0469b9.o(.text.prf_get_task_from_id_func)
    __arm_cp.73_5                            0x07fc8f00   Number         4  lto-llvm-0469b9.o(.text.prf_get_task_from_id_func)
    __arm_cp.73_6                            0x07fc8f04   Number         4  lto-llvm-0469b9.o(.text.prf_get_task_from_id_func)
    __arm_cp.73_7                            0x07fc8f08   Number         4  lto-llvm-0469b9.o(.text.prf_get_task_from_id_func)
    __arm_cp.73_8                            0x07fc8f0c   Number         4  lto-llvm-0469b9.o(.text.prf_get_task_from_id_func)
    __arm_cp.73_9                            0x07fc8f10   Number         4  lto-llvm-0469b9.o(.text.prf_get_task_from_id_func)
    __arm_cp.73_10                           0x07fc8f14   Number         4  lto-llvm-0469b9.o(.text.prf_get_task_from_id_func)
    __arm_cp.73_11                           0x07fc8f18   Number         4  lto-llvm-0469b9.o(.text.prf_get_task_from_id_func)
    prf_init_func                            0x07fc8f1d   Thumb Code   112  lto-llvm-0469b9.o(.text.prf_init_func)
    [Anonymous Symbol]                       0x07fc8f1c   Section        0  lto-llvm-0469b9.o(.text.prf_init_func)
    __arm_cp.67_0                            0x07fc8f8c   Number         4  lto-llvm-0469b9.o(.text.prf_init_func)
    __arm_cp.67_1                            0x07fc8f90   Number         4  lto-llvm-0469b9.o(.text.prf_init_func)
    __arm_cp.67_2                            0x07fc8f94   Number         4  lto-llvm-0469b9.o(.text.prf_init_func)
    __arm_cp.67_3                            0x07fc8f98   Number         4  lto-llvm-0469b9.o(.text.prf_init_func)
    rf_force_agc_enable                      0x07fc8f9d   Thumb Code     2  lto-llvm-0469b9.o(.text.rf_force_agc_enable)
    [Anonymous Symbol]                       0x07fc8f9c   Section        0  lto-llvm-0469b9.o(.text.rf_force_agc_enable)
    rf_init_func                             0x07fc8fa1   Thumb Code   388  lto-llvm-0469b9.o(.text.rf_init_func)
    [Anonymous Symbol]                       0x07fc8fa0   Section        0  lto-llvm-0469b9.o(.text.rf_init_func)
    __arm_cp.34_0                            0x07fc9124   Number         4  lto-llvm-0469b9.o(.text.rf_init_func)
    __arm_cp.34_1                            0x07fc9128   Number         4  lto-llvm-0469b9.o(.text.rf_init_func)
    __arm_cp.34_2                            0x07fc912c   Number         4  lto-llvm-0469b9.o(.text.rf_init_func)
    __arm_cp.34_3                            0x07fc9130   Number         4  lto-llvm-0469b9.o(.text.rf_init_func)
    __arm_cp.34_4                            0x07fc9134   Number         4  lto-llvm-0469b9.o(.text.rf_init_func)
    __arm_cp.34_5                            0x07fc9138   Number         4  lto-llvm-0469b9.o(.text.rf_init_func)
    __arm_cp.34_6                            0x07fc913c   Number         4  lto-llvm-0469b9.o(.text.rf_init_func)
    __arm_cp.34_7                            0x07fc9140   Number         4  lto-llvm-0469b9.o(.text.rf_init_func)
    __arm_cp.34_8                            0x07fc9144   Number         4  lto-llvm-0469b9.o(.text.rf_init_func)
    __arm_cp.34_9                            0x07fc9148   Number         4  lto-llvm-0469b9.o(.text.rf_init_func)
    __arm_cp.34_10                           0x07fc914c   Number         4  lto-llvm-0469b9.o(.text.rf_init_func)
    __arm_cp.34_19                           0x07fc9150   Number         4  lto-llvm-0469b9.o(.text.rf_init_func)
    __arm_cp.34_20                           0x07fc9154   Number         4  lto-llvm-0469b9.o(.text.rf_init_func)
    __arm_cp.34_21                           0x07fc9158   Number         4  lto-llvm-0469b9.o(.text.rf_init_func)
    rf_reg_rd                                0x07fc915d   Thumb Code     4  lto-llvm-0469b9.o(.text.rf_reg_rd)
    [Anonymous Symbol]                       0x07fc915c   Section        0  lto-llvm-0469b9.o(.text.rf_reg_rd)
    rf_reg_wr                                0x07fc9161   Thumb Code     2  lto-llvm-0469b9.o(.text.rf_reg_wr)
    [Anonymous Symbol]                       0x07fc9160   Section        0  lto-llvm-0469b9.o(.text.rf_reg_wr)
    rf_reinit_func                           0x07fc9165   Thumb Code   112  lto-llvm-0469b9.o(.text.rf_reinit_func)
    [Anonymous Symbol]                       0x07fc9164   Section        0  lto-llvm-0469b9.o(.text.rf_reinit_func)
    __arm_cp.43_0                            0x07fc91d4   Number         4  lto-llvm-0469b9.o(.text.rf_reinit_func)
    __arm_cp.43_1                            0x07fc91d8   Number         4  lto-llvm-0469b9.o(.text.rf_reinit_func)
    __arm_cp.43_2                            0x07fc91dc   Number         4  lto-llvm-0469b9.o(.text.rf_reinit_func)
    __arm_cp.43_3                            0x07fc91e0   Number         4  lto-llvm-0469b9.o(.text.rf_reinit_func)
    __arm_cp.43_4                            0x07fc91e4   Number         4  lto-llvm-0469b9.o(.text.rf_reinit_func)
    __arm_cp.43_5                            0x07fc91e8   Number         4  lto-llvm-0469b9.o(.text.rf_reinit_func)
    __arm_cp.43_6                            0x07fc91ec   Number         4  lto-llvm-0469b9.o(.text.rf_reinit_func)
    __arm_cp.43_7                            0x07fc91f0   Number         4  lto-llvm-0469b9.o(.text.rf_reinit_func)
    __arm_cp.43_8                            0x07fc91f4   Number         4  lto-llvm-0469b9.o(.text.rf_reinit_func)
    __arm_cp.43_9                            0x07fc91f8   Number         4  lto-llvm-0469b9.o(.text.rf_reinit_func)
    rf_reset                                 0x07fc91fd   Thumb Code     2  lto-llvm-0469b9.o(.text.rf_reset)
    [Anonymous Symbol]                       0x07fc91fc   Section        0  lto-llvm-0469b9.o(.text.rf_reset)
    rf_rssi_convert                          0x07fc91ff   Thumb Code     8  lto-llvm-0469b9.o(.text.rf_rssi_convert)
    [Anonymous Symbol]                       0x07fc91fe   Section        0  lto-llvm-0469b9.o(.text.rf_rssi_convert)
    rf_sleep                                 0x07fc9209   Thumb Code    12  lto-llvm-0469b9.o(.text.rf_sleep)
    [Anonymous Symbol]                       0x07fc9208   Section        0  lto-llvm-0469b9.o(.text.rf_sleep)
    __arm_cp.38_0                            0x07fc9214   Number         4  lto-llvm-0469b9.o(.text.rf_sleep)
    rf_txpwr_dbm_get                         0x07fc9219   Thumb Code     4  lto-llvm-0469b9.o(.text.rf_txpwr_dbm_get)
    [Anonymous Symbol]                       0x07fc9218   Section        0  lto-llvm-0469b9.o(.text.rf_txpwr_dbm_get)
    [Anonymous Symbol]                       0x07fc921c   Section        0  lto-llvm-0469b9.o(.text.rwble_isr)
    __arm_cp.33_10                           0x07fc92b0   Number         4  lto-llvm-0469b9.o(.text.rwble_isr)
    __arm_cp.33_11                           0x07fc92b4   Number         4  lto-llvm-0469b9.o(.text.rwble_isr)
    __arm_cp.33_1                            0x07fc9670   Number         4  lto-llvm-0469b9.o(.text.rwble_isr)
    __arm_cp.33_2                            0x07fc9674   Number         4  lto-llvm-0469b9.o(.text.rwble_isr)
    __arm_cp.33_4                            0x07fc9678   Number         4  lto-llvm-0469b9.o(.text.rwble_isr)
    __arm_cp.33_5                            0x07fc967c   Number         4  lto-llvm-0469b9.o(.text.rwble_isr)
    __arm_cp.33_6                            0x07fc9680   Number         4  lto-llvm-0469b9.o(.text.rwble_isr)
    __arm_cp.33_7                            0x07fc9684   Number         4  lto-llvm-0469b9.o(.text.rwble_isr)
    __arm_cp.33_8                            0x07fc9688   Number         4  lto-llvm-0469b9.o(.text.rwble_isr)
    __arm_cp.33_9                            0x07fc968c   Number         4  lto-llvm-0469b9.o(.text.rwble_isr)
    smpm_ecdh_key_create_empty_func          0x07fc9691   Thumb Code     2  lto-llvm-0469b9.o(.text.smpm_ecdh_key_create_empty_func)
    [Anonymous Symbol]                       0x07fc9690   Section        0  lto-llvm-0469b9.o(.text.smpm_ecdh_key_create_empty_func)
    timer_canceled_handler                   0x07fc9693   Thumb Code     2  lto-llvm-0469b9.o(.text.timer_canceled_handler)
    [Anonymous Symbol]                       0x07fc9692   Section        0  lto-llvm-0469b9.o(.text.timer_canceled_handler)
    timer_modified_handler                   0x07fc9695   Thumb Code     2  lto-llvm-0469b9.o(.text.timer_modified_handler)
    [Anonymous Symbol]                       0x07fc9694   Section        0  lto-llvm-0469b9.o(.text.timer_modified_handler)
    uart_callback                            0x07fc9699   Thumb Code   256  lto-llvm-0469b9.o(.text.uart_callback)
    [Anonymous Symbol]                       0x07fc9698   Section        0  lto-llvm-0469b9.o(.text.uart_callback)
    __arm_cp.4_0                             0x07fc9798   Number         4  lto-llvm-0469b9.o(.text.uart_callback)
    __arm_cp.4_1                             0x07fc979c   Number         4  lto-llvm-0469b9.o(.text.uart_callback)
    __arm_cp.4_2                             0x07fc97a0   Number         4  lto-llvm-0469b9.o(.text.uart_callback)
    __arm_cp.4_3                             0x07fc97a4   Number         4  lto-llvm-0469b9.o(.text.uart_callback)
    __arm_cp.4_4                             0x07fc97a8   Number         4  lto-llvm-0469b9.o(.text.uart_callback)
    __arm_cp.4_5                             0x07fc97ac   Number         4  lto-llvm-0469b9.o(.text.uart_callback)
    __arm_cp.4_6                             0x07fc97b0   Number         4  lto-llvm-0469b9.o(.text.uart_callback)
    __arm_cp.4_7                             0x07fc97b4   Number         4  lto-llvm-0469b9.o(.text.uart_callback)
    __arm_cp.4_8                             0x07fc97b8   Number         4  lto-llvm-0469b9.o(.text.uart_callback)
    __arm_cp.4_9                             0x07fc97bc   Number         4  lto-llvm-0469b9.o(.text.uart_callback)
    __arm_cp.4_10                            0x07fc97c0   Number         4  lto-llvm-0469b9.o(.text.uart_callback)
    __arm_cp.4_11                            0x07fc97c4   Number         4  lto-llvm-0469b9.o(.text.uart_callback)
    __arm_cp.4_12                            0x07fc97c8   Number         4  lto-llvm-0469b9.o(.text.uart_callback)
    __arm_cp.4_13                            0x07fc97cc   Number         4  lto-llvm-0469b9.o(.text.uart_callback)
    __arm_cp.4_14                            0x07fc97d0   Number         4  lto-llvm-0469b9.o(.text.uart_callback)
    user_catch_rest_hndl                     0x07fc97d5   Thumb Code   448  lto-llvm-0469b9.o(.text.user_catch_rest_hndl)
    [Anonymous Symbol]                       0x07fc97d4   Section        0  lto-llvm-0469b9.o(.text.user_catch_rest_hndl)
    __arm_cp.120_0                           0x07fc9994   Number         4  lto-llvm-0469b9.o(.text.user_catch_rest_hndl)
    __arm_cp.120_1                           0x07fc9998   Number         4  lto-llvm-0469b9.o(.text.user_catch_rest_hndl)
    __arm_cp.120_2                           0x07fc999c   Number         4  lto-llvm-0469b9.o(.text.user_catch_rest_hndl)
    __arm_cp.120_3                           0x07fc99a0   Number         4  lto-llvm-0469b9.o(.text.user_catch_rest_hndl)
    hogpd_reports                            0x07fc99a4   Number         0  lto-llvm-0469b9.o(.text.user_catch_rest_hndl)
    __arm_cp.120_5                           0x07fc99c8   Number         4  lto-llvm-0469b9.o(.text.user_catch_rest_hndl)
    __arm_cp.120_7                           0x07fc99cc   Number         4  lto-llvm-0469b9.o(.text.user_catch_rest_hndl)
    __arm_cp.120_8                           0x07fc99d0   Number         4  lto-llvm-0469b9.o(.text.user_catch_rest_hndl)
    __arm_cp.120_9                           0x07fc99d4   Number         4  lto-llvm-0469b9.o(.text.user_catch_rest_hndl)
    __arm_cp.120_10                          0x07fc99d8   Number         4  lto-llvm-0469b9.o(.text.user_catch_rest_hndl)
    __arm_cp.120_11                          0x07fc99dc   Number         4  lto-llvm-0469b9.o(.text.user_catch_rest_hndl)
    __arm_cp.120_12                          0x07fc99e0   Number         4  lto-llvm-0469b9.o(.text.user_catch_rest_hndl)
    user_gamepad_axis_polling_cb             0x07fc99e5   Thumb Code    64  lto-llvm-0469b9.o(.text.user_gamepad_axis_polling_cb)
    [Anonymous Symbol]                       0x07fc99e4   Section        0  lto-llvm-0469b9.o(.text.user_gamepad_axis_polling_cb)
    __arm_cp.125_1                           0x07fc9a24   Number         4  lto-llvm-0469b9.o(.text.user_gamepad_axis_polling_cb)
    __arm_cp.125_2                           0x07fc9a28   Number         4  lto-llvm-0469b9.o(.text.user_gamepad_axis_polling_cb)
    user_gamepad_button_cb                   0x07fc9a2d   Thumb Code   240  lto-llvm-0469b9.o(.text.user_gamepad_button_cb)
    [Anonymous Symbol]                       0x07fc9a2c   Section        0  lto-llvm-0469b9.o(.text.user_gamepad_button_cb)
    __arm_cp.122_1                           0x07fc9b1c   Number         4  lto-llvm-0469b9.o(.text.user_gamepad_button_cb)
    __arm_cp.122_2                           0x07fc9b20   Number         4  lto-llvm-0469b9.o(.text.user_gamepad_button_cb)
    __arm_cp.122_3                           0x07fc9b24   Number         4  lto-llvm-0469b9.o(.text.user_gamepad_button_cb)
    user_gamepad_enable_buttons              0x07fc9b29   Thumb Code   524  lto-llvm-0469b9.o(.text.user_gamepad_enable_buttons)
    [Anonymous Symbol]                       0x07fc9b28   Section        0  lto-llvm-0469b9.o(.text.user_gamepad_enable_buttons)
    __arm_cp.121_0                           0x07fc9d34   Number         4  lto-llvm-0469b9.o(.text.user_gamepad_enable_buttons)
    __arm_cp.121_1                           0x07fc9d38   Number         4  lto-llvm-0469b9.o(.text.user_gamepad_enable_buttons)
    __arm_cp.121_2                           0x07fc9d3c   Number         4  lto-llvm-0469b9.o(.text.user_gamepad_enable_buttons)
    __arm_cp.121_3                           0x07fc9d40   Number         4  lto-llvm-0469b9.o(.text.user_gamepad_enable_buttons)
    __arm_cp.121_4                           0x07fc9d44   Number         4  lto-llvm-0469b9.o(.text.user_gamepad_enable_buttons)
    __arm_cp.121_5                           0x07fc9d48   Number         4  lto-llvm-0469b9.o(.text.user_gamepad_enable_buttons)
    __arm_cp.121_6                           0x07fc9d4c   Number         4  lto-llvm-0469b9.o(.text.user_gamepad_enable_buttons)
    __arm_cp.121_7                           0x07fc9d50   Number         4  lto-llvm-0469b9.o(.text.user_gamepad_enable_buttons)
    __arm_cp.121_8                           0x07fc9d54   Number         4  lto-llvm-0469b9.o(.text.user_gamepad_enable_buttons)
    __arm_cp.121_9                           0x07fc9d58   Number         4  lto-llvm-0469b9.o(.text.user_gamepad_enable_buttons)
    __arm_cp.121_10                          0x07fc9d5c   Number         4  lto-llvm-0469b9.o(.text.user_gamepad_enable_buttons)
    __arm_cp.121_11                          0x07fc9d60   Number         4  lto-llvm-0469b9.o(.text.user_gamepad_enable_buttons)
    user_gamepad_update_joystick             0x07fc9d65   Thumb Code   324  lto-llvm-0469b9.o(.text.user_gamepad_update_joystick)
    [Anonymous Symbol]                       0x07fc9d64   Section        0  lto-llvm-0469b9.o(.text.user_gamepad_update_joystick)
    __arm_cp.124_0                           0x07fc9ea8   Number         4  lto-llvm-0469b9.o(.text.user_gamepad_update_joystick)
    __arm_cp.124_1                           0x07fc9eac   Number         4  lto-llvm-0469b9.o(.text.user_gamepad_update_joystick)
    __arm_cp.124_2                           0x07fc9eb0   Number         4  lto-llvm-0469b9.o(.text.user_gamepad_update_joystick)
    __arm_cp.124_3                           0x07fc9eb4   Number         4  lto-llvm-0469b9.o(.text.user_gamepad_update_joystick)
    __arm_cp.124_4                           0x07fc9eb8   Number         4  lto-llvm-0469b9.o(.text.user_gamepad_update_joystick)
    __arm_cp.124_5                           0x07fc9ebc   Number         4  lto-llvm-0469b9.o(.text.user_gamepad_update_joystick)
    __arm_cp.124_6                           0x07fc9ec0   Number         4  lto-llvm-0469b9.o(.text.user_gamepad_update_joystick)
    __arm_cp.124_7                           0x07fc9ec4   Number         4  lto-llvm-0469b9.o(.text.user_gamepad_update_joystick)
    i.__scatterload_copy                     0x07fc9ec8   Section       14  handlers.o(i.__scatterload_copy)
    i.__scatterload_null                     0x07fc9ed6   Section        2  handlers.o(i.__scatterload_null)
    i.__scatterload_zeroinit                 0x07fc9ed8   Section       14  handlers.o(i.__scatterload_zeroinit)
    [Anonymous Symbol]                       0x07fc9ee8   Section        0  lto-llvm-0469b9.o(system_DA14xxx)
    __arm_cp.0_0                             0x07fc9f20   Number         4  lto-llvm-0469b9.o(system_DA14xxx)
    __arm_cp.0_1                             0x07fc9f24   Number         4  lto-llvm-0469b9.o(system_DA14xxx)
    custom_msg_handlers                      0x07fc9f28   Data          56  patch.o(.constdata)
    .constdata                               0x07fc9f28   Section      224  patch.o(.constdata)
    patch_new_table                          0x07fc9f60   Data          56  patch.o(.constdata)
    patch_orig_table                         0x07fc9f98   Data         112  patch.o(.constdata)
    [Anonymous Symbol]                       0x07fca008   Section        0  lto-llvm-0469b9.o(.rodata..L.str.1.111)
    [Anonymous Symbol]                       0x07fca01a   Section        0  lto-llvm-0469b9.o(.rodata..Lswitch.table.gattc_att_info_req_ind_handler)
    CUST1_SERVER_RX_UUID_128                 0x07fca030   Data          16  lto-llvm-0469b9.o(.rodata.CUST1_SERVER_RX_UUID_128)
    [Anonymous Symbol]                       0x07fca030   Section        0  lto-llvm-0469b9.o(.rodata.CUST1_SERVER_RX_UUID_128)
    CUST1_SERVER_TX_UUID_128                 0x07fca040   Data          16  lto-llvm-0469b9.o(.rodata.CUST1_SERVER_TX_UUID_128)
    [Anonymous Symbol]                       0x07fca040   Section        0  lto-llvm-0469b9.o(.rodata.CUST1_SERVER_TX_UUID_128)
    TASK_DESC_APP                            0x07fca050   Data          16  lto-llvm-0469b9.o(.rodata.TASK_DESC_APP)
    [Anonymous Symbol]                       0x07fca050   Section        0  lto-llvm-0469b9.o(.rodata.TASK_DESC_APP)
    app_default_handler                      0x07fca060   Data           8  lto-llvm-0469b9.o(.rodata.app_default_handler)
    [Anonymous Symbol]                       0x07fca060   Section        0  lto-llvm-0469b9.o(.rodata.app_default_handler)
    app_default_state                        0x07fca068   Data           8  lto-llvm-0469b9.o(.rodata.app_default_state)
    [Anonymous Symbol]                       0x07fca068   Section        0  lto-llvm-0469b9.o(.rodata.app_default_state)
    app_gap_process_handlers                 0x07fca070   Data         112  lto-llvm-0469b9.o(.rodata.app_gap_process_handlers)
    [Anonymous Symbol]                       0x07fca070   Section        0  lto-llvm-0469b9.o(.rodata.app_gap_process_handlers)
    att_decl_char                            0x07fca0e0   Data           2  lto-llvm-0469b9.o(.rodata.att_decl_char)
    [Anonymous Symbol]                       0x07fca0e0   Section        0  lto-llvm-0469b9.o(.rodata.att_decl_char)
    att_decl_svc                             0x07fca0e2   Data           2  lto-llvm-0469b9.o(.rodata.att_decl_svc)
    [Anonymous Symbol]                       0x07fca0e2   Section        0  lto-llvm-0469b9.o(.rodata.att_decl_svc)
    att_desc_cfg                             0x07fca0e4   Data           2  lto-llvm-0469b9.o(.rodata.att_desc_cfg)
    [Anonymous Symbol]                       0x07fca0e4   Section        0  lto-llvm-0469b9.o(.rodata.att_desc_cfg)
    att_desc_user_desc                       0x07fca0e6   Data           2  lto-llvm-0469b9.o(.rodata.att_desc_user_desc)
    [Anonymous Symbol]                       0x07fca0e6   Section        0  lto-llvm-0469b9.o(.rodata.att_desc_user_desc)
    cust_prf_funcs                           0x07fca0e8   Data          56  lto-llvm-0469b9.o(.rodata.cust_prf_funcs)
    [Anonymous Symbol]                       0x07fca0e8   Section        0  lto-llvm-0469b9.o(.rodata.cust_prf_funcs)
    custs1_att_db                            0x07fca120   Data         160  lto-llvm-0469b9.o(.rodata.custs1_att_db)
    [Anonymous Symbol]                       0x07fca120   Section        0  lto-llvm-0469b9.o(.rodata.custs1_att_db)
    custs1_default_handler                   0x07fca1c0   Data           8  lto-llvm-0469b9.o(.rodata.custs1_default_handler)
    [Anonymous Symbol]                       0x07fca1c0   Section        0  lto-llvm-0469b9.o(.rodata.custs1_default_handler)
    custs1_default_state                     0x07fca1c8   Data          72  lto-llvm-0469b9.o(.rodata.custs1_default_state)
    [Anonymous Symbol]                       0x07fca1c8   Section        0  lto-llvm-0469b9.o(.rodata.custs1_default_state)
    custs1_itf                               0x07fca210   Data          16  lto-llvm-0469b9.o(.rodata.custs1_itf)
    [Anonymous Symbol]                       0x07fca210   Section        0  lto-llvm-0469b9.o(.rodata.custs1_itf)
    custs1_svc1                              0x07fca220   Data          16  lto-llvm-0469b9.o(.rodata.custs1_svc1)
    [Anonymous Symbol]                       0x07fca220   Section        0  lto-llvm-0469b9.o(.rodata.custs1_svc1)
    diss_att_db                              0x07fca230   Data         228  lto-llvm-0469b9.o(.rodata.diss_att_db)
    [Anonymous Symbol]                       0x07fca230   Section        0  lto-llvm-0469b9.o(.rodata.diss_att_db)
    diss_default_handler                     0x07fca314   Data           8  lto-llvm-0469b9.o(.rodata.diss_default_handler)
    [Anonymous Symbol]                       0x07fca314   Section        0  lto-llvm-0469b9.o(.rodata.diss_default_handler)
    diss_default_state                       0x07fca31c   Data          24  lto-llvm-0469b9.o(.rodata.diss_default_state)
    [Anonymous Symbol]                       0x07fca31c   Section        0  lto-llvm-0469b9.o(.rodata.diss_default_state)
    diss_itf                                 0x07fca334   Data          16  lto-llvm-0469b9.o(.rodata.diss_itf)
    [Anonymous Symbol]                       0x07fca334   Section        0  lto-llvm-0469b9.o(.rodata.diss_itf)
    gap_cfg_user_var_struct                  0x07fca344   Data          90  lto-llvm-0469b9.o(.rodata.gap_cfg_user_var_struct)
    [Anonymous Symbol]                       0x07fca344   Section        0  lto-llvm-0469b9.o(.rodata.gap_cfg_user_var_struct)
    hids_att_db                              0x07fca3a0   Data         276  lto-llvm-0469b9.o(.rodata.hids_att_db)
    [Anonymous Symbol]                       0x07fca3a0   Section        0  lto-llvm-0469b9.o(.rodata.hids_att_db)
    hogpd_default_handler                    0x07fca4b4   Data           8  lto-llvm-0469b9.o(.rodata.hogpd_default_handler)
    [Anonymous Symbol]                       0x07fca4b4   Section        0  lto-llvm-0469b9.o(.rodata.hogpd_default_handler)
    hogpd_default_state                      0x07fca4bc   Data          64  lto-llvm-0469b9.o(.rodata.hogpd_default_state)
    [Anonymous Symbol]                       0x07fca4bc   Section        0  lto-llvm-0469b9.o(.rodata.hogpd_default_state)
    hogpd_itf                                0x07fca4fc   Data          16  lto-llvm-0469b9.o(.rodata.hogpd_itf)
    [Anonymous Symbol]                       0x07fca4fc   Section        0  lto-llvm-0469b9.o(.rodata.hogpd_itf)
    nvds_data_storage                        0x07fca50c   Data          14  lto-llvm-0469b9.o(.rodata.nvds_data_storage)
    [Anonymous Symbol]                       0x07fca50c   Section        0  lto-llvm-0469b9.o(.rodata.nvds_data_storage)
    prf_funcs                                0x07fca51c   Data          24  lto-llvm-0469b9.o(.rodata.prf_funcs)
    [Anonymous Symbol]                       0x07fca51c   Section        0  lto-llvm-0469b9.o(.rodata.prf_funcs)
    report_map                               0x07fca534   Data          75  lto-llvm-0469b9.o(.rodata.report_map)
    [Anonymous Symbol]                       0x07fca534   Section        0  lto-llvm-0469b9.o(.rodata.report_map)
    rom_cfg_table_var                        0x07fca580   Data         188  lto-llvm-0469b9.o(.rodata.rom_cfg_table_var)
    [Anonymous Symbol]                       0x07fca580   Section        0  lto-llvm-0469b9.o(.rodata.rom_cfg_table_var)
    rom_func_addr_table_var                  0x07fca63c   Data         388  lto-llvm-0469b9.o(.rodata.rom_func_addr_table_var)
    [Anonymous Symbol]                       0x07fca63c   Section        0  lto-llvm-0469b9.o(.rodata.rom_func_addr_table_var)
    [Anonymous Symbol]                       0x07fca7c0   Section        0  lto-llvm-0469b9.o(.rodata.str1.1)
    [Anonymous Symbol]                       0x07fca81c   Section        0  lto-llvm-0469b9.o(.rodata.str1.4)
    user_prf_funcs                           0x07fca828   Data          24  lto-llvm-0469b9.o(.rodata.user_prf_funcs)
    [Anonymous Symbol]                       0x07fca828   Section        0  lto-llvm-0469b9.o(.rodata.user_prf_funcs)
    user_security_conf                       0x07fca840   Data           7  lto-llvm-0469b9.o(.rodata.user_security_conf)
    [Anonymous Symbol]                       0x07fca840   Section        0  lto-llvm-0469b9.o(.rodata.user_security_conf)
    custs1_server_rx_char                    0x07fca878   Data          19  lto-llvm-0469b9.o(.data.custs1_server_rx_char)
    [Anonymous Symbol]                       0x07fca878   Section        0  lto-llvm-0469b9.o(.data.custs1_server_rx_char)
    custs1_server_tx_char                    0x07fca88b   Data          19  lto-llvm-0469b9.o(.data.custs1_server_tx_char)
    [Anonymous Symbol]                       0x07fca88b   Section        0  lto-llvm-0469b9.o(.data.custs1_server_tx_char)
    startup_sleep_delay                      0x07fca8a0   Data           4  lto-llvm-0469b9.o(.data.startup_sleep_delay)
    [Anonymous Symbol]                       0x07fca8a0   Section        0  lto-llvm-0469b9.o(.data.startup_sleep_delay)
    cal_failed                               0x07fca8a8   Data           1  lto-llvm-0469b9.o(.bss.cal_failed)
    [Anonymous Symbol]                       0x07fca8a8   Section        0  lto-llvm-0469b9.o(.bss.cal_failed)
    current_msg_buffer                       0x07fca8ac   Data         256  lto-llvm-0469b9.o(.bss.current_msg_buffer)
    [Anonymous Symbol]                       0x07fca8ac   Section        0  lto-llvm-0469b9.o(.bss.current_msg_buffer)
    hogpd_conidx                             0x07fca9ac   Data           1  lto-llvm-0469b9.o(.bss.hogpd_conidx)
    [Anonymous Symbol]                       0x07fca9ac   Section        0  lto-llvm-0469b9.o(.bss.hogpd_conidx)
    trng_bits                                0x07fca9b0   Data          16  lto-llvm-0469b9.o(.bss.trng_bits)
    [Anonymous Symbol]                       0x07fca9b0   Section        0  lto-llvm-0469b9.o(.bss.trng_bits)
    STACK                                    0x07fca9c0   Section     1536  startup_da14585_586.o(STACK)
    rwip_heap_non_ret                        0x07fcafc0   Data        1036  lto-llvm-0469b9.o(.bss.heap_mem_area_not_ret)
    [Anonymous Symbol]                       0x07fcafc0   Section        0  lto-llvm-0469b9.o(.bss.heap_mem_area_not_ret)
    current_msg_offset                       0x07fd2a98   Data           1  lto-llvm-0469b9.o(.bss.retention_mem_area0)
    [Anonymous Symbol]                       0x07fd2a98   Section        0  lto-llvm-0469b9.o(.bss.retention_mem_area0)
    printf_msg_list                          0x07fd2a9c   Data           4  lto-llvm-0469b9.o(.bss.retention_mem_area0)
    defer_sending                            0x07fd2aa0   Data           1  lto-llvm-0469b9.o(.bss.retention_mem_area0)
    uart_busy                                0x07fd2aa1   Data           1  lto-llvm-0469b9.o(.bss.retention_mem_area0)
    reinit_non_ret_heap                      0x07fd2aa2   Data           1  lto-llvm-0469b9.o(.bss.retention_mem_area0)
    sleep_md                                 0x07fd2aa3   Data           1  lto-llvm-0469b9.o(.bss.retention_mem_area0)
    sleep_pend                               0x07fd2aa4   Data           1  lto-llvm-0469b9.o(.bss.retention_mem_area0)
    sleep_cnt                                0x07fd2aa5   Data           1  lto-llvm-0469b9.o(.bss.retention_mem_area0)
    last_temp_time                           0x07fd2aa8   Data           4  lto-llvm-0469b9.o(.bss.retention_mem_area0)
    force_rf_cal                             0x07fd2aac   Data           1  lto-llvm-0469b9.o(.bss.retention_mem_area0)
    sys_startup_flag                         0x07fd2aad   Data           1  lto-llvm-0469b9.o(.bss.retention_mem_area0)
    dev_bdaddr                               0x07fd2aae   Data           6  lto-llvm-0469b9.o(.bss.retention_mem_area0)
    WKUPCT_callback                          0x07fd2ab4   Data           4  lto-llvm-0469b9.o(.bss.retention_mem_area0)
    uartn_env.0                              0x07fd2ab8   Data           4  lto-llvm-0469b9.o(.bss.retention_mem_area0)
    uartn_env.1                              0x07fd2abc   Data           2  lto-llvm-0469b9.o(.bss.retention_mem_area0)
    uartn_env.2                              0x07fd2ac0   Data           2  lto-llvm-0469b9.o(.bss.retention_mem_area0)
    uartn_env.7                              0x07fd2ac4   Data           4  lto-llvm-0469b9.o(.bss.retention_mem_area0)
    uartn_env.9                              0x07fd2ac8   Data           1  lto-llvm-0469b9.o(.bss.retention_mem_area0)
    twirq_set_max                            0x07fd2acc   Data           1  lto-llvm-0469b9.o(.bss.retention_mem_area0)
    clk_freq_trim_reg_value                  0x07fd2ace   Data           2  lto-llvm-0469b9.o(.bss.retention_mem_area0)
    power_up.success_cnt                     0x07fd2ad0   Data           2  lto-llvm-0469b9.o(.bss.retention_mem_area0)
    twirq_set_min                            0x07fd2ad4   Data           1  lto-llvm-0469b9.o(.bss.retention_mem_area0)
    arch_rwble_last_event                    0x07fd2ad5   Data           1  lto-llvm-0469b9.o(.bss.retention_mem_area0)
    retained_BLE_EM_BASE_REG                 0x07fd2ad8   Data           4  lto-llvm-0469b9.o(.bss.retention_mem_area0)
    twirq_set                                0x07fd2adc   Data           4  lto-llvm-0469b9.o(.bss.retention_mem_area0)
    set_boost_low_vbat1v_overhead            0x07fd2ae0   Data           1  lto-llvm-0469b9.o(.bss.retention_mem_area0)
    sleep_lp_cycles                          0x07fd2ae4   Data           4  lto-llvm-0469b9.o(.bss.retention_mem_area0)
    ble_finetim_corr                         0x07fd2ae8   Data           4  lto-llvm-0469b9.o(.bss.retention_mem_area0)
    iq_trim_rf_mixer_ctrl1_reg               0x07fd2aec   Data           2  lto-llvm-0469b9.o(.bss.retention_mem_area0)
    iq_trim_bias_ctrl1_reg                   0x07fd2aee   Data           2  lto-llvm-0469b9.o(.bss.retention_mem_area0)
    last_temp_count                          0x07fd2af0   Data           2  lto-llvm-0469b9.o(.bss.retention_mem_area0)
    prf_env                                  0x07fd2af4   Data         768  lto-llvm-0469b9.o(.bss.retention_mem_area0)
    app_db_init_next.i                       0x07fd2df4   Data           1  lto-llvm-0469b9.o(.bss.retention_mem_area0)
    app_db_init_next.k                       0x07fd2df5   Data           1  lto-llvm-0469b9.o(.bss.retention_mem_area0)
    app_db_init_next.j                       0x07fd2df6   Data           1  lto-llvm-0469b9.o(.bss.retention_mem_area0)
    device_info                              0x07fd2df8   Data          36  lto-llvm-0469b9.o(.bss.retention_mem_area0)
    adv_cmd                                  0x07fd2e1c   Data           4  lto-llvm-0469b9.o(.bss.retention_mem_area0)
    param_update_cmd                         0x07fd2e20   Data           4  lto-llvm-0469b9.o(.bss.retention_mem_area0)
    set_dev_config_cmd                       0x07fd2e24   Data           4  lto-llvm-0469b9.o(.bss.retention_mem_area0)
    app_prf_srv_perm                         0x07fd2e28   Data          20  lto-llvm-0469b9.o(.bss.retention_mem_area0)
    app_state                                0x07fd2e3c   Data           1  lto-llvm-0469b9.o(.bss.retention_mem_area0)
    gapc_bond_cfm_pairing_rsp                0x07fd2e40   Data           4  lto-llvm-0469b9.o(.bss.retention_mem_area0)
    gapc_bond_cfm_tk_exch                    0x07fd2e44   Data           4  lto-llvm-0469b9.o(.bss.retention_mem_area0)
    gapc_bond_cfm_csrk_exch                  0x07fd2e48   Data           4  lto-llvm-0469b9.o(.bss.retention_mem_area0)
    gapc_bond_cfm_ltk_exch                   0x07fd2e4c   Data           4  lto-llvm-0469b9.o(.bss.retention_mem_area0)
    app_sec_env                              0x07fd2e50   Data         122  lto-llvm-0469b9.o(.bss.retention_mem_area0)
    gapc_encrypt_cfm                         0x07fd2ecc   Data           4  lto-llvm-0469b9.o(.bss.retention_mem_area0)
    gapc_security_req                        0x07fd2ed0   Data           4  lto-llvm-0469b9.o(.bss.retention_mem_area0)
    timer_callbacks                          0x07fd2ed4   Data          40  lto-llvm-0469b9.o(.bss.retention_mem_area0)
    modified_timer_callbacks                 0x07fd2efc   Data          40  lto-llvm-0469b9.o(.bss.retention_mem_area0)
    GPIO                                     0x07fd2f24   Data         160  lto-llvm-0469b9.o(.bss.retention_mem_area0)
    GPIO_status                              0x07fd2fc8   Data           8  lto-llvm-0469b9.o(.bss.retention_mem_area0)
    app_env                                  0x07fd2fd0   Data          12  lto-llvm-0469b9.o(.bss.retention_mem_area0)
    app_connection_idx                       0x07fd2fdc   Data           1  lto-llvm-0469b9.o(.bss.retention_mem_area0)
    app_param_update_request_timer_used      0x07fd2fdd   Data           1  lto-llvm-0469b9.o(.bss.retention_mem_area0)
    gamepad_status                           0x07fd2fe0   Data         188  lto-llvm-0469b9.o(.bss.retention_mem_area0)
    sel_pins                                 0x07fd309c   Data           4  lto-llvm-0469b9.o(.bss.retention_mem_area0)
    pol_pins                                 0x07fd30a0   Data           4  lto-llvm-0469b9.o(.bss.retention_mem_area0)
    axis_polling_on                          0x07fd30a4   Data           1  lto-llvm-0469b9.o(.bss.retention_mem_area0)
    rwip_heap_db_ret                         0x07fd30a8   Data        2060  lto-llvm-0469b9.o(.bss.heap_db_area)
    [Anonymous Symbol]                       0x07fd30a8   Section        0  lto-llvm-0469b9.o(.bss.heap_db_area)
    rwip_heap_env_ret                        0x07fd38b4   Data         628  lto-llvm-0469b9.o(.bss.heap_env_area)
    [Anonymous Symbol]                       0x07fd38b4   Section        0  lto-llvm-0469b9.o(.bss.heap_env_area)
    rwip_heap_msg_ret                        0x07fd3b28   Data        7916  lto-llvm-0469b9.o(.bss.heap_msg_area)
    [Anonymous Symbol]                       0x07fd3b28   Section        0  lto-llvm-0469b9.o(.bss.heap_msg_area)

    Global Symbols

    Symbol Name                              Value     Ov Type        Size  Object(Section)

    BuildAttributes$$THM_ISAv3M$S$PE$A:L22$X:L11$S22$IEEE1$IW$~IW$USESV6$~STKCKD$USESV7$~SHL$OTIME$IEEEF$EBA8$MICROLIB$REQ8$PRES8$EABIv2 0x00000000   Number         0  anon$$obj.o ABSOLUTE
    __cpp_initialize__aeabi_                  - Undefined Weak Reference
    __cxa_finalize                            - Undefined Weak Reference
    __decompress                              - Undefined Weak Reference
    _clock_init                               - Undefined Weak Reference
    _microlib_exit                            - Undefined Weak Reference
    reset_indication                          - Undefined Weak Reference
    __Vectors_Size                           0x000000a0   Number         0  startup_da14585_586.o ABSOLUTE
    Image$$ER_IROM3$$Length                  0x0000a394   Number         0  anon$$obj.o ABSOLUTE
    uECC_vli_add                             0x07f02001   Thumb Code     0  da14585_symbols.txt ABSOLUTE
    uECC_vli_sub                             0x07f02019   Thumb Code     0  da14585_symbols.txt ABSOLUTE
    uECC_vli_mult                            0x07f02035   Thumb Code     0  da14585_symbols.txt ABSOLUTE
    set_system_clocks                        0x07f02151   Thumb Code     0  da14585_symbols.txt ABSOLUTE
    set_peripheral_clocks                    0x07f0216d   Thumb Code     0  da14585_symbols.txt ABSOLUTE
    rf_workaround_init                       0x07f021ad   Thumb Code     0  da14585_symbols.txt ABSOLUTE
    get_stack_usage                          0x07f021af   Thumb Code     0  da14585_symbols.txt ABSOLUTE
    rwip_eif_get_func                        0x07f021ed   Thumb Code     0  da14585_symbols.txt ABSOLUTE
    rwip_set_em_base                         0x07f021fd   Thumb Code     0  da14585_symbols.txt ABSOLUTE
    platform_initialization                  0x07f02203   Thumb Code     0  da14585_symbols.txt ABSOLUTE
    ble_init                                 0x07f022b5   Thumb Code     0  da14585_symbols.txt ABSOLUTE
    ble_regs_push                            0x07f02327   Thumb Code     0  da14585_symbols.txt ABSOLUTE
    ble_regs_pop                             0x07f0237f   Thumb Code     0  da14585_symbols.txt ABSOLUTE
    platform_sleep                           0x07f023d5   Thumb Code     0  da14585_symbols.txt ABSOLUTE
    rf_reinit                                0x07f026b9   Thumb Code     0  da14585_symbols.txt ABSOLUTE
    smpc_check_param                         0x07f026c1   Thumb Code     0  da14585_symbols.txt ABSOLUTE
    smpc_pdu_recv                            0x07f026cb   Thumb Code     0  da14585_symbols.txt ABSOLUTE
    lld_sleep_compensate                     0x07f026d5   Thumb Code     0  da14585_symbols.txt ABSOLUTE
    lld_sleep_init                           0x07f026df   Thumb Code     0  da14585_symbols.txt ABSOLUTE
    lld_sleep_us_2_lpcycles                  0x07f026e9   Thumb Code     0  da14585_symbols.txt ABSOLUTE
    lld_sleep_lpcycles_2_us                  0x07f026f3   Thumb Code     0  da14585_symbols.txt ABSOLUTE
    uart_flow_off                            0x07f026fd   Thumb Code     0  da14585_symbols.txt ABSOLUTE
    uart_finish_transfers                    0x07f02705   Thumb Code     0  da14585_symbols.txt ABSOLUTE
    uart_read                                0x07f0270d   Thumb Code     0  da14585_symbols.txt ABSOLUTE
    uart_write                               0x07f02715   Thumb Code     0  da14585_symbols.txt ABSOLUTE
    UART_Handler                             0x07f0271d   Thumb Code     0  da14585_symbols.txt ABSOLUTE
    uart_init                                0x07f02725   Thumb Code     0  da14585_symbols.txt ABSOLUTE
    uart_flow_on                             0x07f0272d   Thumb Code     0  da14585_symbols.txt ABSOLUTE
    gtl_init                                 0x07f02735   Thumb Code     0  da14585_symbols.txt ABSOLUTE
    gtl_eif_init                             0x07f0273d   Thumb Code     0  da14585_symbols.txt ABSOLUTE
    gtl_eif_read_start                       0x07f02745   Thumb Code     0  da14585_symbols.txt ABSOLUTE
    gtl_eif_read_hdr                         0x07f0274d   Thumb Code     0  da14585_symbols.txt ABSOLUTE
    gtl_eif_read_payl                        0x07f02755   Thumb Code     0  da14585_symbols.txt ABSOLUTE
    gtl_eif_tx_done                          0x07f0275d   Thumb Code     0  da14585_symbols.txt ABSOLUTE
    gtl_eif_rx_done                          0x07f02765   Thumb Code     0  da14585_symbols.txt ABSOLUTE
    h4tl_init                                0x07f0276d   Thumb Code     0  da14585_symbols.txt ABSOLUTE
    h4tl_read_start                          0x07f02775   Thumb Code     0  da14585_symbols.txt ABSOLUTE
    h4tl_read_hdr                            0x07f0277d   Thumb Code     0  da14585_symbols.txt ABSOLUTE
    h4tl_read_payl                           0x07f02785   Thumb Code     0  da14585_symbols.txt ABSOLUTE
    h4tl_read_next_out_of_sync               0x07f0278d   Thumb Code     0  da14585_symbols.txt ABSOLUTE
    h4tl_out_of_sync                         0x07f02795   Thumb Code     0  da14585_symbols.txt ABSOLUTE
    h4tl_tx_done                             0x07f0279d   Thumb Code     0  da14585_symbols.txt ABSOLUTE
    h4tl_rx_done                             0x07f027a5   Thumb Code     0  da14585_symbols.txt ABSOLUTE
    ke_task_init                             0x07f027ad   Thumb Code     0  da14585_symbols.txt ABSOLUTE
    ke_timer_init                            0x07f027b5   Thumb Code     0  da14585_symbols.txt ABSOLUTE
    llm_encryption_done                      0x07f027bd   Thumb Code     0  da14585_symbols.txt ABSOLUTE
    nvds_get                                 0x07f027c5   Thumb Code     0  da14585_symbols.txt ABSOLUTE
    nvds_del                                 0x07f027cd   Thumb Code     0  da14585_symbols.txt ABSOLUTE
    nvds_put                                 0x07f027d5   Thumb Code     0  da14585_symbols.txt ABSOLUTE
    rwip_eif_get                             0x07f027dd   Thumb Code     0  da14585_symbols.txt ABSOLUTE
    platform_reset                           0x07f027e5   Thumb Code     0  da14585_symbols.txt ABSOLUTE
    lld_test_stop                            0x07f027ef   Thumb Code     0  da14585_symbols.txt ABSOLUTE
    lld_test_mode_tx                         0x07f027f9   Thumb Code     0  da14585_symbols.txt ABSOLUTE
    lld_test_mode_rx                         0x07f02803   Thumb Code     0  da14585_symbols.txt ABSOLUTE
    prf_init                                 0x07f0280d   Thumb Code     0  da14585_symbols.txt ABSOLUTE
    prf_add_profile                          0x07f02817   Thumb Code     0  da14585_symbols.txt ABSOLUTE
    prf_create                               0x07f02821   Thumb Code     0  da14585_symbols.txt ABSOLUTE
    prf_cleanup                              0x07f0282b   Thumb Code     0  da14585_symbols.txt ABSOLUTE
    prf_get_id_from_task                     0x07f02835   Thumb Code     0  da14585_symbols.txt ABSOLUTE
    prf_get_task_from_id                     0x07f0283f   Thumb Code     0  da14585_symbols.txt ABSOLUTE
    nvds_init                                0x07f02849   Thumb Code     0  da14585_symbols.txt ABSOLUTE
    SetSystemVars                            0x07f02851   Thumb Code     0  da14585_symbols.txt ABSOLUTE
    dbg_init                                 0x07f0285b   Thumb Code     0  da14585_symbols.txt ABSOLUTE
    dbg_platform_reset_complete              0x07f02865   Thumb Code     0  da14585_symbols.txt ABSOLUTE
    hci_rd_local_supp_feats_cmd_handler      0x07f0286f   Thumb Code     0  da14585_symbols.txt ABSOLUTE
    l2cc_pdu_pack                            0x07f0287f   Thumb Code     0  da14585_symbols.txt ABSOLUTE
    l2cc_pdu_unpack                          0x07f02895   Thumb Code     0  da14585_symbols.txt ABSOLUTE
    l2c_send_lecb_message                    0x07f028ad   Thumb Code     0  da14585_symbols.txt ABSOLUTE
    l2c_process_sdu                          0x07f028b7   Thumb Code     0  da14585_symbols.txt ABSOLUTE
    l2cc_pdu_recv_ind_handler                0x07f028c1   Thumb Code     0  da14585_symbols.txt ABSOLUTE
    gapc_lecb_connect_cfm_handler            0x07f028d1   Thumb Code     0  da14585_symbols.txt ABSOLUTE
    atts_l2cc_pdu_recv_handler               0x07f028e1   Thumb Code     0  da14585_symbols.txt ABSOLUTE
    attc_l2cc_pdu_recv_handler               0x07f028eb   Thumb Code     0  da14585_symbols.txt ABSOLUTE
    crypto_init                              0x07f028f5   Thumb Code     0  da14585_symbols.txt ABSOLUTE
    llm_le_adv_report_ind                    0x07f028ff   Thumb Code     0  da14585_symbols.txt ABSOLUTE
    PK_PointMult                             0x07f02909   Thumb Code     0  da14585_symbols.txt ABSOLUTE
    llm_p256_start                           0x07f02913   Thumb Code     0  da14585_symbols.txt ABSOLUTE
    llm_create_p256_key                      0x07f0291d   Thumb Code     0  da14585_symbols.txt ABSOLUTE
    llm_p256_req_handler                     0x07f02929   Thumb Code     0  da14585_symbols.txt ABSOLUTE
    llc_le_length_effective                  0x07f0293b   Thumb Code     0  da14585_symbols.txt ABSOLUTE
    llc_le_length_conn_init                  0x07f02947   Thumb Code     0  da14585_symbols.txt ABSOLUTE
    lld_data_tx_prog                         0x07f02953   Thumb Code     0  da14585_symbols.txt ABSOLUTE
    lld_data_tx_check                        0x07f0295f   Thumb Code     0  da14585_symbols.txt ABSOLUTE
    llc_pdu_send                             0x07f0296b   Thumb Code     0  da14585_symbols.txt ABSOLUTE
    dia_rand                                 0x07f02977   Thumb Code     0  da14585_symbols.txt ABSOLUTE
    dia_srand                                0x07f02983   Thumb Code     0  da14585_symbols.txt ABSOLUTE
    llc_data_notif                           0x07f0298f   Thumb Code     0  da14585_symbols.txt ABSOLUTE
    ba431_get_rand                           0x07f029a9   Thumb Code     0  da14585_symbols.txt ABSOLUTE
    modulationGainCalibration                0x07f029b5   Thumb Code     0  da14585_symbols.txt ABSOLUTE
    DCoffsetCalibration                      0x07f029c1   Thumb Code     0  da14585_symbols.txt ABSOLUTE
    PllLF_IFF_MIX_CapCalibration             0x07f029cd   Thumb Code     0  da14585_symbols.txt ABSOLUTE
    smpc_public_key_exchange_start           0x07f029d9   Thumb Code     0  da14585_symbols.txt ABSOLUTE
    smpc_dhkey_calc_ind                      0x07f029e5   Thumb Code     0  da14585_symbols.txt ABSOLUTE
    smpm_ecdh_key_create                     0x07f029f1   Thumb Code     0  da14585_symbols.txt ABSOLUTE
    co_buf_init                              0x07f02a01   Thumb Code     0  da14585_symbols.txt ABSOLUTE
    co_buf_rx_free                           0x07f02ac7   Thumb Code     0  da14585_symbols.txt ABSOLUTE
    co_buf_rx_buffer_get                     0x07f02ae1   Thumb Code     0  da14585_symbols.txt ABSOLUTE
    co_buf_tx_buffer_get                     0x07f02aeb   Thumb Code     0  da14585_symbols.txt ABSOLUTE
    co_list_init                             0x07f02b15   Thumb Code     0  da14585_symbols.txt ABSOLUTE
    co_list_pop_front                        0x07f02b25   Thumb Code     0  da14585_symbols.txt ABSOLUTE
    co_list_flush                            0x07f02b47   Thumb Code     0  da14585_symbols.txt ABSOLUTE
    co_list_push_back                        0x07f02b5d   Thumb Code     0  da14585_symbols.txt ABSOLUTE
    co_list_pool_init                        0x07f02b81   Thumb Code     0  da14585_symbols.txt ABSOLUTE
    co_list_push_front                       0x07f02be9   Thumb Code     0  da14585_symbols.txt ABSOLUTE
    co_list_extract                          0x07f02c05   Thumb Code     0  da14585_symbols.txt ABSOLUTE
    co_list_find                             0x07f02c55   Thumb Code     0  da14585_symbols.txt ABSOLUTE
    co_list_merge                            0x07f02c6b   Thumb Code     0  da14585_symbols.txt ABSOLUTE
    co_list_insert_before                    0x07f02c87   Thumb Code     0  da14585_symbols.txt ABSOLUTE
    co_list_insert_after                     0x07f02cbf   Thumb Code     0  da14585_symbols.txt ABSOLUTE
    co_list_size                             0x07f02cfb   Thumb Code     0  da14585_symbols.txt ABSOLUTE
    co_bdaddr_compare                        0x07f02d0f   Thumb Code     0  da14585_symbols.txt ABSOLUTE
    llc_init                                 0x07f02d2d   Thumb Code     0  da14585_symbols.txt ABSOLUTE
    llc_stop                                 0x07f02d57   Thumb Code     0  da14585_symbols.txt ABSOLUTE
    llc_reset                                0x07f02d9d   Thumb Code     0  da14585_symbols.txt ABSOLUTE
    llc_le_length_effective_func             0x07f02dbf   Thumb Code     0  da14585_symbols.txt ABSOLUTE
    llc_le_length_conn_init_func             0x07f02e53   Thumb Code     0  da14585_symbols.txt ABSOLUTE
    llc_le_enh_con_cmp_evt_send              0x07f02eaf   Thumb Code     0  da14585_symbols.txt ABSOLUTE
    llc_le_con_cmp_evt_send                  0x07f02fc9   Thumb Code     0  da14585_symbols.txt ABSOLUTE
    llc_start                                0x07f03075   Thumb Code     0  da14585_symbols.txt ABSOLUTE
    llc_discon_event_complete_send           0x07f031e7   Thumb Code     0  da14585_symbols.txt ABSOLUTE
    llc_con_update_complete_send             0x07f03207   Thumb Code     0  da14585_symbols.txt ABSOLUTE
    llc_ltk_req_send                         0x07f03241   Thumb Code     0  da14585_symbols.txt ABSOLUTE
    llc_feats_rd_event_send                  0x07f03279   Thumb Code     0  da14585_symbols.txt ABSOLUTE
    llc_version_rd_event_send                0x07f032b5   Thumb Code     0  da14585_symbols.txt ABSOLUTE
    llc_common_cmd_complete_send             0x07f032e5   Thumb Code     0  da14585_symbols.txt ABSOLUTE
    llc_common_cmd_status_send               0x07f03303   Thumb Code     0  da14585_symbols.txt ABSOLUTE
    llc_common_flush_occurred_send           0x07f0331f   Thumb Code     0  da14585_symbols.txt ABSOLUTE
    llc_common_enc_key_ref_comp_evt_send     0x07f03337   Thumb Code     0  da14585_symbols.txt ABSOLUTE
    llc_common_enc_change_evt_send           0x07f03353   Thumb Code     0  da14585_symbols.txt ABSOLUTE
    llc_common_nb_of_pkt_comp_evt_send       0x07f033b9   Thumb Code     0  da14585_symbols.txt ABSOLUTE
    llc_con_update_ind                       0x07f033d9   Thumb Code     0  da14585_symbols.txt ABSOLUTE
    llc_lsto_con_update                      0x07f03453   Thumb Code     0  da14585_symbols.txt ABSOLUTE
    llc_map_update_ind                       0x07f03485   Thumb Code     0  da14585_symbols.txt ABSOLUTE
    llc_chnl_map_req_send                    0x07f03537   Thumb Code     0  da14585_symbols.txt ABSOLUTE
    llc_add_bad_chnl                         0x07f03553   Thumb Code     0  da14585_symbols.txt ABSOLUTE
    llc_pdu_send_func                        0x07f035f5   Thumb Code     0  da14585_symbols.txt ABSOLUTE
    llc_version_ind_pdu_send                 0x07f03665   Thumb Code     0  da14585_symbols.txt ABSOLUTE
    llc_ch_map_update_pdu_send               0x07f036b5   Thumb Code     0  da14585_symbols.txt ABSOLUTE
    llc_pause_enc_req_pdu_send               0x07f03705   Thumb Code     0  da14585_symbols.txt ABSOLUTE
    llc_pause_enc_rsp_pdu_send               0x07f03751   Thumb Code     0  da14585_symbols.txt ABSOLUTE
    llc_enc_req_pdu_send                     0x07f037b5   Thumb Code     0  da14585_symbols.txt ABSOLUTE
    llc_enc_rsp_pdu_send                     0x07f0387f   Thumb Code     0  da14585_symbols.txt ABSOLUTE
    llc_start_enc_rsp_pdu_send               0x07f0391b   Thumb Code     0  da14585_symbols.txt ABSOLUTE
    llc_reject_ind_pdu_send                  0x07f03971   Thumb Code     0  da14585_symbols.txt ABSOLUTE
    llc_con_update_pdu_send                  0x07f03a13   Thumb Code     0  da14585_symbols.txt ABSOLUTE
    llc_con_param_req_pdu_send               0x07f03a69   Thumb Code     0  da14585_symbols.txt ABSOLUTE
    llc_con_param_rsp_pdu_send               0x07f03af7   Thumb Code     0  da14585_symbols.txt ABSOLUTE
    llc_feats_req_pdu_send                   0x07f03b85   Thumb Code     0  da14585_symbols.txt ABSOLUTE
    llc_start_enc_req_pdu_send               0x07f03be5   Thumb Code     0  da14585_symbols.txt ABSOLUTE
    llc_terminate_ind_pdu_send               0x07f03c8b   Thumb Code     0  da14585_symbols.txt ABSOLUTE
    llc_unknown_rsp_send_pdu                 0x07f03cff   Thumb Code     0  da14585_symbols.txt ABSOLUTE
    llc_length_req_pdu_send                  0x07f03d33   Thumb Code     0  da14585_symbols.txt ABSOLUTE
    llc_length_rsp_pdu_send                  0x07f03de9   Thumb Code     0  da14585_symbols.txt ABSOLUTE
    llc_length_ind                           0x07f03e6f   Thumb Code     0  da14585_symbols.txt ABSOLUTE
    llc_ping_req_pdu_send                    0x07f03efb   Thumb Code     0  da14585_symbols.txt ABSOLUTE
    llc_ping_rsp_pdu_send                    0x07f03f2b   Thumb Code     0  da14585_symbols.txt ABSOLUTE
    llc_feats_req_ind                        0x07f03f5b   Thumb Code     0  da14585_symbols.txt ABSOLUTE
    llc_feats_rsp_ind                        0x07f03fbd   Thumb Code     0  da14585_symbols.txt ABSOLUTE
    llc_vers_ind_ind                         0x07f04015   Thumb Code     0  da14585_symbols.txt ABSOLUTE
    llc_terminate_ind                        0x07f04099   Thumb Code     0  da14585_symbols.txt ABSOLUTE
    llc_pause_enc_req_ind                    0x07f040d5   Thumb Code     0  da14585_symbols.txt ABSOLUTE
    llc_pause_enc_rsp_ind                    0x07f04105   Thumb Code     0  da14585_symbols.txt ABSOLUTE
    llc_enc_req_ind                          0x07f04179   Thumb Code     0  da14585_symbols.txt ABSOLUTE
    llc_enc_rsp_ind                          0x07f0421d   Thumb Code     0  da14585_symbols.txt ABSOLUTE
    llc_start_enc_req_ind                    0x07f042e1   Thumb Code     0  da14585_symbols.txt ABSOLUTE
    llc_start_enc_rsp_ind                    0x07f04343   Thumb Code     0  da14585_symbols.txt ABSOLUTE
    llc_cntl_rcv                             0x07f043cb   Thumb Code     0  da14585_symbols.txt ABSOLUTE
    llcp_con_param_req_pdu_unpk              0x07f04457   Thumb Code     0  da14585_symbols.txt ABSOLUTE
    llcp_con_param_rsp_pdu_unpk              0x07f044cf   Thumb Code     0  da14585_symbols.txt ABSOLUTE
    llc_con_update_req_ind                   0x07f04547   Thumb Code     0  da14585_symbols.txt ABSOLUTE
    llc_ch_map_req_ind                       0x07f045a1   Thumb Code     0  da14585_symbols.txt ABSOLUTE
    llc_data_rcv                             0x07f04615   Thumb Code     0  da14585_symbols.txt ABSOLUTE
    llcp_length_req_handler                  0x07f05fe3   Thumb Code     0  da14585_symbols.txt ABSOLUTE
    llc_util_get_free_conhdl                 0x07f063c5   Thumb Code     0  da14585_symbols.txt ABSOLUTE
    llc_util_dicon_procedure                 0x07f063f5   Thumb Code     0  da14585_symbols.txt ABSOLUTE
    llc_util_gen_skdx                        0x07f06457   Thumb Code     0  da14585_symbols.txt ABSOLUTE
    llc_util_update_channel_map              0x07f0646b   Thumb Code     0  da14585_symbols.txt ABSOLUTE
    llc_util_set_llcp_discard_enable         0x07f0647d   Thumb Code     0  da14585_symbols.txt ABSOLUTE
    llc_util_set_auth_payl_to_margin         0x07f06495   Thumb Code     0  da14585_symbols.txt ABSOLUTE
    llc_data_notif_func                      0x07f064bd   Thumb Code     0  da14585_symbols.txt ABSOLUTE
    lld_init                                 0x07f065c9   Thumb Code     0  da14585_symbols.txt ABSOLUTE
    lld_reset                                0x07f06717   Thumb Code     0  da14585_symbols.txt ABSOLUTE
    lld_adv_start                            0x07f06765   Thumb Code     0  da14585_symbols.txt ABSOLUTE
    lld_adv_stop                             0x07f068b3   Thumb Code     0  da14585_symbols.txt ABSOLUTE
    lld_scan_start                           0x07f068d9   Thumb Code     0  da14585_symbols.txt ABSOLUTE
    lld_scan_stop                            0x07f06a33   Thumb Code     0  da14585_symbols.txt ABSOLUTE
    lld_con_start                            0x07f06a6b   Thumb Code     0  da14585_symbols.txt ABSOLUTE
    lld_move_to_master                       0x07f06de3   Thumb Code     0  da14585_symbols.txt ABSOLUTE
    lld_con_update_req                       0x07f06e79   Thumb Code     0  da14585_symbols.txt ABSOLUTE
    lld_con_update_after_param_req           0x07f06ef3   Thumb Code     0  da14585_symbols.txt ABSOLUTE
    lld_con_param_rsp                        0x07f070d9   Thumb Code     0  da14585_symbols.txt ABSOLUTE
    lld_con_param_req                        0x07f071d3   Thumb Code     0  da14585_symbols.txt ABSOLUTE
    lld_con_stop                             0x07f072a5   Thumb Code     0  da14585_symbols.txt ABSOLUTE
    lld_get_mode                             0x07f072fb   Thumb Code     0  da14585_symbols.txt ABSOLUTE
    lld_move_to_slave                        0x07f0731f   Thumb Code     0  da14585_symbols.txt ABSOLUTE
    lld_ch_map_ind                           0x07f0749f   Thumb Code     0  da14585_symbols.txt ABSOLUTE
    lld_con_update_ind                       0x07f074b1   Thumb Code     0  da14585_symbols.txt ABSOLUTE
    lld_crypt_isr                            0x07f074bf   Thumb Code     0  da14585_symbols.txt ABSOLUTE
    lld_test_mode_tx_func                    0x07f074c9   Thumb Code     0  da14585_symbols.txt ABSOLUTE
    lld_test_mode_rx_func                    0x07f0756b   Thumb Code     0  da14585_symbols.txt ABSOLUTE
    lld_test_stop_func                       0x07f075ff   Thumb Code     0  da14585_symbols.txt ABSOLUTE
    lld_data_rx_check                        0x07f076bd   Thumb Code     0  da14585_symbols.txt ABSOLUTE
    lld_data_rx_flush                        0x07f07701   Thumb Code     0  da14585_symbols.txt ABSOLUTE
    lld_data_tx_check_func                   0x07f07725   Thumb Code     0  da14585_symbols.txt ABSOLUTE
    lld_data_tx_loop                         0x07f077cb   Thumb Code     0  da14585_symbols.txt ABSOLUTE
    lld_data_tx_push                         0x07f077f9   Thumb Code     0  da14585_symbols.txt ABSOLUTE
    lld_data_tx_prog_func                    0x07f0785b   Thumb Code     0  da14585_symbols.txt ABSOLUTE
    lld_data_tx_flush                        0x07f07991   Thumb Code     0  da14585_symbols.txt ABSOLUTE
    lld_evt_drift_compute                    0x07f07aa9   Thumb Code     0  da14585_symbols.txt ABSOLUTE
    lld_evt_elt_delete                       0x07f07b87   Thumb Code     0  da14585_symbols.txt ABSOLUTE
    lld_evt_channel_next                     0x07f07cc9   Thumb Code     0  da14585_symbols.txt ABSOLUTE
    lld_evt_deffered_elt_handler             0x07f08181   Thumb Code     0  da14585_symbols.txt ABSOLUTE
    lld_evt_init                             0x07f08253   Thumb Code     0  da14585_symbols.txt ABSOLUTE
    lld_evt_init_evt                         0x07f082c9   Thumb Code     0  da14585_symbols.txt ABSOLUTE
    lld_evt_elt_insert                       0x07f082e7   Thumb Code     0  da14585_symbols.txt ABSOLUTE
    lld_evt_conhdl2elt                       0x07f08311   Thumb Code     0  da14585_symbols.txt ABSOLUTE
    lld_evt_schedule_next                    0x07f0832d   Thumb Code     0  da14585_symbols.txt ABSOLUTE
    lld_evt_schedule                         0x07f08425   Thumb Code     0  da14585_symbols.txt ABSOLUTE
    lld_evt_prevent_stop                     0x07f08461   Thumb Code     0  da14585_symbols.txt ABSOLUTE
    lld_evt_canceled                         0x07f08463   Thumb Code     0  da14585_symbols.txt ABSOLUTE
    lld_evt_scan_create                      0x07f08487   Thumb Code     0  da14585_symbols.txt ABSOLUTE
    lld_evt_move_to_master                   0x07f08579   Thumb Code     0  da14585_symbols.txt ABSOLUTE
    lld_evt_update_create                    0x07f08673   Thumb Code     0  da14585_symbols.txt ABSOLUTE
    lld_evt_ch_map_update_req                0x07f087a9   Thumb Code     0  da14585_symbols.txt ABSOLUTE
    lld_evt_move_to_slave                    0x07f087c1   Thumb Code     0  da14585_symbols.txt ABSOLUTE
    lld_evt_slave_update                     0x07f089f1   Thumb Code     0  da14585_symbols.txt ABSOLUTE
    lld_evt_adv_create                       0x07f08a87   Thumb Code     0  da14585_symbols.txt ABSOLUTE
    lld_evt_end                              0x07f08b0b   Thumb Code     0  da14585_symbols.txt ABSOLUTE
    lld_evt_rx                               0x07f08c19   Thumb Code     0  da14585_symbols.txt ABSOLUTE
    lld_evt_timer_isr                        0x07f08c49   Thumb Code     0  da14585_symbols.txt ABSOLUTE
    lld_evt_end_isr                          0x07f08c53   Thumb Code     0  da14585_symbols.txt ABSOLUTE
    lld_evt_rx_isr                           0x07f08cd3   Thumb Code     0  da14585_symbols.txt ABSOLUTE
    lld_sleep_us_2_lpcycles_func             0x07f08e81   Thumb Code     0  da14585_symbols.txt ABSOLUTE
    lld_sleep_lpcycles_2_us_func             0x07f08e9f   Thumb Code     0  da14585_symbols.txt ABSOLUTE
    lld_sleep_enter                          0x07f08f9f   Thumb Code     0  da14585_symbols.txt ABSOLUTE
    lld_sleep_wakeup                         0x07f08fdf   Thumb Code     0  da14585_symbols.txt ABSOLUTE
    lld_sleep_wakeup_end                     0x07f08ff9   Thumb Code     0  da14585_symbols.txt ABSOLUTE
    lld_wlcoex_connection_complete           0x07f0901d   Thumb Code     0  da14585_symbols.txt ABSOLUTE
    lld_wlcoex_remove_connection             0x07f09035   Thumb Code     0  da14585_symbols.txt ABSOLUTE
    lld_wlcoex_set                           0x07f09049   Thumb Code     0  da14585_symbols.txt ABSOLUTE
    lld_util_get_bd_address                  0x07f0905d   Thumb Code     0  da14585_symbols.txt ABSOLUTE
    lld_util_set_bd_address                  0x07f0907d   Thumb Code     0  da14585_symbols.txt ABSOLUTE
    lld_util_freq2chnl                       0x07f090b9   Thumb Code     0  da14585_symbols.txt ABSOLUTE
    lld_util_get_local_offset                0x07f090db   Thumb Code     0  da14585_symbols.txt ABSOLUTE
    lld_util_get_peer_offset                 0x07f090f5   Thumb Code     0  da14585_symbols.txt ABSOLUTE
    lld_util_connection_param_set            0x07f09111   Thumb Code     0  da14585_symbols.txt ABSOLUTE
    llm_wl_clr                               0x07f09161   Thumb Code     0  da14585_symbols.txt ABSOLUTE
    llm_init                                 0x07f09189   Thumb Code     0  da14585_symbols.txt ABSOLUTE
    llm_common_cmd_complete_send             0x07f0938d   Thumb Code     0  da14585_symbols.txt ABSOLUTE
    llm_ble_ready                            0x07f093a5   Thumb Code     0  da14585_symbols.txt ABSOLUTE
    llm_wl_from_rl_restore                   0x07f093ab   Thumb Code     0  da14585_symbols.txt ABSOLUTE
    llm_con_req_ind                          0x07f0942d   Thumb Code     0  da14585_symbols.txt ABSOLUTE
    llm_resolv_addr                          0x07f096a3   Thumb Code     0  da14585_symbols.txt ABSOLUTE
    llm_util_rl_wl_update                    0x07f096e5   Thumb Code     0  da14585_symbols.txt ABSOLUTE
    llm_alter_conn                           0x07f0971f   Thumb Code     0  da14585_symbols.txt ABSOLUTE
    llm_adv_report_set                       0x07f097c3   Thumb Code     0  da14585_symbols.txt ABSOLUTE
    llm_direct_adv_report_set                0x07f0983d   Thumb Code     0  da14585_symbols.txt ABSOLUTE
    llm_encryption_start                     0x07f0987f   Thumb Code     0  da14585_symbols.txt ABSOLUTE
    llm_resolv_addr_inplace                  0x07f09903   Thumb Code     0  da14585_symbols.txt ABSOLUTE
    llm_le_adv_report_ind_func               0x07f099d5   Thumb Code     0  da14585_symbols.txt ABSOLUTE
    llm_con_req_tx_cfm                       0x07f09ee3   Thumb Code     0  da14585_symbols.txt ABSOLUTE
    llm_common_cmd_status_send               0x07f0a003   Thumb Code     0  da14585_symbols.txt ABSOLUTE
    llm_test_mode_start_tx                   0x07f0a01b   Thumb Code     0  da14585_symbols.txt ABSOLUTE
    llm_test_mode_start_rx                   0x07f0a10f   Thumb Code     0  da14585_symbols.txt ABSOLUTE
    llm_set_adv_param                        0x07f0a151   Thumb Code     0  da14585_symbols.txt ABSOLUTE
    llm_gen_rand_addr                        0x07f0a2e5   Thumb Code     0  da14585_symbols.txt ABSOLUTE
    llm_wl_from_rl                           0x07f0a3a1   Thumb Code     0  da14585_symbols.txt ABSOLUTE
    llm_set_adv_en                           0x07f0a4d3   Thumb Code     0  da14585_symbols.txt ABSOLUTE
    llm_set_adv_data                         0x07f0a7cf   Thumb Code     0  da14585_symbols.txt ABSOLUTE
    llm_set_scan_rsp_data                    0x07f0a883   Thumb Code     0  da14585_symbols.txt ABSOLUTE
    llm_set_scan_param                       0x07f0a94d   Thumb Code     0  da14585_symbols.txt ABSOLUTE
    llm_set_scan_en                          0x07f0a9d3   Thumb Code     0  da14585_symbols.txt ABSOLUTE
    llm_wl_dev_add                           0x07f0ab47   Thumb Code     0  da14585_symbols.txt ABSOLUTE
    llm_wl_dev_rem                           0x07f0ac21   Thumb Code     0  da14585_symbols.txt ABSOLUTE
    llm_create_con                           0x07f0ac75   Thumb Code     0  da14585_symbols.txt ABSOLUTE
    llm_encryption_done_func                 0x07f0af73   Thumb Code     0  da14585_symbols.txt ABSOLUTE
    llm_get_chnl_assess_nb_pkt               0x07f0b215   Thumb Code     0  da14585_symbols.txt ABSOLUTE
    llm_get_chnl_assess_nb_bad_pkt           0x07f0b21b   Thumb Code     0  da14585_symbols.txt ABSOLUTE
    llm_get_min_rssi                         0x07f0b221   Thumb Code     0  da14585_symbols.txt ABSOLUTE
    llm_le_scan_report_ind                   0x07f0b22b   Thumb Code     0  da14585_symbols.txt ABSOLUTE
    llm_set_tx_oct_time                      0x07f0b2c3   Thumb Code     0  da14585_symbols.txt ABSOLUTE
    llm_p256_start_func                      0x07f0b2eb   Thumb Code     0  da14585_symbols.txt ABSOLUTE
    llm_wlpub_addr_set                       0x07f0b369   Thumb Code     0  da14585_symbols.txt ABSOLUTE
    llm_wlpriv_addr_set                      0x07f0b395   Thumb Code     0  da14585_symbols.txt ABSOLUTE
    hci_rd_local_supp_feats_cmd_handler_func 0x07f0bb57   Thumb Code     0  da14585_symbols.txt ABSOLUTE
    llm_util_bd_addr_in_wl                   0x07f0c405   Thumb Code     0  da14585_symbols.txt ABSOLUTE
    llm_util_check_address_validity          0x07f0c47d   Thumb Code     0  da14585_symbols.txt ABSOLUTE
    llm_util_check_map_validity              0x07f0c48d   Thumb Code     0  da14585_symbols.txt ABSOLUTE
    llm_util_apply_bd_addr                   0x07f0c4d3   Thumb Code     0  da14585_symbols.txt ABSOLUTE
    llm_util_set_public_addr                 0x07f0c4eb   Thumb Code     0  da14585_symbols.txt ABSOLUTE
    llm_util_check_evt_mask                  0x07f0c4f9   Thumb Code     0  da14585_symbols.txt ABSOLUTE
    llm_util_get_channel_map                 0x07f0c51b   Thumb Code     0  da14585_symbols.txt ABSOLUTE
    llm_util_get_supp_features               0x07f0c529   Thumb Code     0  da14585_symbols.txt ABSOLUTE
    llm_util_adv_data_update                 0x07f0c535   Thumb Code     0  da14585_symbols.txt ABSOLUTE
    llm_util_bl_check                        0x07f0c559   Thumb Code     0  da14585_symbols.txt ABSOLUTE
    llm_util_bl_add                          0x07f0c59b   Thumb Code     0  da14585_symbols.txt ABSOLUTE
    llm_util_bl_rem                          0x07f0c5f1   Thumb Code     0  da14585_symbols.txt ABSOLUTE
    llm_util_rl_check                        0x07f0c641   Thumb Code     0  da14585_symbols.txt ABSOLUTE
    llm_util_rl_add                          0x07f0c677   Thumb Code     0  da14585_symbols.txt ABSOLUTE
    llm_util_rl_rem                          0x07f0c6f5   Thumb Code     0  da14585_symbols.txt ABSOLUTE
    llm_util_rl_peer_find                    0x07f0c71b   Thumb Code     0  da14585_symbols.txt ABSOLUTE
    llm_util_rl_peer_resolv                  0x07f0c747   Thumb Code     0  da14585_symbols.txt ABSOLUTE
    llm_util_rl_rpa_find                     0x07f0c799   Thumb Code     0  da14585_symbols.txt ABSOLUTE
    ea_time_get_slot_rounded                 0x07f0c8b9   Thumb Code     0  da14585_symbols.txt ABSOLUTE
    ea_init                                  0x07f0c985   Thumb Code     0  da14585_symbols.txt ABSOLUTE
    ea_elt_create                            0x07f0c9d9   Thumb Code     0  da14585_symbols.txt ABSOLUTE
    ea_time_get_halfslot_rounded             0x07f0c9f3   Thumb Code     0  da14585_symbols.txt ABSOLUTE
    ea_elt_insert                            0x07f0ca23   Thumb Code     0  da14585_symbols.txt ABSOLUTE
    ea_elt_remove                            0x07f0cc67   Thumb Code     0  da14585_symbols.txt ABSOLUTE
    ea_elt_delete                            0x07f0ccef   Thumb Code     0  da14585_symbols.txt ABSOLUTE
    ea_interval_create                       0x07f0cd09   Thumb Code     0  da14585_symbols.txt ABSOLUTE
    ea_interval_insert                       0x07f0cd1f   Thumb Code     0  da14585_symbols.txt ABSOLUTE
    ea_interval_delete                       0x07f0cd2d   Thumb Code     0  da14585_symbols.txt ABSOLUTE
    ea_finetimer_isr                         0x07f0cd47   Thumb Code     0  da14585_symbols.txt ABSOLUTE
    ea_sw_isr                                0x07f0ce19   Thumb Code     0  da14585_symbols.txt ABSOLUTE
    ea_offset_req                            0x07f0ce37   Thumb Code     0  da14585_symbols.txt ABSOLUTE
    ea_sleep_check                           0x07f0cff5   Thumb Code     0  da14585_symbols.txt ABSOLUTE
    ea_interval_duration_req                 0x07f0d04b   Thumb Code     0  da14585_symbols.txt ABSOLUTE
    flash_identify                           0x07f0d16b   Thumb Code     0  da14585_symbols.txt ABSOLUTE
    flash_init                               0x07f0d1b9   Thumb Code     0  da14585_symbols.txt ABSOLUTE
    flash_erase                              0x07f0d1f5   Thumb Code     0  da14585_symbols.txt ABSOLUTE
    flash_write                              0x07f0d259   Thumb Code     0  da14585_symbols.txt ABSOLUTE
    flash_read                               0x07f0d2bd   Thumb Code     0  da14585_symbols.txt ABSOLUTE
    uart_init_func                           0x07f0d34b   Thumb Code     0  da14585_symbols.txt ABSOLUTE
    uart_flow_on_func                        0x07f0d3a9   Thumb Code     0  da14585_symbols.txt ABSOLUTE
    uart_flow_off_func                       0x07f0d3b1   Thumb Code     0  da14585_symbols.txt ABSOLUTE
    uart_finish_transfers_func               0x07f0d401   Thumb Code     0  da14585_symbols.txt ABSOLUTE
    uart_read_func                           0x07f0d419   Thumb Code     0  da14585_symbols.txt ABSOLUTE
    uart_write_func                          0x07f0d42f   Thumb Code     0  da14585_symbols.txt ABSOLUTE
    UART_Handler_func                        0x07f0d451   Thumb Code     0  da14585_symbols.txt ABSOLUTE
    uart_set_flow_off_retries_limit          0x07f0d4a3   Thumb Code     0  da14585_symbols.txt ABSOLUTE
    modulationGainCalibration_func           0x07f0d595   Thumb Code     0  da14585_symbols.txt ABSOLUTE
    DCoffsetCalibration_func                 0x07f0d68b   Thumb Code     0  da14585_symbols.txt ABSOLUTE
    PllLF_IFF_MIX_CapCalibration_func        0x07f0d6d7   Thumb Code     0  da14585_symbols.txt ABSOLUTE
    gtl_init_func                            0x07f0d7e1   Thumb Code     0  da14585_symbols.txt ABSOLUTE
    gtl_enter_sleep                          0x07f0d809   Thumb Code     0  da14585_symbols.txt ABSOLUTE
    gtl_exit_sleep                           0x07f0d833   Thumb Code     0  da14585_symbols.txt ABSOLUTE
    gtl_send_msg                             0x07f0d83b   Thumb Code     0  da14585_symbols.txt ABSOLUTE
    gtl_eif_read_start_func                  0x07f0d8c1   Thumb Code     0  da14585_symbols.txt ABSOLUTE
    gtl_eif_read_hdr_func                    0x07f0d8e1   Thumb Code     0  da14585_symbols.txt ABSOLUTE
    gtl_eif_read_payl_func                   0x07f0d901   Thumb Code     0  da14585_symbols.txt ABSOLUTE
    gtl_eif_tx_done_func                     0x07f0d93f   Thumb Code     0  da14585_symbols.txt ABSOLUTE
    gtl_eif_rx_done_func                     0x07f0d94f   Thumb Code     0  da14585_symbols.txt ABSOLUTE
    gtl_eif_init_func                        0x07f0da81   Thumb Code     0  da14585_symbols.txt ABSOLUTE
    gtl_eif_write                            0x07f0da9b   Thumb Code     0  da14585_symbols.txt ABSOLUTE
    gtl_eif_start                            0x07f0dabd   Thumb Code     0  da14585_symbols.txt ABSOLUTE
    gtl_eif_stop                             0x07f0dac7   Thumb Code     0  da14585_symbols.txt ABSOLUTE
    gtl_env_curr_msg_type_set                0x07f0dae3   Thumb Code     0  da14585_symbols.txt ABSOLUTE
    hci_tl_send                              0x07f0ddc5   Thumb Code     0  da14585_symbols.txt ABSOLUTE
    hci_tl_init                              0x07f0de0d   Thumb Code     0  da14585_symbols.txt ABSOLUTE
    hci_cmd_get_max_param_size               0x07f0de31   Thumb Code     0  da14585_symbols.txt ABSOLUTE
    hci_cmd_received                         0x07f0de7b   Thumb Code     0  da14585_symbols.txt ABSOLUTE
    hci_acl_tx_data_alloc                    0x07f0dfb7   Thumb Code     0  da14585_symbols.txt ABSOLUTE
    hci_acl_tx_data_received                 0x07f0e03d   Thumb Code     0  da14585_symbols.txt ABSOLUTE
    hci_acl_rx_data_alloc                    0x07f0e105   Thumb Code     0  da14585_symbols.txt ABSOLUTE
    hci_acl_rx_data_received                 0x07f0e111   Thumb Code     0  da14585_symbols.txt ABSOLUTE
    hci_evt_received                         0x07f0e147   Thumb Code     0  da14585_symbols.txt ABSOLUTE
    hci_tl_env_tx_queue_cnt_get              0x07f0e2f3   Thumb Code     0  da14585_symbols.txt ABSOLUTE
    hci_util_pack                            0x07f0e411   Thumb Code     0  da14585_symbols.txt ABSOLUTE
    hci_util_unpack                          0x07f0e511   Thumb Code     0  da14585_symbols.txt ABSOLUTE
    hci_look_for_cmd_desc                    0x07f0e9f5   Thumb Code     0  da14585_symbols.txt ABSOLUTE
    hci_look_for_evt_desc                    0x07f0ea41   Thumb Code     0  da14585_symbols.txt ABSOLUTE
    hci_look_for_le_evt_desc                 0x07f0ea63   Thumb Code     0  da14585_symbols.txt ABSOLUTE
    hci_evt_mask_set                         0x07f0ea95   Thumb Code     0  da14585_symbols.txt ABSOLUTE
    hci_init                                 0x07f0eadd   Thumb Code     0  da14585_symbols.txt ABSOLUTE
    hci_reset                                0x07f0eaf9   Thumb Code     0  da14585_symbols.txt ABSOLUTE
    hci_send_2_host                          0x07f0eb11   Thumb Code     0  da14585_symbols.txt ABSOLUTE
    hci_send_2_controller                    0x07f0ebfb   Thumb Code     0  da14585_symbols.txt ABSOLUTE
    h4tl_read_start_func                     0x07f0ecd5   Thumb Code     0  da14585_symbols.txt ABSOLUTE
    h4tl_read_hdr_func                       0x07f0ecf3   Thumb Code     0  da14585_symbols.txt ABSOLUTE
    h4tl_read_payl_func                      0x07f0ed0f   Thumb Code     0  da14585_symbols.txt ABSOLUTE
    h4tl_read_next_out_of_sync_func          0x07f0ed29   Thumb Code     0  da14585_symbols.txt ABSOLUTE
    h4tl_out_of_sync_func                    0x07f0ed3d   Thumb Code     0  da14585_symbols.txt ABSOLUTE
    h4tl_out_of_sync_check                   0x07f0ed63   Thumb Code     0  da14585_symbols.txt ABSOLUTE
    h4tl_tx_done_func                        0x07f0edbf   Thumb Code     0  da14585_symbols.txt ABSOLUTE
    h4tl_rx_done_func                        0x07f0edd7   Thumb Code     0  da14585_symbols.txt ABSOLUTE
    h4tl_init_func                           0x07f0eefb   Thumb Code     0  da14585_symbols.txt ABSOLUTE
    h4tl_write                               0x07f0ef17   Thumb Code     0  da14585_symbols.txt ABSOLUTE
    h4tl_start                               0x07f0ef3f   Thumb Code     0  da14585_symbols.txt ABSOLUTE
    h4tl_stop                                0x07f0ef47   Thumb Code     0  da14585_symbols.txt ABSOLUTE
    h4tl_env_rx_type_set                     0x07f0ef5b   Thumb Code     0  da14585_symbols.txt ABSOLUTE
    h4tl_env_hdr_set                         0x07f0ef67   Thumb Code     0  da14585_symbols.txt ABSOLUTE
    attc_send_att_req                        0x07f0efa5   Thumb Code     0  da14585_symbols.txt ABSOLUTE
    attc_allocate_att_req                    0x07f0efe1   Thumb Code     0  da14585_symbols.txt ABSOLUTE
    attc_send_hdl_cfm                        0x07f0f003   Thumb Code     0  da14585_symbols.txt ABSOLUTE
    attc_send_execute                        0x07f0f019   Thumb Code     0  da14585_symbols.txt ABSOLUTE
    attc_send_read_ind                       0x07f0f033   Thumb Code     0  da14585_symbols.txt ABSOLUTE
    attc_l2cc_pdu_recv_handler_func          0x07f0f973   Thumb Code     0  da14585_symbols.txt ABSOLUTE
    attm_convert_to128                       0x07f0f9cd   Thumb Code     0  da14585_symbols.txt ABSOLUTE
    attm_uuid_comp                           0x07f0f9fd   Thumb Code     0  da14585_symbols.txt ABSOLUTE
    attm_uuid16_comp                         0x07f0fa55   Thumb Code     0  da14585_symbols.txt ABSOLUTE
    attm_is_bt16_uuid                        0x07f0fa61   Thumb Code     0  da14585_symbols.txt ABSOLUTE
    attm_is_bt32_uuid                        0x07f0fa87   Thumb Code     0  da14585_symbols.txt ABSOLUTE
    attmdb_add_service                       0x07f0fe87   Thumb Code     0  da14585_symbols.txt ABSOLUTE
    attmdb_destroy                           0x07f0ff0f   Thumb Code     0  da14585_symbols.txt ABSOLUTE
    attmdb_get_service                       0x07f0ff29   Thumb Code     0  da14585_symbols.txt ABSOLUTE
    attmdb_get_attribute                     0x07f0ff67   Thumb Code     0  da14585_symbols.txt ABSOLUTE
    attmdb_get_next_att                      0x07f0ff9b   Thumb Code     0  da14585_symbols.txt ABSOLUTE
    attmdb_uuid16_comp                       0x07f0ffff   Thumb Code     0  da14585_symbols.txt ABSOLUTE
    attmdb_att_set_value                     0x07f1003b   Thumb Code     0  da14585_symbols.txt ABSOLUTE
    attmdb_get_max_len                       0x07f100e7   Thumb Code     0  da14585_symbols.txt ABSOLUTE
    attmdb_get_uuid                          0x07f1014d   Thumb Code     0  da14585_symbols.txt ABSOLUTE
    attmdb_get_value                         0x07f10223   Thumb Code     0  da14585_symbols.txt ABSOLUTE
    attmdb_att_set_permission                0x07f10373   Thumb Code     0  da14585_symbols.txt ABSOLUTE
    attmdb_att_update_perm                   0x07f103e7   Thumb Code     0  da14585_symbols.txt ABSOLUTE
    attmdb_svc_get_permission                0x07f10455   Thumb Code     0  da14585_symbols.txt ABSOLUTE
    attmdb_att_get_permission                0x07f10473   Thumb Code     0  da14585_symbols.txt ABSOLUTE
    attmdb_svc_set_permission                0x07f10575   Thumb Code     0  da14585_symbols.txt ABSOLUTE
    attmdb_init                              0x07f10599   Thumb Code     0  da14585_symbols.txt ABSOLUTE
    attmdb_get_nb_svc                        0x07f105af   Thumb Code     0  da14585_symbols.txt ABSOLUTE
    attmdb_get_svc_info                      0x07f105c3   Thumb Code     0  da14585_symbols.txt ABSOLUTE
    attm_svc_create_db                       0x07f105f7   Thumb Code     0  da14585_symbols.txt ABSOLUTE
    attmdb_reserve_handle_range              0x07f10705   Thumb Code     0  da14585_symbols.txt ABSOLUTE
    atts_clear_read_cache                    0x07f10895   Thumb Code     0  da14585_symbols.txt ABSOLUTE
    atts_send_error                          0x07f109fd   Thumb Code     0  da14585_symbols.txt ABSOLUTE
    atts_write_signed_cfm                    0x07f10a19   Thumb Code     0  da14585_symbols.txt ABSOLUTE
    atts_send_event                          0x07f10a59   Thumb Code     0  da14585_symbols.txt ABSOLUTE
    atts_clear_prep_data                     0x07f10ae1   Thumb Code     0  da14585_symbols.txt ABSOLUTE
    atts_clear_rsp_data                      0x07f10b05   Thumb Code     0  da14585_symbols.txt ABSOLUTE
    atts_write_rsp_send                      0x07f10b55   Thumb Code     0  da14585_symbols.txt ABSOLUTE
    atts_mtu_exc_req                         0x07f10b75   Thumb Code     0  da14585_symbols.txt ABSOLUTE
    atts_l2cc_pdu_recv_handler_func          0x07f1177f   Thumb Code     0  da14585_symbols.txt ABSOLUTE
    atts_allocate_pdu                        0x07f11957   Thumb Code     0  da14585_symbols.txt ABSOLUTE
    atts_send_pdu                            0x07f11979   Thumb Code     0  da14585_symbols.txt ABSOLUTE
    gattc_cleanup                            0x07f119e7   Thumb Code     0  da14585_symbols.txt ABSOLUTE
    gattc_init                               0x07f11a6b   Thumb Code     0  da14585_symbols.txt ABSOLUTE
    gattc_update_state                       0x07f11a9d   Thumb Code     0  da14585_symbols.txt ABSOLUTE
    gattc_create                             0x07f11ac1   Thumb Code     0  da14585_symbols.txt ABSOLUTE
    gattc_con_enable                         0x07f11b35   Thumb Code     0  da14585_symbols.txt ABSOLUTE
    gattc_get_mtu                            0x07f11b3b   Thumb Code     0  da14585_symbols.txt ABSOLUTE
    gattc_set_mtu                            0x07f11b47   Thumb Code     0  da14585_symbols.txt ABSOLUTE
    gattc_get_requester                      0x07f11b8d   Thumb Code     0  da14585_symbols.txt ABSOLUTE
    gattc_send_complete_evt                  0x07f11ba9   Thumb Code     0  da14585_symbols.txt ABSOLUTE
    gattc_send_error_evt                     0x07f11c05   Thumb Code     0  da14585_symbols.txt ABSOLUTE
    gattc_get_operation                      0x07f11c2b   Thumb Code     0  da14585_symbols.txt ABSOLUTE
    gattc_get_op_seq_num                     0x07f11c41   Thumb Code     0  da14585_symbols.txt ABSOLUTE
    gattc_get_operation_ptr                  0x07f11c57   Thumb Code     0  da14585_symbols.txt ABSOLUTE
    gattc_set_operation_ptr                  0x07f11c63   Thumb Code     0  da14585_symbols.txt ABSOLUTE
    gattc_reschedule_operation               0x07f11c6f   Thumb Code     0  da14585_symbols.txt ABSOLUTE
    gattc_reallocate_svc                     0x07f11cb5   Thumb Code     0  da14585_symbols.txt ABSOLUTE
    gattm_svc_get_start_hdl                  0x07f12c6d   Thumb Code     0  da14585_symbols.txt ABSOLUTE
    gattm_init                               0x07f12c73   Thumb Code     0  da14585_symbols.txt ABSOLUTE
    gattm_init_attr                          0x07f12c91   Thumb Code     0  da14585_symbols.txt ABSOLUTE
    gattm_create                             0x07f12ce5   Thumb Code     0  da14585_symbols.txt ABSOLUTE
    gattm_cleanup                            0x07f12ced   Thumb Code     0  da14585_symbols.txt ABSOLUTE
    gattm_get_max_mtu                        0x07f12cf5   Thumb Code     0  da14585_symbols.txt ABSOLUTE
    gattm_set_max_mtu                        0x07f12cfb   Thumb Code     0  da14585_symbols.txt ABSOLUTE
    gattm_get_max_mps                        0x07f12d17   Thumb Code     0  da14585_symbols.txt ABSOLUTE
    gattm_set_max_mps                        0x07f12d1d   Thumb Code     0  da14585_symbols.txt ABSOLUTE
    l2cc_cleanup                             0x07f12f85   Thumb Code     0  da14585_symbols.txt ABSOLUTE
    l2cc_init                                0x07f12fc9   Thumb Code     0  da14585_symbols.txt ABSOLUTE
    l2cc_create                              0x07f12ffb   Thumb Code     0  da14585_symbols.txt ABSOLUTE
    l2cc_update_state                        0x07f13033   Thumb Code     0  da14585_symbols.txt ABSOLUTE
    l2cm_init                                0x07f13405   Thumb Code     0  da14585_symbols.txt ABSOLUTE
    l2cm_create                              0x07f13419   Thumb Code     0  da14585_symbols.txt ABSOLUTE
    l2cm_cleanup                             0x07f13421   Thumb Code     0  da14585_symbols.txt ABSOLUTE
    l2cm_set_link_layer_buff_size            0x07f13429   Thumb Code     0  da14585_symbols.txt ABSOLUTE
    smpc_send_use_enc_block_cmd              0x07f13439   Thumb Code     0  da14585_symbols.txt ABSOLUTE
    smpc_send_start_enc_cmd                  0x07f13471   Thumb Code     0  da14585_symbols.txt ABSOLUTE
    smpc_send_ltk_req_rsp                    0x07f134eb   Thumb Code     0  da14585_symbols.txt ABSOLUTE
    smpc_send_pairing_req_ind                0x07f13547   Thumb Code     0  da14585_symbols.txt ABSOLUTE
    smpc_send_pairing_ind                    0x07f1362b   Thumb Code     0  da14585_symbols.txt ABSOLUTE
    smpc_check_pairing_feat                  0x07f13747   Thumb Code     0  da14585_symbols.txt ABSOLUTE
    smpc_launch_rep_att_timer                0x07f13761   Thumb Code     0  da14585_symbols.txt ABSOLUTE
    smpc_check_repeated_attempts             0x07f1379d   Thumb Code     0  da14585_symbols.txt ABSOLUTE
    smpc_check_max_key_size                  0x07f137ff   Thumb Code     0  da14585_symbols.txt ABSOLUTE
    smpc_check_key_distrib                   0x07f13845   Thumb Code     0  da14585_symbols.txt ABSOLUTE
    smpc_xor                                 0x07f13885   Thumb Code     0  da14585_symbols.txt ABSOLUTE
    smpc_generate_l                          0x07f1389b   Thumb Code     0  da14585_symbols.txt ABSOLUTE
    smpc_generate_ci                         0x07f138e9   Thumb Code     0  da14585_symbols.txt ABSOLUTE
    smpc_generate_rand                       0x07f1394d   Thumb Code     0  da14585_symbols.txt ABSOLUTE
    smpc_generate_e1                         0x07f13973   Thumb Code     0  da14585_symbols.txt ABSOLUTE
    smpc_generate_cfm                        0x07f13a2d   Thumb Code     0  da14585_symbols.txt ABSOLUTE
    smpc_generate_stk                        0x07f13aa7   Thumb Code     0  da14585_symbols.txt ABSOLUTE
    smpc_calc_subkeys                        0x07f13afd   Thumb Code     0  da14585_symbols.txt ABSOLUTE
    smpc_clear_timeout_timer                 0x07f13b73   Thumb Code     0  da14585_symbols.txt ABSOLUTE
    smpc_pairing_end                         0x07f13b9d   Thumb Code     0  da14585_symbols.txt ABSOLUTE
    smpc_tkdp_rcp_continue                   0x07f13bfb   Thumb Code     0  da14585_symbols.txt ABSOLUTE
    smpc_tkdp_rcp_start                      0x07f13c75   Thumb Code     0  da14585_symbols.txt ABSOLUTE
    smpc_pdu_send                            0x07f13cc9   Thumb Code     0  da14585_symbols.txt ABSOLUTE
    smpc_tkdp_send_start                     0x07f13d67   Thumb Code     0  da14585_symbols.txt ABSOLUTE
    smpc_tkdp_send_continue                  0x07f13df3   Thumb Code     0  da14585_symbols.txt ABSOLUTE
    smpc_get_key_sec_prop                    0x07f13e6f   Thumb Code     0  da14585_symbols.txt ABSOLUTE
    smpc_is_sec_mode_reached                 0x07f13f3b   Thumb Code     0  da14585_symbols.txt ABSOLUTE
    smpc_handle_enc_change_evt               0x07f13f65   Thumb Code     0  da14585_symbols.txt ABSOLUTE
    smpc_pdu_recv_func                       0x07f1401f   Thumb Code     0  da14585_symbols.txt ABSOLUTE
    smpc_generate_subkey                     0x07f14089   Thumb Code     0  da14585_symbols.txt ABSOLUTE
    leftshift_onebit                         0x07f140bd   Thumb Code     0  da14585_symbols.txt ABSOLUTE
    padding                                  0x07f140d5   Thumb Code     0  da14585_symbols.txt ABSOLUTE
    smpc_generate_subkey_P2                  0x07f140f9   Thumb Code     0  da14585_symbols.txt ABSOLUTE
    AES_CMAC_block                           0x07f1419d   Thumb Code     0  da14585_symbols.txt ABSOLUTE
    smpc_generate_f4                         0x07f1425d   Thumb Code     0  da14585_symbols.txt ABSOLUTE
    smpc_generate_g2                         0x07f14371   Thumb Code     0  da14585_symbols.txt ABSOLUTE
    smpc_generate_f5                         0x07f1441b   Thumb Code     0  da14585_symbols.txt ABSOLUTE
    smpc_generate_f5_T                       0x07f1442d   Thumb Code     0  da14585_symbols.txt ABSOLUTE
    smpc_generate_f5_P2                      0x07f1449d   Thumb Code     0  da14585_symbols.txt ABSOLUTE
    smpc_generate_f6                         0x07f1466f   Thumb Code     0  da14585_symbols.txt ABSOLUTE
    smpm_send_encrypt_req                    0x07f14809   Thumb Code     0  da14585_symbols.txt ABSOLUTE
    smpm_send_gen_rand_nb_req                0x07f14837   Thumb Code     0  da14585_symbols.txt ABSOLUTE
    smpm_check_addr_type                     0x07f1484d   Thumb Code     0  da14585_symbols.txt ABSOLUTE
    gapc_update_state                        0x07f148b9   Thumb Code     0  da14585_symbols.txt ABSOLUTE
    gapc_get_requester                       0x07f148e9   Thumb Code     0  da14585_symbols.txt ABSOLUTE
    gapc_send_complete_evt                   0x07f14905   Thumb Code     0  da14585_symbols.txt ABSOLUTE
    gapc_init                                0x07f14a2f   Thumb Code     0  da14585_symbols.txt ABSOLUTE
    gapc_con_create                          0x07f14a61   Thumb Code     0  da14585_symbols.txt ABSOLUTE
    gapc_con_create_enh                      0x07f14b1b   Thumb Code     0  da14585_symbols.txt ABSOLUTE
    gapc_con_cleanup                         0x07f14c15   Thumb Code     0  da14585_symbols.txt ABSOLUTE
    gapc_send_disconect_ind                  0x07f14c25   Thumb Code     0  da14585_symbols.txt ABSOLUTE
    gapc_get_conidx                          0x07f14c47   Thumb Code     0  da14585_symbols.txt ABSOLUTE
    gapc_get_conhdl                          0x07f14c81   Thumb Code     0  da14585_symbols.txt ABSOLUTE
    gapc_get_role                            0x07f14c99   Thumb Code     0  da14585_symbols.txt ABSOLUTE
    gapc_get_bdaddr                          0x07f14cb5   Thumb Code     0  da14585_symbols.txt ABSOLUTE
    gapc_get_csrk                            0x07f14cd5   Thumb Code     0  da14585_symbols.txt ABSOLUTE
    gapc_get_sign_counter                    0x07f14cf3   Thumb Code     0  da14585_symbols.txt ABSOLUTE
    gapc_send_error_evt                      0x07f14d11   Thumb Code     0  da14585_symbols.txt ABSOLUTE
    gapc_get_operation                       0x07f14d33   Thumb Code     0  da14585_symbols.txt ABSOLUTE
    gapc_get_operation_ptr                   0x07f14d49   Thumb Code     0  da14585_symbols.txt ABSOLUTE
    gapc_set_operation_ptr                   0x07f14d55   Thumb Code     0  da14585_symbols.txt ABSOLUTE
    gapc_reschedule_operation                0x07f14d61   Thumb Code     0  da14585_symbols.txt ABSOLUTE
    gapc_get_enc_keysize                     0x07f14d91   Thumb Code     0  da14585_symbols.txt ABSOLUTE
    gapc_is_sec_set                          0x07f14da9   Thumb Code     0  da14585_symbols.txt ABSOLUTE
    gapc_set_enc_keysize                     0x07f14e35   Thumb Code     0  da14585_symbols.txt ABSOLUTE
    gapc_link_encrypted                      0x07f14e49   Thumb Code     0  da14585_symbols.txt ABSOLUTE
    gapc_auth_set                            0x07f14e63   Thumb Code     0  da14585_symbols.txt ABSOLUTE
    gapc_svc_chg_ccc_get                     0x07f14e83   Thumb Code     0  da14585_symbols.txt ABSOLUTE
    gapc_svc_chg_ccc_set                     0x07f14e93   Thumb Code     0  da14585_symbols.txt ABSOLUTE
    gapc_check_lecb_sec_perm                 0x07f14ea9   Thumb Code     0  da14585_symbols.txt ABSOLUTE
    gapc_search_lecb_channel                 0x07f14f11   Thumb Code     0  da14585_symbols.txt ABSOLUTE
    gapc_lecnx_check_tx                      0x07f14f4b   Thumb Code     0  da14585_symbols.txt ABSOLUTE
    gapc_lecnx_check_rx                      0x07f14f93   Thumb Code     0  da14585_symbols.txt ABSOLUTE
    gapc_lecnx_get_field                     0x07f14fd7   Thumb Code     0  da14585_symbols.txt ABSOLUTE
    gapc_process_op                          0x07f1504d   Thumb Code     0  da14585_symbols.txt ABSOLUTE
    gapc_param_update_sanity                 0x07f151c7   Thumb Code     0  da14585_symbols.txt ABSOLUTE
    gapc_param_cb_con_sanity                 0x07f151ef   Thumb Code     0  da14585_symbols.txt ABSOLUTE
    l2cc_pdu_recv_ind_handler_func           0x07f156ab   Thumb Code     0  da14585_symbols.txt ABSOLUTE
    gapc_lecb_connect_cfm_handler_func       0x07f16653   Thumb Code     0  da14585_symbols.txt ABSOLUTE
    gapm_init                                0x07f16a27   Thumb Code     0  da14585_symbols.txt ABSOLUTE
    gapm_init_attr                           0x07f16a83   Thumb Code     0  da14585_symbols.txt ABSOLUTE
    gapm_get_operation                       0x07f16aaf   Thumb Code     0  da14585_symbols.txt ABSOLUTE
    gapm_get_requester                       0x07f16ac1   Thumb Code     0  da14585_symbols.txt ABSOLUTE
    gapm_reschedule_operation                0x07f16ad9   Thumb Code     0  da14585_symbols.txt ABSOLUTE
    gapm_send_complete_evt                   0x07f16afb   Thumb Code     0  da14585_symbols.txt ABSOLUTE
    gapm_send_error_evt                      0x07f16b31   Thumb Code     0  da14585_symbols.txt ABSOLUTE
    gapm_con_create                          0x07f16b51   Thumb Code     0  da14585_symbols.txt ABSOLUTE
    gapm_con_enable                          0x07f16bd5   Thumb Code     0  da14585_symbols.txt ABSOLUTE
    gapm_con_cleanup                         0x07f16be1   Thumb Code     0  da14585_symbols.txt ABSOLUTE
    gapm_get_id_from_task                    0x07f16c11   Thumb Code     0  da14585_symbols.txt ABSOLUTE
    gapm_get_task_from_id                    0x07f16c51   Thumb Code     0  da14585_symbols.txt ABSOLUTE
    gapm_is_disc_connection                  0x07f16c8d   Thumb Code     0  da14585_symbols.txt ABSOLUTE
    gapm_adv_sanity                          0x07f17ab9   Thumb Code     0  da14585_symbols.txt ABSOLUTE
    gapm_adv_op_sanity                       0x07f17bad   Thumb Code     0  da14585_symbols.txt ABSOLUTE
    gapm_set_adv_mode                        0x07f17d2b   Thumb Code     0  da14585_symbols.txt ABSOLUTE
    gapm_set_adv_data                        0x07f17d45   Thumb Code     0  da14585_symbols.txt ABSOLUTE
    gapm_execute_adv_op                      0x07f17dd1   Thumb Code     0  da14585_symbols.txt ABSOLUTE
    gapm_scan_op_sanity                      0x07f17ef7   Thumb Code     0  da14585_symbols.txt ABSOLUTE
    gapm_set_scan_mode                       0x07f17fff   Thumb Code     0  da14585_symbols.txt ABSOLUTE
    gapm_execute_scan_op                     0x07f1801d   Thumb Code     0  da14585_symbols.txt ABSOLUTE
    gapm_connect_op_sanity                   0x07f180d7   Thumb Code     0  da14585_symbols.txt ABSOLUTE
    gapm_basic_hci_cmd_send                  0x07f18257   Thumb Code     0  da14585_symbols.txt ABSOLUTE
    gapm_execute_connect_op                  0x07f1826b   Thumb Code     0  da14585_symbols.txt ABSOLUTE
    gapm_get_role                            0x07f1840d   Thumb Code     0  da14585_symbols.txt ABSOLUTE
    gapm_get_ad_type_flag                    0x07f18415   Thumb Code     0  da14585_symbols.txt ABSOLUTE
    gapm_add_to_filter                       0x07f1843b   Thumb Code     0  da14585_symbols.txt ABSOLUTE
    gapm_is_filtered                         0x07f184bb   Thumb Code     0  da14585_symbols.txt ABSOLUTE
    gapm_update_air_op_state                 0x07f1851f   Thumb Code     0  da14585_symbols.txt ABSOLUTE
    gapm_get_irk                             0x07f185e7   Thumb Code     0  da14585_symbols.txt ABSOLUTE
    gapm_get_bdaddr                          0x07f185ed   Thumb Code     0  da14585_symbols.txt ABSOLUTE
    l2cc_pdu_pack_func                       0x07f18609   Thumb Code     0  da14585_symbols.txt ABSOLUTE
    l2cc_pdu_unpack_func                     0x07f18b01   Thumb Code     0  da14585_symbols.txt ABSOLUTE
    l2cc_detect_dest                         0x07f18e03   Thumb Code     0  da14585_symbols.txt ABSOLUTE
    l2c_process_sdu_func                     0x07f18e5f   Thumb Code     0  da14585_symbols.txt ABSOLUTE
    l2c_send_lecb_message_func               0x07f18f77   Thumb Code     0  da14585_symbols.txt ABSOLUTE
    smpc_check_param_func                    0x07f19071   Thumb Code     0  da14585_symbols.txt ABSOLUTE
    smpc_construct_id_addr_info_pdu          0x07f19157   Thumb Code     0  da14585_symbols.txt ABSOLUTE
    smpc_recv_pair_rand_pdu                  0x07f193e3   Thumb Code     0  da14585_symbols.txt ABSOLUTE
    smpc_recv_public_key_exchange_pdu        0x07f19647   Thumb Code     0  da14585_symbols.txt ABSOLUTE
    gapc_hci_handler                         0x07f19c73   Thumb Code     0  da14585_symbols.txt ABSOLUTE
    gapm_hci_handler                         0x07f1a8c1   Thumb Code     0  da14585_symbols.txt ABSOLUTE
    smpc_pairing_start                       0x07f1a951   Thumb Code     0  da14585_symbols.txt ABSOLUTE
    smpc_pairing_tk_exch                     0x07f1a9d7   Thumb Code     0  da14585_symbols.txt ABSOLUTE
    smpc_pairing_ltk_exch                    0x07f1aa95   Thumb Code     0  da14585_symbols.txt ABSOLUTE
    smpc_pairing_csrk_exch                   0x07f1aae9   Thumb Code     0  da14585_symbols.txt ABSOLUTE
    smpc_pairing_rsp                         0x07f1ab3f   Thumb Code     0  da14585_symbols.txt ABSOLUTE
    smpc_pairing_req_handler                 0x07f1ac23   Thumb Code     0  da14585_symbols.txt ABSOLUTE
    smpc_security_req_send                   0x07f1ac5b   Thumb Code     0  da14585_symbols.txt ABSOLUTE
    smpc_encrypt_start                       0x07f1ac85   Thumb Code     0  da14585_symbols.txt ABSOLUTE
    smpc_encrypt_start_handler               0x07f1acab   Thumb Code     0  da14585_symbols.txt ABSOLUTE
    smpc_encrypt_cfm                         0x07f1acdd   Thumb Code     0  da14585_symbols.txt ABSOLUTE
    smpc_sign_command                        0x07f1ad09   Thumb Code     0  da14585_symbols.txt ABSOLUTE
    smpc_sign_cont                           0x07f1ade1   Thumb Code     0  da14585_symbols.txt ABSOLUTE
    smpc_calc_confirm_cont                   0x07f1af87   Thumb Code     0  da14585_symbols.txt ABSOLUTE
    smpc_confirm_gen_rand                    0x07f1b4c9   Thumb Code     0  da14585_symbols.txt ABSOLUTE
    smpc_public_key_exchange_start_func      0x07f1b58f   Thumb Code     0  da14585_symbols.txt ABSOLUTE
    smpc_dhkey_calc_start                    0x07f1b5b3   Thumb Code     0  da14585_symbols.txt ABSOLUTE
    smpc_sec_authentication_start            0x07f1b601   Thumb Code     0  da14585_symbols.txt ABSOLUTE
    smpc_dhkey_calc_ind_func                 0x07f1b62f   Thumb Code     0  da14585_symbols.txt ABSOLUTE
    smpm_gen_rand_addr                       0x07f1b675   Thumb Code     0  da14585_symbols.txt ABSOLUTE
    smpm_resolv_addr                         0x07f1b68d   Thumb Code     0  da14585_symbols.txt ABSOLUTE
    smpm_use_enc_block                       0x07f1b6af   Thumb Code     0  da14585_symbols.txt ABSOLUTE
    smpm_gen_rand_nb                         0x07f1b6b7   Thumb Code     0  da14585_symbols.txt ABSOLUTE
    smpm_ecdh_key_create_func                0x07f1b6bf   Thumb Code     0  da14585_symbols.txt ABSOLUTE
    ke_init                                  0x07f1b6dd   Thumb Code     0  da14585_symbols.txt ABSOLUTE
    ke_flush                                 0x07f1b70f   Thumb Code     0  da14585_symbols.txt ABSOLUTE
    ke_sleep_check                           0x07f1b74f   Thumb Code     0  da14585_symbols.txt ABSOLUTE
    ke_stats_get                             0x07f1b761   Thumb Code     0  da14585_symbols.txt ABSOLUTE
    ke_event_init                            0x07f1b77d   Thumb Code     0  da14585_symbols.txt ABSOLUTE
    ke_event_callback_set                    0x07f1b789   Thumb Code     0  da14585_symbols.txt ABSOLUTE
    ke_event_set                             0x07f1b79d   Thumb Code     0  da14585_symbols.txt ABSOLUTE
    ke_event_clear                           0x07f1b7c9   Thumb Code     0  da14585_symbols.txt ABSOLUTE
    ke_event_get                             0x07f1b7f5   Thumb Code     0  da14585_symbols.txt ABSOLUTE
    ke_event_get_all                         0x07f1b81b   Thumb Code     0  da14585_symbols.txt ABSOLUTE
    ke_event_flush                           0x07f1b821   Thumb Code     0  da14585_symbols.txt ABSOLUTE
    ke_event_schedule                        0x07f1b829   Thumb Code     0  da14585_symbols.txt ABSOLUTE
    ke_mem_init                              0x07f1b879   Thumb Code     0  da14585_symbols.txt ABSOLUTE
    ke_mem_is_empty                          0x07f1b8c5   Thumb Code     0  da14585_symbols.txt ABSOLUTE
    ke_check_malloc                          0x07f1b905   Thumb Code     0  da14585_symbols.txt ABSOLUTE
    ke_malloc                                0x07f1b995   Thumb Code     0  da14585_symbols.txt ABSOLUTE
    ke_free                                  0x07f1ba8b   Thumb Code     0  da14585_symbols.txt ABSOLUTE
    ke_is_free                               0x07f1bb6d   Thumb Code     0  da14585_symbols.txt ABSOLUTE
    ke_get_mem_usage                         0x07f1bb7f   Thumb Code     0  da14585_symbols.txt ABSOLUTE
    ke_get_max_mem_usage                     0x07f1bb8b   Thumb Code     0  da14585_symbols.txt ABSOLUTE
    ke_msg_alloc                             0x07f1bbb1   Thumb Code     0  da14585_symbols.txt ABSOLUTE
    ke_msg_send                              0x07f1bbe3   Thumb Code     0  da14585_symbols.txt ABSOLUTE
    ke_msg_send_basic                        0x07f1bc0f   Thumb Code     0  da14585_symbols.txt ABSOLUTE
    ke_msg_forward                           0x07f1bc1d   Thumb Code     0  da14585_symbols.txt ABSOLUTE
    ke_msg_forward_new_id                    0x07f1bc27   Thumb Code     0  da14585_symbols.txt ABSOLUTE
    ke_msg_free                              0x07f1bc37   Thumb Code     0  da14585_symbols.txt ABSOLUTE
    ke_msg_dest_id_get                       0x07f1bc3f   Thumb Code     0  da14585_symbols.txt ABSOLUTE
    ke_msg_src_id_get                        0x07f1bc45   Thumb Code     0  da14585_symbols.txt ABSOLUTE
    ke_msg_in_queue                          0x07f1bc4b   Thumb Code     0  da14585_symbols.txt ABSOLUTE
    ke_queue_extract                         0x07f1bc5d   Thumb Code     0  da14585_symbols.txt ABSOLUTE
    ke_queue_insert                          0x07f1bcad   Thumb Code     0  da14585_symbols.txt ABSOLUTE
    ke_task_init_func                        0x07f1be3f   Thumb Code     0  da14585_symbols.txt ABSOLUTE
    ke_task_create                           0x07f1be53   Thumb Code     0  da14585_symbols.txt ABSOLUTE
    ke_task_delete                           0x07f1be8b   Thumb Code     0  da14585_symbols.txt ABSOLUTE
    ke_state_set                             0x07f1beb7   Thumb Code     0  da14585_symbols.txt ABSOLUTE
    ke_state_get                             0x07f1bf1b   Thumb Code     0  da14585_symbols.txt ABSOLUTE
    ke_msg_discard                           0x07f1bf39   Thumb Code     0  da14585_symbols.txt ABSOLUTE
    ke_msg_save                              0x07f1bf3d   Thumb Code     0  da14585_symbols.txt ABSOLUTE
    ke_task_msg_flush                        0x07f1bf41   Thumb Code     0  da14585_symbols.txt ABSOLUTE
    ke_timer_init_func                       0x07f1c049   Thumb Code     0  da14585_symbols.txt ABSOLUTE
    ke_timer_set                             0x07f1c055   Thumb Code     0  da14585_symbols.txt ABSOLUTE
    ke_timer_clear                           0x07f1c0e9   Thumb Code     0  da14585_symbols.txt ABSOLUTE
    ke_timer_active                          0x07f1c13f   Thumb Code     0  da14585_symbols.txt ABSOLUTE
    ke_timer_sleep_check                     0x07f1c165   Thumb Code     0  da14585_symbols.txt ABSOLUTE
    rwble_hl_reset                           0x07f1c28b   Thumb Code     0  da14585_symbols.txt ABSOLUTE
    rwble_hl_send_message                    0x07f1c2ad   Thumb Code     0  da14585_symbols.txt ABSOLUTE
    rwip_check_wakeup_boundary               0x07f1c2b1   Thumb Code     0  da14585_symbols.txt ABSOLUTE
    rwip_init                                0x07f1c2d7   Thumb Code     0  da14585_symbols.txt ABSOLUTE
    rwip_reset                               0x07f1c39b   Thumb Code     0  da14585_symbols.txt ABSOLUTE
    rwip_version                             0x07f1c3d3   Thumb Code     0  da14585_symbols.txt ABSOLUTE
    rwip_schedule                            0x07f1c3db   Thumb Code     0  da14585_symbols.txt ABSOLUTE
    rwip_prevent_sleep_set                   0x07f1c47f   Thumb Code     0  da14585_symbols.txt ABSOLUTE
    rwip_wakeup                              0x07f1c4a1   Thumb Code     0  da14585_symbols.txt ABSOLUTE
    rwip_prevent_sleep_clear                 0x07f1c4b7   Thumb Code     0  da14585_symbols.txt ABSOLUTE
    rwip_wakeup_end                          0x07f1c4d9   Thumb Code     0  da14585_symbols.txt ABSOLUTE
    rwip_wakeup_delay_set                    0x07f1c4f5   Thumb Code     0  da14585_symbols.txt ABSOLUTE
    rwip_sleep_enable                        0x07f1c503   Thumb Code     0  da14585_symbols.txt ABSOLUTE
    rwip_ext_wakeup_enable                   0x07f1c509   Thumb Code     0  da14585_symbols.txt ABSOLUTE
    rwble_init                               0x07f1c52d   Thumb Code     0  da14585_symbols.txt ABSOLUTE
    rwble_reset                              0x07f1c593   Thumb Code     0  da14585_symbols.txt ABSOLUTE
    rwble_version                            0x07f1c5c7   Thumb Code     0  da14585_symbols.txt ABSOLUTE
    rwble_send_message                       0x07f1c5f3   Thumb Code     0  da14585_symbols.txt ABSOLUTE
    YieldToScheduler                         0x07f1c6d9   Thumb Code     0  da14585_symbols.txt ABSOLUTE
    xorshift64star                           0x07f1c6e1   Thumb Code     0  da14585_symbols.txt ABSOLUTE
    uECC_set_rng                             0x07f1c747   Thumb Code     0  da14585_symbols.txt ABSOLUTE
    uECC_get_rng                             0x07f1c74d   Thumb Code     0  da14585_symbols.txt ABSOLUTE
    uECC_curve_private_key_size              0x07f1c753   Thumb Code     0  da14585_symbols.txt ABSOLUTE
    uECC_curve_public_key_size               0x07f1c763   Thumb Code     0  da14585_symbols.txt ABSOLUTE
    uECC_vli_clear                           0x07f1c76b   Thumb Code     0  da14585_symbols.txt ABSOLUTE
    uECC_vli_isZero                          0x07f1c781   Thumb Code     0  da14585_symbols.txt ABSOLUTE
    uECC_vli_testBit                         0x07f1c7a3   Thumb Code     0  da14585_symbols.txt ABSOLUTE
    uECC_vli_numBits                         0x07f1c7b5   Thumb Code     0  da14585_symbols.txt ABSOLUTE
    uECC_vli_set                             0x07f1c7ef   Thumb Code     0  da14585_symbols.txt ABSOLUTE
    uECC_vli_equal                           0x07f1c82d   Thumb Code     0  da14585_symbols.txt ABSOLUTE
    uECC_vli_cmp                             0x07f1c851   Thumb Code     0  da14585_symbols.txt ABSOLUTE
    uECC_vli_rshift1                         0x07f1c887   Thumb Code     0  da14585_symbols.txt ABSOLUTE
    uECC_vli_square                          0x07f1c8a5   Thumb Code     0  da14585_symbols.txt ABSOLUTE
    uECC_vli_modAdd                          0x07f1c8b1   Thumb Code     0  da14585_symbols.txt ABSOLUTE
    uECC_vli_modSub                          0x07f1c8df   Thumb Code     0  da14585_symbols.txt ABSOLUTE
    uECC_vli_mmod                            0x07f1c8ff   Thumb Code     0  da14585_symbols.txt ABSOLUTE
    uECC_vli_modMult                         0x07f1ca09   Thumb Code     0  da14585_symbols.txt ABSOLUTE
    uECC_vli_modMult_fast                    0x07f1ca2b   Thumb Code     0  da14585_symbols.txt ABSOLUTE
    uECC_vli_modSquare                       0x07f1ca4b   Thumb Code     0  da14585_symbols.txt ABSOLUTE
    uECC_vli_modSquare_fast                  0x07f1ca59   Thumb Code     0  da14585_symbols.txt ABSOLUTE
    uECC_vli_modInv                          0x07f1ca99   Thumb Code     0  da14585_symbols.txt ABSOLUTE
    uECC_secp256r1                           0x07f1cdd5   Thumb Code     0  da14585_symbols.txt ABSOLUTE
    uECC_vli_nativeToBytes                   0x07f1d3d3   Thumb Code     0  da14585_symbols.txt ABSOLUTE
    uECC_vli_bytesToNative                   0x07f1d3f5   Thumb Code     0  da14585_symbols.txt ABSOLUTE
    uECC_generate_random_int                 0x07f1d433   Thumb Code     0  da14585_symbols.txt ABSOLUTE
    uECC_make_key                            0x07f1d495   Thumb Code     0  da14585_symbols.txt ABSOLUTE
    uECC_shared_secret                       0x07f1d513   Thumb Code     0  da14585_symbols.txt ABSOLUTE
    uECC_compress                            0x07f1d5cf   Thumb Code     0  da14585_symbols.txt ABSOLUTE
    uECC_decompress                          0x07f1d5fd   Thumb Code     0  da14585_symbols.txt ABSOLUTE
    uECC_valid_point                         0x07f1d66d   Thumb Code     0  da14585_symbols.txt ABSOLUTE
    uECC_valid_public_key                    0x07f1d6cf   Thumb Code     0  da14585_symbols.txt ABSOLUTE
    uECC_compute_public_key                  0x07f1d703   Thumb Code     0  da14585_symbols.txt ABSOLUTE
    uECC_sign                                0x07f1d989   Thumb Code     0  da14585_symbols.txt ABSOLUTE
    uECC_sign_deterministic                  0x07f1da6f   Thumb Code     0  da14585_symbols.txt ABSOLUTE
    uECC_verify                              0x07f1dbdd   Thumb Code     0  da14585_symbols.txt ABSOLUTE
    uECC_curve_num_words                     0x07f1de89   Thumb Code     0  da14585_symbols.txt ABSOLUTE
    uECC_curve_num_bytes                     0x07f1de91   Thumb Code     0  da14585_symbols.txt ABSOLUTE
    uECC_curve_num_bits                      0x07f1de99   Thumb Code     0  da14585_symbols.txt ABSOLUTE
    uECC_curve_num_n_words                   0x07f1dea1   Thumb Code     0  da14585_symbols.txt ABSOLUTE
    uECC_curve_num_n_bytes                   0x07f1deb1   Thumb Code     0  da14585_symbols.txt ABSOLUTE
    uECC_curve_num_n_bits                    0x07f1dec1   Thumb Code     0  da14585_symbols.txt ABSOLUTE
    uECC_curve_p                             0x07f1dec9   Thumb Code     0  da14585_symbols.txt ABSOLUTE
    uECC_curve_n                             0x07f1decd   Thumb Code     0  da14585_symbols.txt ABSOLUTE
    uECC_curve_G                             0x07f1ded1   Thumb Code     0  da14585_symbols.txt ABSOLUTE
    uECC_curve_b                             0x07f1ded5   Thumb Code     0  da14585_symbols.txt ABSOLUTE
    uECC_vli_mod_sqrt                        0x07f1ded9   Thumb Code     0  da14585_symbols.txt ABSOLUTE
    uECC_vli_mmod_fast                       0x07f1dedf   Thumb Code     0  da14585_symbols.txt ABSOLUTE
    uECC_point_mult                          0x07f1dee5   Thumb Code     0  da14585_symbols.txt ABSOLUTE
    __aeabi_uidiv                            0x07f1dfb9   Thumb Code     0  da14585_symbols.txt ABSOLUTE
    __aeabi_uidivmod                         0x07f1dfb9   Thumb Code     0  da14585_symbols.txt ABSOLUTE
    __aeabi_idiv                             0x07f1dfe5   Thumb Code     0  da14585_symbols.txt ABSOLUTE
    __aeabi_idivmod                          0x07f1dfe5   Thumb Code     0  da14585_symbols.txt ABSOLUTE
    __aeabi_lmul                             0x07f1e00d   Thumb Code     0  da14585_symbols.txt ABSOLUTE
    _ll_mul                                  0x07f1e00d   Thumb Code     0  da14585_symbols.txt ABSOLUTE
    rand                                     0x07f1e089   Thumb Code     0  da14585_symbols.txt ABSOLUTE
    srand                                    0x07f1e09b   Thumb Code     0  da14585_symbols.txt ABSOLUTE
    __aeabi_memcpy                           0x07f1e0ad   Thumb Code     0  da14585_symbols.txt ABSOLUTE
    __aeabi_memcpy4                          0x07f1e0ad   Thumb Code     0  da14585_symbols.txt ABSOLUTE
    __aeabi_memcpy8                          0x07f1e0ad   Thumb Code     0  da14585_symbols.txt ABSOLUTE
    __aeabi_memset                           0x07f1e0d1   Thumb Code     0  da14585_symbols.txt ABSOLUTE
    __aeabi_memset4                          0x07f1e0d1   Thumb Code     0  da14585_symbols.txt ABSOLUTE
    __aeabi_memset8                          0x07f1e0d1   Thumb Code     0  da14585_symbols.txt ABSOLUTE
    __aeabi_memclr                           0x07f1e0df   Thumb Code     0  da14585_symbols.txt ABSOLUTE
    __aeabi_memclr4                          0x07f1e0df   Thumb Code     0  da14585_symbols.txt ABSOLUTE
    __aeabi_memclr8                          0x07f1e0df   Thumb Code     0  da14585_symbols.txt ABSOLUTE
    _memset$wrapper                          0x07f1e0e3   Thumb Code     0  da14585_symbols.txt ABSOLUTE
    memcmp                                   0x07f1e0f5   Thumb Code     0  da14585_symbols.txt ABSOLUTE
    __aeabi_uread4                           0x07f1e10f   Thumb Code     0  da14585_symbols.txt ABSOLUTE
    __rt_uread4                              0x07f1e10f   Thumb Code     0  da14585_symbols.txt ABSOLUTE
    _uread4                                  0x07f1e10f   Thumb Code     0  da14585_symbols.txt ABSOLUTE
    __aeabi_uwrite4                          0x07f1e123   Thumb Code     0  da14585_symbols.txt ABSOLUTE
    __rt_uwrite4                             0x07f1e123   Thumb Code     0  da14585_symbols.txt ABSOLUTE
    _uwrite4                                 0x07f1e123   Thumb Code     0  da14585_symbols.txt ABSOLUTE
    __aeabi_llsl                             0x07f1e135   Thumb Code     0  da14585_symbols.txt ABSOLUTE
    _ll_shift_l                              0x07f1e135   Thumb Code     0  da14585_symbols.txt ABSOLUTE
    __ARM_common_switch8                     0x07f1e155   Thumb Code     0  da14585_symbols.txt ABSOLUTE
    uart_api                                 0x07f1e170   Data           0  da14585_symbols.txt ABSOLUTE
    co_sca2ppm                               0x07f1e180   Data           0  da14585_symbols.txt ABSOLUTE
    co_null_bdaddr                           0x07f1e190   Data           0  da14585_symbols.txt ABSOLUTE
    co_default_bdaddr                        0x07f1e196   Data           0  da14585_symbols.txt ABSOLUTE
    llc_state_handler                        0x07f1e41c   Data           0  da14585_symbols.txt ABSOLUTE
    llc_default_handler                      0x07f1e4ec   Data           0  da14585_symbols.txt ABSOLUTE
    llm_dflt_bdaddr                          0x07f1e504   Data           0  da14585_symbols.txt ABSOLUTE
    llm_local_cmds                           0x07f1e51c   Data           0  da14585_symbols.txt ABSOLUTE
    llm_local_le_feats                       0x07f1e55c   Data           0  da14585_symbols.txt ABSOLUTE
    llm_local_le_states                      0x07f1e564   Data           0  da14585_symbols.txt ABSOLUTE
    llm_state_handler                        0x07f1e74c   Data           0  da14585_symbols.txt ABSOLUTE
    llm_default_handler                      0x07f1e77c   Data           0  da14585_symbols.txt ABSOLUTE
    LLM_AA_CT1                               0x07f1e784   Data           0  da14585_symbols.txt ABSOLUTE
    LLM_AA_CT2                               0x07f1e787   Data           0  da14585_symbols.txt ABSOLUTE
    ecc_p256_G                               0x07f1e789   Data           0  da14585_symbols.txt ABSOLUTE
    gtl_default_state                        0x07f1e7dc   Data           0  da14585_symbols.txt ABSOLUTE
    gtl_default_handler                      0x07f1e7e4   Data           0  da14585_symbols.txt ABSOLUTE
    hci_cmd_desc_tab_lk_ctrl                 0x07f1e7f0   Data           0  da14585_symbols.txt ABSOLUTE
    hci_cmd_desc_tab_ctrl_bb                 0x07f1e814   Data           0  da14585_symbols.txt ABSOLUTE
    hci_cmd_desc_tab_info_par                0x07f1e88c   Data           0  da14585_symbols.txt ABSOLUTE
    hci_cmd_desc_tab_stat_par                0x07f1e8c8   Data           0  da14585_symbols.txt ABSOLUTE
    hci_cmd_desc_tab_le                      0x07f1e8d4   Data           0  da14585_symbols.txt ABSOLUTE
    hci_cmd_desc_tab_vs                      0x07f1eb14   Data           0  da14585_symbols.txt ABSOLUTE
    rom_hci_cmd_desc_root_tab                0x07f1ec58   Data           0  da14585_symbols.txt ABSOLUTE
    hci_evt_desc_tab                         0x07f1ec88   Data           0  da14585_symbols.txt ABSOLUTE
    hci_evt_le_desc_tab                      0x07f1ecd0   Data           0  da14585_symbols.txt ABSOLUTE
    attc_handlers                            0x07f1ed40   Data           0  da14585_symbols.txt ABSOLUTE
    atts_handlers                            0x07f1edb0   Data           0  da14585_symbols.txt ABSOLUTE
    gattc_default_state                      0x07f1ee30   Data           0  da14585_symbols.txt ABSOLUTE
    gattc_default_handler                    0x07f1ef10   Data           0  da14585_symbols.txt ABSOLUTE
    gattm_default_state                      0x07f1ef5c   Data           0  da14585_symbols.txt ABSOLUTE
    gattm_default_handler                    0x07f1efb4   Data           0  da14585_symbols.txt ABSOLUTE
    l2cc_default_state                       0x07f1efcc   Data           0  da14585_symbols.txt ABSOLUTE
    l2cc_default_handler                     0x07f1efe4   Data           0  da14585_symbols.txt ABSOLUTE
    const_Rb                                 0x07f1f005   Data           0  da14585_symbols.txt ABSOLUTE
    const_Zero                               0x07f1f015   Data           0  da14585_symbols.txt ABSOLUTE
    gapc_default_state                       0x07f1f038   Data           0  da14585_symbols.txt ABSOLUTE
    gapc_default_handler                     0x07f1f188   Data           0  da14585_symbols.txt ABSOLUTE
    gapm_default_state                       0x07f1f224   Data           0  da14585_symbols.txt ABSOLUTE
    gapm_default_handler                     0x07f1f30c   Data           0  da14585_symbols.txt ABSOLUTE
    l2cc_connor_pkt_format                   0x07f1f314   Data           0  da14585_symbols.txt ABSOLUTE
    l2cc_signaling_pkt_format                0x07f1f31c   Data           0  da14585_symbols.txt ABSOLUTE
    l2cc_security_pkt_format                 0x07f1f378   Data           0  da14585_symbols.txt ABSOLUTE
    l2cc_attribute_pkt_format                0x07f1f3b4   Data           0  da14585_symbols.txt ABSOLUTE
    smpc_construct_pdu                       0x07f1f430   Data           0  da14585_symbols.txt ABSOLUTE
    __Vectors                                0x07fc0000   Data           4  startup_da14585_586.o(RESET)
    __Vectors_End                            0x07fc00a0   Data           0  startup_da14585_586.o(RESET)
    Image$$ER_IROM3$$Base                    0x07fc0510   Number         0  anon$$obj.o ABSOLUTE
    __main                                   0x07fc0511   Thumb Code     0  entry.o(.ARM.Collect$$$$00000000)
    _main_stk                                0x07fc0511   Thumb Code     0  entry2.o(.ARM.Collect$$$$00000001)
    _main_scatterload                        0x07fc0515   Thumb Code     0  entry5.o(.ARM.Collect$$$$00000004)
    __main_after_scatterload                 0x07fc0519   Thumb Code     0  entry5.o(.ARM.Collect$$$$00000004)
    _main_clock                              0x07fc0519   Thumb Code     0  entry7b.o(.ARM.Collect$$$$00000008)
    _main_cpp_init                           0x07fc0519   Thumb Code     0  entry8b.o(.ARM.Collect$$$$0000000A)
    _main_init                               0x07fc0519   Thumb Code     0  entry9a.o(.ARM.Collect$$$$0000000B)
    __rt_final_cpp                           0x07fc0521   Thumb Code     0  entry10a.o(.ARM.Collect$$$$0000000D)
    __rt_final_exit                          0x07fc0521   Thumb Code     0  entry11a.o(.ARM.Collect$$$$0000000F)
    Reset_Handler                            0x07fc0525   Thumb Code     8  startup_da14585_586.o(.text)
    SVC_Handler                              0x07fc055d   Thumb Code     2  startup_da14585_586.o(.text)
    PendSV_Handler                           0x07fc055f   Thumb Code     2  startup_da14585_586.o(.text)
    SysTick_Handler                          0x07fc0561   Thumb Code     2  startup_da14585_586.o(.text)
    BLE_RF_DIAG_Handler                      0x07fc0563   Thumb Code     0  startup_da14585_586.o(.text)
    DMA_Handler                              0x07fc0563   Thumb Code     0  startup_da14585_586.o(.text)
    KEYBRD_Handler                           0x07fc0563   Thumb Code     0  startup_da14585_586.o(.text)
    PCM_Handler                              0x07fc0563   Thumb Code     0  startup_da14585_586.o(.text)
    RESERVED21_Handler                       0x07fc0563   Thumb Code     0  startup_da14585_586.o(.text)
    RESERVED22_Handler                       0x07fc0563   Thumb Code     0  startup_da14585_586.o(.text)
    RESERVED23_Handler                       0x07fc0563   Thumb Code     0  startup_da14585_586.o(.text)
    RFCAL_Handler                            0x07fc0563   Thumb Code     0  startup_da14585_586.o(.text)
    SPI_Handler                              0x07fc0563   Thumb Code     0  startup_da14585_586.o(.text)
    SRCIN_Handler                            0x07fc0563   Thumb Code     0  startup_da14585_586.o(.text)
    SRCOUT_Handler                           0x07fc0563   Thumb Code     0  startup_da14585_586.o(.text)
    SWTIM_Handler                            0x07fc0563   Thumb Code     0  startup_da14585_586.o(.text)
    PATCHED_atts_mtu_exc_req                 0x07fc0575   Thumb Code    52  patch.o(.text)
    PATCHED_smpc_is_sec_mode_reached         0x07fc05a9   Thumb Code    66  patch.o(.text)
    PATCHED_smpc_check_key_distrib           0x07fc05eb   Thumb Code    74  patch.o(.text)
    PATCHED_llcp_length_req_handler          0x07fc0635   Thumb Code   120  patch.o(.text)
    PATCHED_llcp_length_rsp_handler          0x07fc06ad   Thumb Code   136  patch.o(.text)
    JT_llc_le_length_effective_func          0x07fc0735   Thumb Code   182  patch.o(.text)
    PATCHED_smpc_construct_id_addr_info_pdu  0x07fc07eb   Thumb Code    48  patch.o(.text)
    PATCHED_llc_util_gen_skdx                0x07fc081b   Thumb Code    20  patch.o(.text)
    PATCHED_llm_adv_report_set               0x07fc082f   Thumb Code   142  patch.o(.text)
    PATCHED_lld_evt_move_to_master           0x07fc08bd   Thumb Code   360  patch.o(.text)
    PATCHED_gapm_adv_sanity                  0x07fc0a25   Thumb Code   244  patch.o(.text)
    PATCHED_gapm_get_ad_type_flag            0x07fc0b19   Thumb Code    38  patch.o(.text)
    PK_PointMult_func                        0x07fc0b3f   Thumb Code   246  patch.o(.text)
    llm_create_p256_key_func                 0x07fc0c35   Thumb Code    70  patch.o(.text)
    llm_p256_req_handler_func                0x07fc0c7b   Thumb Code   290  patch.o(.text)
    PATCHED_hci_command_handler              0x07fc0deb   Thumb Code   110  patch.o(.text)
    JT_l2cc_pdu_unpack_func                  0x07fc11d9   Thumb Code   812  patch.o(.text)
    JT_l2cc_pdu_recv_ind_handler_func        0x07fc1505   Thumb Code    70  patch.o(.text)
    PATCHED_llc_ch_map_req_ind               0x07fc154b   Thumb Code   110  patch.o(.text)
    PATCHED_smpc_recv_public_key_exchange_pdu 0x07fc16eb   Thumb Code   106  patch.o(.text)
    PATCHED_llm_con_req_ind                  0x07fc17e7   Thumb Code   624  patch.o(.text)
    patch_func                               0x07fc1a57   Thumb Code    48  patch.o(.text)
    patch_global_vars_init                   0x07fc1a87   Thumb Code     2  patch.o(.text)
    rf_calibration_585                       0x07fc1ab9   Thumb Code    84  rf_calibration.o(.text)
    enable_rf_diag_irq                       0x07fc1b0d   Thumb Code   112  rf_calibration.o(.text)
    set_gauss_modgain                        0x07fc1b7d   Thumb Code    54  rf_calibration.o(.text)
    PATCHED_smpc_dhkey_calc_start            0x07fc1bcd   Thumb Code   136  smpc_util.o(.text)
    JT_llm_p256_start_func                   0x07fc1c55   Thumb Code    82  smpc_util.o(.text)
    __scatterload                            0x07fc1cb5   Thumb Code    28  init.o(.text)
    __scatterload_rt2                        0x07fc1cb5   Thumb Code     0  init.o(.text)
    ADC_Handler                              0x07fc1cd9   Thumb Code     8  lto-llvm-0469b9.o(.text.ADC_Handler)
    BLE_WAKEUP_LP_Handler                    0x07fc1ce5   Thumb Code  1008  lto-llvm-0469b9.o(.text.BLE_WAKEUP_LP_Handler)
    GPIO0_Handler                            0x07fc2105   Thumb Code    20  lto-llvm-0469b9.o(.text.GPIO0_Handler)
    GPIO1_Handler                            0x07fc2119   Thumb Code    20  lto-llvm-0469b9.o(.text.GPIO1_Handler)
    GPIO2_Handler                            0x07fc212d   Thumb Code    20  lto-llvm-0469b9.o(.text.GPIO2_Handler)
    GPIO3_Handler                            0x07fc2141   Thumb Code    20  lto-llvm-0469b9.o(.text.GPIO3_Handler)
    GPIO4_Handler                            0x07fc2155   Thumb Code    20  lto-llvm-0469b9.o(.text.GPIO4_Handler)
    HardFault_HandlerC                       0x07fc216d   Thumb Code    84  lto-llvm-0469b9.o(.text.HardFault_HandlerC)
    I2C_Handler                              0x07fc21c9   Thumb Code    12  lto-llvm-0469b9.o(.text.I2C_Handler)
    NMI_HandlerC                             0x07fc21d9   Thumb Code   140  lto-llvm-0469b9.o(.text.NMI_HandlerC)
    UART2_Handler                            0x07fc2281   Thumb Code   168  lto-llvm-0469b9.o(.text.UART2_Handler)
    WKUP_QUADEC_Handler                      0x07fc2341   Thumb Code   104  lto-llvm-0469b9.o(.text.WKUP_QUADEC_Handler)
    main                                     0x07fc6c2d   Thumb Code  5168  lto-llvm-0469b9.o(.text.main)
    rwble_isr                                0x07fc921d   Thumb Code  1108  lto-llvm-0469b9.o(.text.rwble_isr)
    __scatterload_copy                       0x07fc9ec9   Thumb Code    14  handlers.o(i.__scatterload_copy)
    __scatterload_null                       0x07fc9ed7   Thumb Code     2  handlers.o(i.__scatterload_null)
    __scatterload_zeroinit                   0x07fc9ed9   Thumb Code    14  handlers.o(i.__scatterload_zeroinit)
    SystemInit                               0x07fc9ee9   Thumb Code    56  lto-llvm-0469b9.o(system_DA14xxx)
    Region$$Table$$Base                      0x07fca848   Number         0  anon$$obj.o(Region$$Table)
    Region$$Table$$Limit                     0x07fca878   Number         0  anon$$obj.o(Region$$Table)
    __initial_sp                             0x07fcafc0   Data           0  startup_da14585_586.o(STACK)
    ble_wakeup_executed                      0x07fd7600   Data           0  da14585_symbols.txt ABSOLUTE
    rf_in_sleep                              0x07fd7601   Data           0  da14585_symbols.txt ABSOLUTE
    custom_preinit                           0x07fd7604   Data           0  da14585_symbols.txt ABSOLUTE
    custom_postinit                          0x07fd7608   Data           0  da14585_symbols.txt ABSOLUTE
    custom_appinit                           0x07fd760c   Data           0  da14585_symbols.txt ABSOLUTE
    custom_preloop                           0x07fd7610   Data           0  da14585_symbols.txt ABSOLUTE
    custom_preschedule                       0x07fd7614   Data           0  da14585_symbols.txt ABSOLUTE
    custom_postschedule                      0x07fd7618   Data           0  da14585_symbols.txt ABSOLUTE
    custom_postschedule_async                0x07fd761c   Data           0  da14585_symbols.txt ABSOLUTE
    custom_presleepcheck                     0x07fd7620   Data           0  da14585_symbols.txt ABSOLUTE
    custom_appsleepset                       0x07fd7624   Data           0  da14585_symbols.txt ABSOLUTE
    custom_postsleepcheck                    0x07fd7628   Data           0  da14585_symbols.txt ABSOLUTE
    custom_presleepenter                     0x07fd762c   Data           0  da14585_symbols.txt ABSOLUTE
    custom_postsleepexit                     0x07fd7630   Data           0  da14585_symbols.txt ABSOLUTE
    custom_prewakeup                         0x07fd7634   Data           0  da14585_symbols.txt ABSOLUTE
    custom_postwakeup                        0x07fd7638   Data           0  da14585_symbols.txt ABSOLUTE
    custom_preidlecheck                      0x07fd763c   Data           0  da14585_symbols.txt ABSOLUTE
    custom_pti_set                           0x07fd7640   Data           0  da14585_symbols.txt ABSOLUTE
    REG_BLE_EM_TX_BUFFER_SIZE                0x07fd7644   Data           0  da14585_symbols.txt ABSOLUTE
    REG_BLE_EM_RX_BUFFER_SIZE                0x07fd7648   Data           0  da14585_symbols.txt ABSOLUTE
    _ble_base                                0x07fd764c   Data           0  da14585_symbols.txt ABSOLUTE
    gap_cfg_user                             0x07fd7650   Data           0  da14585_symbols.txt ABSOLUTE
    rom_func_addr_table                      0x07fd7654   Data           0  da14585_symbols.txt ABSOLUTE
    rom_cfg_table                            0x07fd7658   Data           0  da14585_symbols.txt ABSOLUTE
    BLE_TX_DESC_DATA_USER                    0x07fd765c   Data           0  da14585_symbols.txt ABSOLUTE
    BLE_TX_DESC_CNTL_USER                    0x07fd7660   Data           0  da14585_symbols.txt ABSOLUTE
    LLM_LE_ADV_DUMMY_IDX                     0x07fd7664   Data           0  da14585_symbols.txt ABSOLUTE
    LLM_LE_SCAN_CON_REQ_ADV_DIR_IDX          0x07fd7668   Data           0  da14585_symbols.txt ABSOLUTE
    LLM_LE_SCAN_RSP_IDX                      0x07fd766c   Data           0  da14585_symbols.txt ABSOLUTE
    LLM_LE_ADV_IDX                           0x07fd7670   Data           0  da14585_symbols.txt ABSOLUTE
    length_exchange_needed                   0x07fd7674   Data           0  da14585_symbols.txt ABSOLUTE
    enh_con_cmp_cnt                          0x07fd7678   Data           0  da14585_symbols.txt ABSOLUTE
    rx_pkt_cnt                               0x07fd7680   Data           0  da14585_symbols.txt ABSOLUTE
    rx_pkt_cnt_bad                           0x07fd7684   Data           0  da14585_symbols.txt ABSOLUTE
    rx_pkt_cnt_bad_adv                       0x07fd7688   Data           0  da14585_symbols.txt ABSOLUTE
    rx_pkt_cnt_bad_scn                       0x07fd768c   Data           0  da14585_symbols.txt ABSOLUTE
    rx_pkt_cnt_bad_oth                       0x07fd7690   Data           0  da14585_symbols.txt ABSOLUTE
    rx_pkt_cnt_bad_wo_sync_err               0x07fd7694   Data           0  da14585_symbols.txt ABSOLUTE
    rx_pkt_cnt_bad_con                       0x07fd7698   Data           0  da14585_symbols.txt ABSOLUTE
    connect_req_cnt                          0x07fd769c   Data           0  da14585_symbols.txt ABSOLUTE
    last_status                              0x07fd76a0   Data           0  da14585_symbols.txt ABSOLUTE
    llc_state                                0x07fd76a4   Data           0  da14585_symbols.txt ABSOLUTE
    lld_sleep_env                            0x07fd76ac   Data           0  da14585_symbols.txt ABSOLUTE
    lld_wlcoex_enable                        0x07fd76b0   Data           0  da14585_symbols.txt ABSOLUTE
    ble_duplicate_filter_max                 0x07fd76b4   Data           0  da14585_symbols.txt ABSOLUTE
    ble_duplicate_filter_found               0x07fd76b5   Data           0  da14585_symbols.txt ABSOLUTE
    alter_conn_adv_all_cnt                   0x07fd76b8   Data           0  da14585_symbols.txt ABSOLUTE
    alter_conn_adv_dir_cnt                   0x07fd76bc   Data           0  da14585_symbols.txt ABSOLUTE
    alter_conn_adv_cnt                       0x07fd76c0   Data           0  da14585_symbols.txt ABSOLUTE
    create_conn_cnt                          0x07fd76c4   Data           0  da14585_symbols.txt ABSOLUTE
    alter_conn_cnt                           0x07fd76c8   Data           0  da14585_symbols.txt ABSOLUTE
    alter_conn_restart_cnt                   0x07fd76cc   Data           0  da14585_symbols.txt ABSOLUTE
    alter_conn_peer_addr                     0x07fd76d0   Data           0  da14585_symbols.txt ABSOLUTE
    alter_conn_local_addr                    0x07fd76d6   Data           0  da14585_symbols.txt ABSOLUTE
    set_adv_data_discard_old                 0x07fd76dc   Data           0  da14585_symbols.txt ABSOLUTE
    llm_resolving_list_max                   0x07fd76dd   Data           0  da14585_symbols.txt ABSOLUTE
    llm_bt_env                               0x07fd76de   Data           0  da14585_symbols.txt ABSOLUTE
    init_tx_cnt_cntl_cnt1                    0x07fd76e8   Data           0  da14585_symbols.txt ABSOLUTE
    init_tx_cnt_cntl_cnt                     0x07fd76ec   Data           0  da14585_symbols.txt ABSOLUTE
    tx_cnt_cntl_cnt                          0x07fd76f0   Data           0  da14585_symbols.txt ABSOLUTE
    llm_state                                0x07fd76f4   Data           0  da14585_symbols.txt ABSOLUTE
    gtl_state                                0x07fd76f8   Data           0  da14585_symbols.txt ABSOLUTE
    use_h4tl                                 0x07fd76f9   Data           0  da14585_symbols.txt ABSOLUTE
    hci_cmd_desc_root_tab                    0x07fd76fc   Data           0  da14585_symbols.txt ABSOLUTE
    gattc_state                              0x07fd772c   Data           0  da14585_symbols.txt ABSOLUTE
    gattm_state                              0x07fd7734   Data           0  da14585_symbols.txt ABSOLUTE
    l2cc_state                               0x07fd7735   Data           0  da14585_symbols.txt ABSOLUTE
    l2cm_env                                 0x07fd773e   Data           0  da14585_symbols.txt ABSOLUTE
    gapc_state                               0x07fd7744   Data           0  da14585_symbols.txt ABSOLUTE
    gapm_state                               0x07fd774c   Data           0  da14585_symbols.txt ABSOLUTE
    ecdh_key_creation_in_progress            0x07fd7750   Data           0  da14585_symbols.txt ABSOLUTE
    ke_free_bad                              0x07fd7754   Data           0  da14585_symbols.txt ABSOLUTE
    rwip_env                                 0x07fd7758   Data           0  da14585_symbols.txt ABSOLUTE
    ble_reg_save                             0x07fd7764   Data           0  da14585_symbols.txt ABSOLUTE
    sleep_env                                0x07fd77b4   Data           0  da14585_symbols.txt ABSOLUTE
    uart_env                                 0x07fd77b8   Data           0  da14585_symbols.txt ABSOLUTE
    ke_mem_heaps_used                        0x07fd77dc   Data           0  da14585_symbols.txt ABSOLUTE
    co_buf_env                               0x07fd77e0   Data           0  da14585_symbols.txt ABSOLUTE
    llc_env                                  0x07fd7918   Data           0  da14585_symbols.txt ABSOLUTE
    lld_evt_env                              0x07fd7938   Data           0  da14585_symbols.txt ABSOLUTE
    llm_le_env                               0x07fd7964   Data           0  da14585_symbols.txt ABSOLUTE
    llm_resolving_list                       0x07fd7a60   Data           0  da14585_symbols.txt ABSOLUTE
    ea_env                                   0x07fd7cb8   Data           0  da14585_symbols.txt ABSOLUTE
    gtl_env                                  0x07fd7cf8   Data           0  da14585_symbols.txt ABSOLUTE
    hci_env                                  0x07fd7d40   Data           0  da14585_symbols.txt ABSOLUTE
    h4tl_env                                 0x07fd7d50   Data           0  da14585_symbols.txt ABSOLUTE
    gattc_env                                0x07fd7d68   Data           0  da14585_symbols.txt ABSOLUTE
    gattm_env                                0x07fd7d88   Data           0  da14585_symbols.txt ABSOLUTE
    l2cc_env                                 0x07fd7dac   Data           0  da14585_symbols.txt ABSOLUTE
    ecdh_key                                 0x07fd7dcc   Data           0  da14585_symbols.txt ABSOLUTE
    gapc_env                                 0x07fd7e2c   Data           0  da14585_symbols.txt ABSOLUTE
    gapm_env                                 0x07fd7e4c   Data           0  da14585_symbols.txt ABSOLUTE
    ke_env                                   0x07fd7e78   Data           0  da14585_symbols.txt ABSOLUTE
    rwip_rf                                  0x07fd7fb4   Data           0  da14585_symbols.txt ABSOLUTE



==============================================================================

Memory Map of the image

  Image Entry point : 0x07fc0511

  Load Region LR_IROM1 (Base: 0x07fc0000, Size: 0x000000a0, Max: 0x000000c0, ABSOLUTE)

    Execution Region ER_IROM1 (Exec base: 0x07fc0000, Load base: 0x07fc0000, Size: 0x000000a0, Max: 0x000000c0, ABSOLUTE)

    Exec Addr    Load Addr    Size         Type   Attr      Idx    E Section Name        Object

    0x07fc0000   0x07fc0000   0x000000a0   Data   RO            5    RESET               startup_da14585_586.o



  Load Region LR_IROM2 (Base: 0x07fc00c0, Size: 0x00000000, Max: 0x00000050, ABSOLUTE)

    Execution Region ER_IROM2 (Exec base: 0x07fc00c0, Load base: 0x07fc00c0, Size: 0x00000050, Max: 0x00000050, ABSOLUTE)

    Exec Addr    Load Addr    Size         Type   Attr      Idx    E Section Name        Object

    0x07fc00c0        -       0x00000050   Zero   RW            1    ER_IROM2.bss        anon$$obj.o



  Load Region LR_TRNG_ZI (Base: 0x07fc0110, Size: 0x00000000, Max: 0x00000400, ABSOLUTE)

    Execution Region ER_TRNG_ZI (Exec base: 0x07fc0110, Load base: 0x07fc0110, Size: 0x00000400, Max: 0x00000400, ABSOLUTE)

    Exec Addr    Load Addr    Size         Type   Attr      Idx    E Section Name        Object

    0x07fc0110        -       0x00000400   Zero   RW          381    .bss.trng_buffer_area_zi  lto-llvm-0469b9.o



  Load Region LR_IROM3 (Base: 0x07fc0510, Size: 0x0000a394, Max: 0x00012588, ABSOLUTE)

    Execution Region ER_IROM3 (Exec base: 0x07fc0510, Load base: 0x07fc0510, Size: 0x0000a394, Max: 0x00012588, ABSOLUTE)

    Exec Addr    Load Addr    Size         Type   Attr      Idx    E Section Name        Object

    0x07fc0510   0x07fc0510   0x00000000   Code   RO           94  * .ARM.Collect$$$$00000000  mc_p.l(entry.o)
    0x07fc0510   0x07fc0510   0x00000004   Code   RO           95    .ARM.Collect$$$$00000001  mc_p.l(entry2.o)
    0x07fc0514   0x07fc0514   0x00000004   Code   RO           98    .ARM.Collect$$$$00000004  mc_p.l(entry5.o)
    0x07fc0518   0x07fc0518   0x00000000   Code   RO          100    .ARM.Collect$$$$00000008  mc_p.l(entry7b.o)
    0x07fc0518   0x07fc0518   0x00000000   Code   RO          102    .ARM.Collect$$$$0000000A  mc_p.l(entry8b.o)
    0x07fc0518   0x07fc0518   0x00000008   Code   RO          103    .ARM.Collect$$$$0000000B  mc_p.l(entry9a.o)
    0x07fc0520   0x07fc0520   0x00000000   Code   RO          105    .ARM.Collect$$$$0000000D  mc_p.l(entry10a.o)
    0x07fc0520   0x07fc0520   0x00000000   Code   RO          107    .ARM.Collect$$$$0000000F  mc_p.l(entry11a.o)
    0x07fc0520   0x07fc0520   0x00000004   Code   RO           96    .ARM.Collect$$$$00002712  mc_p.l(entry2.o)
    0x07fc0524   0x07fc0524   0x00000050   Code   RO            6    .text               startup_da14585_586.o
    0x07fc0574   0x07fc0574   0x00001544   Code   RO           85    .text               da14585_586.lib(patch.o)
    0x07fc1ab8   0x07fc1ab8   0x00000114   Code   RO           90    .text               da14585_586.lib(rf_calibration.o)
    0x07fc1bcc   0x07fc1bcc   0x000000e8   Code   RO           92    .text               da14585_586.lib(smpc_util.o)
    0x07fc1cb4   0x07fc1cb4   0x00000024   Code   RO          109    .text               mc_p.l(init.o)
    0x07fc1cd8   0x07fc1cd8   0x0000000c   Code   RO          168    .text.ADC_Handler   lto-llvm-0469b9.o
    0x07fc1ce4   0x07fc1ce4   0x00000420   Code   RO          176    .text.BLE_WAKEUP_LP_Handler  lto-llvm-0469b9.o
    0x07fc2104   0x07fc2104   0x00000014   Code   RO          154    .text.GPIO0_Handler  lto-llvm-0469b9.o
    0x07fc2118   0x07fc2118   0x00000014   Code   RO          156    .text.GPIO1_Handler  lto-llvm-0469b9.o
    0x07fc212c   0x07fc212c   0x00000014   Code   RO          158    .text.GPIO2_Handler  lto-llvm-0469b9.o
    0x07fc2140   0x07fc2140   0x00000014   Code   RO          160    .text.GPIO3_Handler  lto-llvm-0469b9.o
    0x07fc2154   0x07fc2154   0x00000018   Code   RO          162    .text.GPIO4_Handler  lto-llvm-0469b9.o
    0x07fc216c   0x07fc216c   0x0000005c   Code   RO          114    .text.HardFault_HandlerC  lto-llvm-0469b9.o
    0x07fc21c8   0x07fc21c8   0x00000010   Code   RO          170    .text.I2C_Handler   lto-llvm-0469b9.o
    0x07fc21d8   0x07fc21d8   0x000000a4   Code   RO          116    .text.NMI_HandlerC  lto-llvm-0469b9.o
    0x07fc227c   0x07fc227c   0x00000002   Code   RO          192    .text.RADIOCNTL_Handler  lto-llvm-0469b9.o
    0x07fc227e   0x07fc227e   0x00000002   PAD
    0x07fc2280   0x07fc2280   0x000000c0   Code   RO          172    .text.UART2_Handler  lto-llvm-0469b9.o
    0x07fc2340   0x07fc2340   0x00000074   Code   RO          164    .text.WKUP_QUADEC_Handler  lto-llvm-0469b9.o
    0x07fc23b4   0x07fc23b4   0x00000284   Code   RO          358    .text.adc_get_raw_sample  lto-llvm-0469b9.o
    0x07fc2638   0x07fc2638   0x00000064   Code   RO          166    .text.adc_get_sample  lto-llvm-0469b9.o
    0x07fc269c   0x07fc269c   0x00000098   Code   RO          344    .text.app_custs1_create_db  lto-llvm-0469b9.o
    0x07fc2734   0x07fc2734   0x00000138   Code   RO          288    .text.app_db_init_next  lto-llvm-0469b9.o
    0x07fc286c   0x07fc286c   0x000000a0   Code   RO          332    .text.app_diss_create_db  lto-llvm-0469b9.o
    0x07fc290c   0x07fc290c   0x000000f0   Code   RO          342    .text.app_easy_timer  lto-llvm-0469b9.o
    0x07fc29fc   0x07fc29fc   0x00000390   Code   RO          336    .text.app_entry_point_handler  lto-llvm-0469b9.o
    0x07fc2d8c   0x07fc2d8c   0x00000146   Code   RO          346    .text.app_fill_random_byte_array  lto-llvm-0469b9.o
    0x07fc2ed2   0x07fc2ed2   0x00000002   PAD
    0x07fc2ed4   0x07fc2ed4   0x000000cc   Code   RO          366    .text.app_hogpd_create_db  lto-llvm-0469b9.o
    0x07fc2fa0   0x07fc2fa0   0x00000030   Code   RO          364    .text.app_hogpd_enable  lto-llvm-0469b9.o
    0x07fc2fd0   0x07fc2fd0   0x00000808   Code   RO          118    .text.arch_printf   lto-llvm-0469b9.o
    0x07fc37d8   0x07fc37d8   0x000000c8   Code   RO          144    .text.ba431_get_rand_func  lto-llvm-0469b9.o
    0x07fc38a0   0x07fc38a0   0x00000002   Code   RO          138    .text.crypto_init_func  lto-llvm-0469b9.o
    0x07fc38a2   0x07fc38a2   0x00000002   PAD
    0x07fc38a4   0x07fc38a4   0x00000044   Code   RO          238    .text.custs1_att_info_rsp_handler  lto-llvm-0469b9.o
    0x07fc38e8   0x07fc38e8   0x0000002c   Code   RO          222    .text.custs1_cleanup  lto-llvm-0469b9.o
    0x07fc3914   0x07fc3914   0x00000014   Code   RO          220    .text.custs1_create  lto-llvm-0469b9.o
    0x07fc3928   0x07fc3928   0x0000002c   Code   RO          218    .text.custs1_destroy  lto-llvm-0469b9.o
    0x07fc3954   0x07fc3954   0x0000020c   Code   RO          242    .text.custs1_exe_operation  lto-llvm-0469b9.o
    0x07fc3b60   0x07fc3b60   0x0000039c   Code   RO          216    .text.custs1_init   lto-llvm-0469b9.o
    0x07fc3efc   0x07fc3efc   0x000000f6   Code   RO          244    .text.custs1_set_ccc_value  lto-llvm-0469b9.o
    0x07fc3ff2   0x07fc3ff2   0x00000002   PAD
    0x07fc3ff4   0x07fc3ff4   0x000000f0   Code   RO          236    .text.custs1_val_ind_req_handler  lto-llvm-0469b9.o
    0x07fc40e4   0x07fc40e4   0x000000f4   Code   RO          232    .text.custs1_val_ntf_req_handler  lto-llvm-0469b9.o
    0x07fc41d8   0x07fc41d8   0x00000022   Code   RO          234    .text.custs1_val_set_req_handler  lto-llvm-0469b9.o
    0x07fc41fa   0x07fc41fa   0x00000002   PAD
    0x07fc41fc   0x07fc41fc   0x00000098   Code   RO          240    .text.custs1_value_req_rsp_handler  lto-llvm-0469b9.o
    0x07fc4294   0x07fc4294   0x00000002   Code   RO          134    .text.dbg_init_func_empty  lto-llvm-0469b9.o
    0x07fc4296   0x07fc4296   0x00000002   Code   RO          136    .text.dbg_platform_reset_complete_func_empty  lto-llvm-0469b9.o
    0x07fc4298   0x07fc4298   0x00000008   Code   RO          140    .text.dia_rand_func  lto-llvm-0469b9.o
    0x07fc42a0   0x07fc42a0   0x00000008   Code   RO          142    .text.dia_srand_func  lto-llvm-0469b9.o
    0x07fc42a8   0x07fc42a8   0x00000002   Code   RO          206    .text.diss_cleanup  lto-llvm-0469b9.o
    0x07fc42aa   0x07fc42aa   0x00000002   Code   RO          204    .text.diss_create   lto-llvm-0469b9.o
    0x07fc42ac   0x07fc42ac   0x0000002a   Code   RO          202    .text.diss_destroy  lto-llvm-0469b9.o
    0x07fc42d6   0x07fc42d6   0x00000002   PAD
    0x07fc42d8   0x07fc42d8   0x00000104   Code   RO          200    .text.diss_init     lto-llvm-0469b9.o
    0x07fc43dc   0x07fc43dc   0x000000e8   Code   RO          210    .text.diss_set_value_req_handler  lto-llvm-0469b9.o
    0x07fc44c4   0x07fc44c4   0x00000088   Code   RO          214    .text.diss_value_cfm_handler  lto-llvm-0469b9.o
    0x07fc454c   0x07fc454c   0x000000c8   Code   RO          334    .text.diss_value_req_ind_handler  lto-llvm-0469b9.o
    0x07fc4614   0x07fc4614   0x00000066   Code   RO          208    .text.diss_value_to_handle  lto-llvm-0469b9.o
    0x07fc467a   0x07fc467a   0x00000002   PAD
    0x07fc467c   0x07fc467c   0x000000f4   Code   RO          320    .text.gapc_bond_ind_handler  lto-llvm-0469b9.o
    0x07fc4770   0x07fc4770   0x0000029c   Code   RO          318    .text.gapc_bond_req_ind_handler  lto-llvm-0469b9.o
    0x07fc4a0c   0x07fc4a0c   0x00000018   Code   RO          294    .text.gapc_cmp_evt_handler  lto-llvm-0469b9.o
    0x07fc4a24   0x07fc4a24   0x00000220   Code   RO          296    .text.gapc_connection_req_ind_handler  lto-llvm-0469b9.o
    0x07fc4c44   0x07fc4c44   0x00000100   Code   RO          298    .text.gapc_disconnect_ind_handler  lto-llvm-0469b9.o
    0x07fc4d44   0x07fc4d44   0x00000018   Code   RO          324    .text.gapc_encrypt_ind_handler  lto-llvm-0469b9.o
    0x07fc4d5c   0x07fc4d5c   0x0000006c   Code   RO          322    .text.gapc_encrypt_req_ind_handler  lto-llvm-0469b9.o
    0x07fc4dc8   0x07fc4dc8   0x00000098   Code   RO          300    .text.gapc_get_dev_info_req_ind_handler  lto-llvm-0469b9.o
    0x07fc4e60   0x07fc4e60   0x00000004   Code   RO          310    .text.gapc_le_pkt_size_ind_handler  lto-llvm-0469b9.o
    0x07fc4e64   0x07fc4e64   0x00000020   Code   RO          308    .text.gapc_param_update_req_ind_handler  lto-llvm-0469b9.o
    0x07fc4e84   0x07fc4e84   0x00000004   Code   RO          314    .text.gapc_peer_features_ind_handler  lto-llvm-0469b9.o
    0x07fc4e88   0x07fc4e88   0x00000004   Code   RO          316    .text.gapc_security_ind_handler  lto-llvm-0469b9.o
    0x07fc4e8c   0x07fc4e8c   0x0000005c   Code   RO          302    .text.gapc_set_dev_info_req_ind_handler  lto-llvm-0469b9.o
    0x07fc4ee8   0x07fc4ee8   0x00000004   Code   RO          326    .text.gapm_addr_solved_ind_handler  lto-llvm-0469b9.o
    0x07fc4eec   0x07fc4eec   0x00000004   Code   RO          306    .text.gapm_adv_report_ind_handler  lto-llvm-0469b9.o
    0x07fc4ef0   0x07fc4ef0   0x000001c0   Code   RO          292    .text.gapm_cmp_evt_handler  lto-llvm-0469b9.o
    0x07fc50b0   0x07fc50b0   0x00000030   Code   RO          290    .text.gapm_device_ready_ind_handler  lto-llvm-0469b9.o
    0x07fc50e0   0x07fc50e0   0x000000ec   Code   RO          304    .text.gapm_profile_added_ind_handler  lto-llvm-0469b9.o
    0x07fc51cc   0x07fc51cc   0x00000004   Code   RO          330    .text.gapm_ral_addr_ind_handler  lto-llvm-0469b9.o
    0x07fc51d0   0x07fc51d0   0x00000004   Code   RO          328    .text.gapm_ral_size_ind_handler  lto-llvm-0469b9.o
    0x07fc51d4   0x07fc51d4   0x00000048   Code   RO          228    .text.gattc_att_info_req_ind_handler  lto-llvm-0469b9.o
    0x07fc521c   0x07fc521c   0x00000070   Code   RO          280    .text.gattc_att_info_req_ind_handler.94  lto-llvm-0469b9.o
    0x07fc528c   0x07fc528c   0x00000014   Code   RO          230    .text.gattc_cmp_evt_handler  lto-llvm-0469b9.o
    0x07fc52a0   0x07fc52a0   0x00000054   Code   RO          286    .text.gattc_cmp_evt_handler.97  lto-llvm-0469b9.o
    0x07fc52f4   0x07fc52f4   0x00000194   Code   RO          212    .text.gattc_read_req_ind_handler  lto-llvm-0469b9.o
    0x07fc5488   0x07fc5488   0x00000144   Code   RO          224    .text.gattc_read_req_ind_handler.67  lto-llvm-0469b9.o
    0x07fc55cc   0x07fc55cc   0x000001b8   Code   RO          284    .text.gattc_read_req_ind_handler.96  lto-llvm-0469b9.o
    0x07fc5784   0x07fc5784   0x00000004   Code   RO          312    .text.gattc_svc_changed_cfg_ind_handler  lto-llvm-0469b9.o
    0x07fc5788   0x07fc5788   0x000001bc   Code   RO          226    .text.gattc_write_req_ind_handler  lto-llvm-0469b9.o
    0x07fc5944   0x07fc5944   0x00000268   Code   RO          282    .text.gattc_write_req_ind_handler.95  lto-llvm-0469b9.o
    0x07fc5bac   0x07fc5bac   0x0000006a   Code   RO          266    .text.hogpd_cleanup  lto-llvm-0469b9.o
    0x07fc5c16   0x07fc5c16   0x00000002   Code   RO          264    .text.hogpd_create  lto-llvm-0469b9.o
    0x07fc5c18   0x07fc5c18   0x00000010   Code   RO          262    .text.hogpd_destroy  lto-llvm-0469b9.o
    0x07fc5c28   0x07fc5c28   0x00000124   Code   RO          272    .text.hogpd_enable_req_handler  lto-llvm-0469b9.o
    0x07fc5d4c   0x07fc5d4c   0x000001e2   Code   RO          268    .text.hogpd_get_att_handle  lto-llvm-0469b9.o
    0x07fc5f2e   0x07fc5f2e   0x000001ac   Code   RO          270    .text.hogpd_get_att_idx  lto-llvm-0469b9.o
    0x07fc60da   0x07fc60da   0x00000002   PAD
    0x07fc60dc   0x07fc60dc   0x00000708   Code   RO          260    .text.hogpd_init    lto-llvm-0469b9.o
    0x07fc67e4   0x07fc67e4   0x000000cc   Code   RO          278    .text.hogpd_proto_mode_cfm_handler  lto-llvm-0469b9.o
    0x07fc68b0   0x07fc68b0   0x00000108   Code   RO          276    .text.hogpd_report_cfm_handler  lto-llvm-0469b9.o
    0x07fc69b8   0x07fc69b8   0x0000018c   Code   RO          274    .text.hogpd_report_upd_req_handler  lto-llvm-0469b9.o
    0x07fc6b44   0x07fc6b44   0x00000088   Code   RO          174    .text.lld_sleep_compensate_func  lto-llvm-0469b9.o
    0x07fc6bcc   0x07fc6bcc   0x00000050   Code   RO          152    .text.lld_sleep_init_func  lto-llvm-0469b9.o
    0x07fc6c1c   0x07fc6c1c   0x00000008   Code   RO          150    .text.lld_sleep_lpcycles_2_us_sel_func  lto-llvm-0469b9.o
    0x07fc6c24   0x07fc6c24   0x00000008   Code   RO          148    .text.lld_sleep_us_2_lpcycles_sel_func  lto-llvm-0469b9.o
    0x07fc6c2c   0x07fc6c2c   0x000014a4   Code   RO          130    .text.main          lto-llvm-0469b9.o
    0x07fc80d0   0x07fc80d0   0x00000004   Code   RO          126    .text.nvds_del_func  lto-llvm-0469b9.o
    0x07fc80d4   0x07fc80d4   0x000000e8   Code   RO          122    .text.nvds_get_func  lto-llvm-0469b9.o
    0x07fc81bc   0x07fc81bc   0x00000004   Code   RO          124    .text.nvds_init_func  lto-llvm-0469b9.o
    0x07fc81c0   0x07fc81c0   0x00000004   Code   RO          128    .text.nvds_put_func  lto-llvm-0469b9.o
    0x07fc81c4   0x07fc81c4   0x00000060   Code   RO          350    .text.param_update_request_timer_cb  lto-llvm-0469b9.o
    0x07fc8224   0x07fc8224   0x000002a0   Code   RO          348    .text.periph_init   lto-llvm-0469b9.o
    0x07fc84c4   0x07fc84c4   0x00000024   Code   RO          132    .text.platform_reset_func  lto-llvm-0469b9.o
    0x07fc84e8   0x07fc84e8   0x0000044c   Code   RO          248    .text.prf_add_profile_func  lto-llvm-0469b9.o
    0x07fc8934   0x07fc8934   0x00000038   Code   RO          252    .text.prf_cleanup_func  lto-llvm-0469b9.o
    0x07fc896c   0x07fc896c   0x00000044   Code   RO          250    .text.prf_create_func  lto-llvm-0469b9.o
    0x07fc89b0   0x07fc89b0   0x000001d0   Code   RO          254    .text.prf_env_get   lto-llvm-0469b9.o
    0x07fc8b80   0x07fc8b80   0x000001c4   Code   RO          256    .text.prf_get_id_from_task_func  lto-llvm-0469b9.o
    0x07fc8d44   0x07fc8d44   0x000001d8   Code   RO          258    .text.prf_get_task_from_id_func  lto-llvm-0469b9.o
    0x07fc8f1c   0x07fc8f1c   0x00000080   Code   RO          246    .text.prf_init_func  lto-llvm-0469b9.o
    0x07fc8f9c   0x07fc8f9c   0x00000002   Code   RO          194    .text.rf_force_agc_enable  lto-llvm-0469b9.o
    0x07fc8f9e   0x07fc8f9e   0x00000002   PAD
    0x07fc8fa0   0x07fc8fa0   0x000001bc   Code   RO          180    .text.rf_init_func  lto-llvm-0469b9.o
    0x07fc915c   0x07fc915c   0x00000004   Code   RO          182    .text.rf_reg_rd     lto-llvm-0469b9.o
    0x07fc9160   0x07fc9160   0x00000002   Code   RO          184    .text.rf_reg_wr     lto-llvm-0469b9.o
    0x07fc9162   0x07fc9162   0x00000002   PAD
    0x07fc9164   0x07fc9164   0x00000098   Code   RO          198    .text.rf_reinit_func  lto-llvm-0469b9.o
    0x07fc91fc   0x07fc91fc   0x00000002   Code   RO          190    .text.rf_reset      lto-llvm-0469b9.o
    0x07fc91fe   0x07fc91fe   0x00000008   Code   RO          196    .text.rf_rssi_convert  lto-llvm-0469b9.o
    0x07fc9206   0x07fc9206   0x00000002   PAD
    0x07fc9208   0x07fc9208   0x00000010   Code   RO          188    .text.rf_sleep      lto-llvm-0469b9.o
    0x07fc9218   0x07fc9218   0x00000004   Code   RO          186    .text.rf_txpwr_dbm_get  lto-llvm-0469b9.o
    0x07fc921c   0x07fc921c   0x00000474   Code   RO          178    .text.rwble_isr     lto-llvm-0469b9.o
    0x07fc9690   0x07fc9690   0x00000002   Code   RO          146    .text.smpm_ecdh_key_create_empty_func  lto-llvm-0469b9.o
    0x07fc9692   0x07fc9692   0x00000002   Code   RO          338    .text.timer_canceled_handler  lto-llvm-0469b9.o
    0x07fc9694   0x07fc9694   0x00000002   Code   RO          340    .text.timer_modified_handler  lto-llvm-0469b9.o
    0x07fc9696   0x07fc9696   0x00000002   PAD
    0x07fc9698   0x07fc9698   0x0000013c   Code   RO          120    .text.uart_callback  lto-llvm-0469b9.o
    0x07fc97d4   0x07fc97d4   0x00000210   Code   RO          352    .text.user_catch_rest_hndl  lto-llvm-0469b9.o
    0x07fc99e4   0x07fc99e4   0x00000048   Code   RO          362    .text.user_gamepad_axis_polling_cb  lto-llvm-0469b9.o
    0x07fc9a2c   0x07fc9a2c   0x000000fc   Code   RO          356    .text.user_gamepad_button_cb  lto-llvm-0469b9.o
    0x07fc9b28   0x07fc9b28   0x0000023c   Code   RO          354    .text.user_gamepad_enable_buttons  lto-llvm-0469b9.o
    0x07fc9d64   0x07fc9d64   0x00000164   Code   RO          360    .text.user_gamepad_update_joystick  lto-llvm-0469b9.o
    0x07fc9ec8   0x07fc9ec8   0x0000000e   Code   RO          427    i.__scatterload_copy  mc_p.l(handlers.o)
    0x07fc9ed6   0x07fc9ed6   0x00000002   Code   RO          428    i.__scatterload_null  mc_p.l(handlers.o)
    0x07fc9ed8   0x07fc9ed8   0x0000000e   Code   RO          429    i.__scatterload_zeroinit  mc_p.l(handlers.o)
    0x07fc9ee6   0x07fc9ee6   0x00000002   PAD
    0x07fc9ee8   0x07fc9ee8   0x00000040   Code   RO          112    system_DA14xxx      lto-llvm-0469b9.o
    0x07fc9f28   0x07fc9f28   0x000000e0   Data   RO           86    .constdata          da14585_586.lib(patch.o)
    0x07fca008   0x07fca008   0x00000011   Data   RO          400    .rodata..L.str.1.111  lto-llvm-0469b9.o
    0x07fca019   0x07fca019   0x00000001   PAD
    0x07fca01a   0x07fca01a   0x00000016   Data   RO          395    .rodata..Lswitch.table.gattc_att_info_req_ind_handler  lto-llvm-0469b9.o
    0x07fca030   0x07fca030   0x00000010   Data   RO          410    .rodata.CUST1_SERVER_RX_UUID_128  lto-llvm-0469b9.o
    0x07fca040   0x07fca040   0x00000010   Data   RO          413    .rodata.CUST1_SERVER_TX_UUID_128  lto-llvm-0469b9.o
    0x07fca050   0x07fca050   0x00000010   Data   RO          399    .rodata.TASK_DESC_APP  lto-llvm-0469b9.o
    0x07fca060   0x07fca060   0x00000008   Data   RO          402    .rodata.app_default_handler  lto-llvm-0469b9.o
    0x07fca068   0x07fca068   0x00000008   Data   RO          401    .rodata.app_default_state  lto-llvm-0469b9.o
    0x07fca070   0x07fca070   0x00000070   Data   RO          403    .rodata.app_gap_process_handlers  lto-llvm-0469b9.o
    0x07fca0e0   0x07fca0e0   0x00000002   Data   RO          408    .rodata.att_decl_char  lto-llvm-0469b9.o
    0x07fca0e2   0x07fca0e2   0x00000002   Data   RO          406    .rodata.att_decl_svc  lto-llvm-0469b9.o
    0x07fca0e4   0x07fca0e4   0x00000002   Data   RO          414    .rodata.att_desc_cfg  lto-llvm-0469b9.o
    0x07fca0e6   0x07fca0e6   0x00000002   Data   RO          411    .rodata.att_desc_user_desc  lto-llvm-0469b9.o
    0x07fca0e8   0x07fca0e8   0x00000038   Data   RO          405    .rodata.cust_prf_funcs  lto-llvm-0469b9.o
    0x07fca120   0x07fca120   0x000000a0   Data   RO          415    .rodata.custs1_att_db  lto-llvm-0469b9.o
    0x07fca1c0   0x07fca1c0   0x00000008   Data   RO          390    .rodata.custs1_default_handler  lto-llvm-0469b9.o
    0x07fca1c8   0x07fca1c8   0x00000048   Data   RO          389    .rodata.custs1_default_state  lto-llvm-0469b9.o
    0x07fca210   0x07fca210   0x00000010   Data   RO          388    .rodata.custs1_itf  lto-llvm-0469b9.o
    0x07fca220   0x07fca220   0x00000010   Data   RO          407    .rodata.custs1_svc1  lto-llvm-0469b9.o
    0x07fca230   0x07fca230   0x000000e4   Data   RO          384    .rodata.diss_att_db  lto-llvm-0469b9.o
    0x07fca314   0x07fca314   0x00000008   Data   RO          387    .rodata.diss_default_handler  lto-llvm-0469b9.o
    0x07fca31c   0x07fca31c   0x00000018   Data   RO          386    .rodata.diss_default_state  lto-llvm-0469b9.o
    0x07fca334   0x07fca334   0x00000010   Data   RO          385    .rodata.diss_itf    lto-llvm-0469b9.o
    0x07fca344   0x07fca344   0x0000005a   Data   RO          378    .rodata.gap_cfg_user_var_struct  lto-llvm-0469b9.o
    0x07fca39e   0x07fca39e   0x00000002   PAD
    0x07fca3a0   0x07fca3a0   0x00000114   Data   RO          391    .rodata.hids_att_db  lto-llvm-0469b9.o
    0x07fca4b4   0x07fca4b4   0x00000008   Data   RO          394    .rodata.hogpd_default_handler  lto-llvm-0469b9.o
    0x07fca4bc   0x07fca4bc   0x00000040   Data   RO          393    .rodata.hogpd_default_state  lto-llvm-0469b9.o
    0x07fca4fc   0x07fca4fc   0x00000010   Data   RO          392    .rodata.hogpd_itf   lto-llvm-0469b9.o
    0x07fca50c   0x07fca50c   0x0000000e   Data   RO          371    .rodata.nvds_data_storage  lto-llvm-0469b9.o
    0x07fca51a   0x07fca51a   0x00000002   PAD
    0x07fca51c   0x07fca51c   0x00000018   Data   RO          396    .rodata.prf_funcs   lto-llvm-0469b9.o
    0x07fca534   0x07fca534   0x0000004b   Data   RO          417    .rodata.report_map  lto-llvm-0469b9.o
    0x07fca57f   0x07fca57f   0x00000001   PAD
    0x07fca580   0x07fca580   0x000000bc   Data   RO          380    .rodata.rom_cfg_table_var  lto-llvm-0469b9.o
    0x07fca63c   0x07fca63c   0x00000184   Data   RO          379    .rodata.rom_func_addr_table_var  lto-llvm-0469b9.o
    0x07fca7c0   0x07fca7c0   0x0000005c   Data   RO          370    .rodata.str1.1      lto-llvm-0469b9.o
    0x07fca81c   0x07fca81c   0x0000000c   Data   RO          398    .rodata.str1.4      lto-llvm-0469b9.o
    0x07fca828   0x07fca828   0x00000018   Data   RO          397    .rodata.user_prf_funcs  lto-llvm-0469b9.o
    0x07fca840   0x07fca840   0x00000007   Data   RO          404    .rodata.user_security_conf  lto-llvm-0469b9.o
    0x07fca847   0x07fca847   0x00000001   PAD
    0x07fca848   0x07fca848   0x00000030   Data   RO          426    Region$$Table       anon$$obj.o
    0x07fca878   0x07fca878   0x00000013   Data   RW          409    .data.custs1_server_rx_char  lto-llvm-0469b9.o
    0x07fca88b   0x07fca88b   0x00000013   Data   RW          412    .data.custs1_server_tx_char  lto-llvm-0469b9.o
    0x07fca89e   0x07fca89e   0x00000002   PAD
    0x07fca8a0   0x07fca8a0   0x00000004   Data   RW          377    .data.startup_sleep_delay  lto-llvm-0469b9.o


    Execution Region ER_PRODTEST (Exec base: 0x07fca8a8, Load base: 0x07fca8a4, Size: 0x00000000, Max: 0xffffffff, ABSOLUTE, UNINIT)

    **** No section assigned to this execution region ****


    Execution Region ER_ZI (Exec base: 0x07fca8a8, Load base: 0x07fca8a4, Size: 0x00000718, Max: 0xffffffff, ABSOLUTE)

    Exec Addr    Load Addr    Size         Type   Attr      Idx    E Section Name        Object

    0x07fca8a8        -       0x00000001   Zero   RW          383    .bss.cal_failed     lto-llvm-0469b9.o
    0x07fca8a9   0x07fca8a4   0x00000003   PAD
    0x07fca8ac        -       0x00000100   Zero   RW          369    .bss.current_msg_buffer  lto-llvm-0469b9.o
    0x07fca9ac        -       0x00000001   Zero   RW          416    .bss.hogpd_conidx   lto-llvm-0469b9.o
    0x07fca9ad   0x07fca8a4   0x00000003   PAD
    0x07fca9b0        -       0x00000010   Zero   RW          382    .bss.trng_bits      lto-llvm-0469b9.o
    0x07fca9c0        -       0x00000600   Zero   RW            3    STACK               startup_da14585_586.o


    Execution Region ER_NZI (Exec base: 0x07fcafc0, Load base: 0x07fca8a4, Size: 0x0000040c, Max: 0xffffffff, ABSOLUTE, UNINIT)

    Exec Addr    Load Addr    Size         Type   Attr      Idx    E Section Name        Object

    0x07fcafc0        -       0x0000040c   Zero   RW          373    .bss.heap_mem_area_not_ret  lto-llvm-0469b9.o



  Load Region LR_RETAINED_RAM0 (Base: 0x07fd2a98, Size: 0x00000000, Max: 0x0000316c, ABSOLUTE)

    Execution Region RET_DATA_UNINIT (Exec base: 0x07fd2a98, Load base: 0x07fd2a98, Size: 0x00000000, Max: 0x00000000, ABSOLUTE, UNINIT)

    **** No section assigned to this execution region ****


    Execution Region RET_DATA (Exec base: 0x07fd2a98, Load base: 0x07fd2a98, Size: 0x00000610, Max: 0x00000800, ABSOLUTE)

    Exec Addr    Load Addr    Size         Type   Attr      Idx    E Section Name        Object

    0x07fd2a98        -       0x0000060d   Zero   RW          368    .bss.retention_mem_area0  lto-llvm-0469b9.o


    Execution Region RET_HEAP (Exec base: 0x07fd30a8, Load base: 0x07fd2a98, Size: 0x0000296c, Max: 0x0000296c, ABSOLUTE, UNINIT)

    Exec Addr    Load Addr    Size         Type   Attr      Idx    E Section Name        Object

    0x07fd30a8        -       0x0000080c   Zero   RW          375    .bss.heap_db_area   lto-llvm-0469b9.o
    0x07fd38b4        -       0x00000274   Zero   RW          374    .bss.heap_env_area  lto-llvm-0469b9.o
    0x07fd3b28        -       0x00001eec   Zero   RW          376    .bss.heap_msg_area  lto-llvm-0469b9.o



  Load Region LR_FREE_AREA (Base: 0x07fd7278, Size: 0x00000000, Max: 0x00000388, ABSOLUTE)

    Execution Region ER_FREE_AREA (Exec base: 0x07fd7278, Load base: 0x07fd7278, Size: 0x00000000, Max: 0x00000388, ABSOLUTE)

    **** No section assigned to this execution region ****


==============================================================================

Image component sizes


      Code (inc. data)   RO Data    RW Data    ZI Data      Debug   Object Name

     33304       2688       2105         42      14487     273161   lto-llvm-0469b9.o
        80         16        160          0       1536        808   startup_da14585_586.o

    ----------------------------------------------------------------------
     33408       2704       2320         44      16112     273969   Object Totals
         0          0         48          0         80          0   (incl. Generated)
        24          0          7          2          9          0   (incl. Padding)

    ----------------------------------------------------------------------

      Code (inc. data)   RO Data    RW Data    ZI Data      Debug   Library Member Name

      5444        230        224          0          0       1008   patch.o
       276         26          0          0          0        172   rf_calibration.o
       232         14          0          0          0        112   smpc_util.o
         0          0          0          0          0          0   entry.o
         0          0          0          0          0          0   entry10a.o
         0          0          0          0          0          0   entry11a.o
         8          4          0          0          0          0   entry2.o
         4          0          0          0          0          0   entry5.o
         0          0          0          0          0          0   entry7b.o
         0          0          0          0          0          0   entry8b.o
         8          4          0          0          0          0   entry9a.o
        30          0          0          0          0          0   handlers.o
        36          8          0          0          0         68   init.o

    ----------------------------------------------------------------------
      6040        286        224          0          0       1360   Library Totals
         2          0          0          0          0          0   (incl. Padding)

    ----------------------------------------------------------------------

      Code (inc. data)   RO Data    RW Data    ZI Data      Debug   Library Name

      5952        270        224          0          0       1292   da14585_586.lib
        86         16          0          0          0         68   mc_p.l

    ----------------------------------------------------------------------
      6040        286        224          0          0       1360   Library Totals

    ----------------------------------------------------------------------

==============================================================================


      Code (inc. data)   RO Data    RW Data    ZI Data      Debug   

     39448       2990       2544         44      16112     275349   Grand Totals
     39448       2990       2544         44      16112     275349   ELF Image Totals
     39448       2990       2544         44          0          0   ROM Totals

==============================================================================

    Total RO  Size (Code + RO Data)                41992 (  41.01kB)
    Total RW  Size (RW Data + ZI Data)             16156 (  15.78kB)
    Total ROM Size (Code + RO Data + RW Data)      42036 (  41.05kB)

==============================================================================

