Component: ARM Compiler 5.06 update 6 (build 750) Tool: armlink [4d35ed]

==============================================================================

Section Cross References

    system_da14531.o(.text) refers to system_da14531.o(.data) for .data
    system_da14531.o(.text) refers to otp_cs.o(otp_cs_booter) for booter_val
    startup_da14531.o(RESET) refers to startup_da14531.o(STACK) for __initial_sp
    startup_da14531.o(RESET) refers to startup_da14531.o(.text) for Reset_Handler
    startup_da14531.o(RESET) refers to systick.o(.text) for SysTick_Handler
    startup_da14531.o(RESET) refers to rwble.o(.text) for BLE_WAKEUP_LP_Handler
    startup_da14531.o(RESET) refers to uart.o(.text) for UART2_Handler
    startup_da14531.o(RESET) refers to i2c.o(.text) for I2C_Handler
    startup_da14531.o(RESET) refers to adc_531.o(.text) for ADC_Handler
    startup_da14531.o(RESET) refers to gpio.o(.text) for GPIO0_Handler
    startup_da14531.o(RESET) refers to wkupct_quadec.o(.text) for WKUP_QUADEC_Handler
    startup_da14531.o(.text) refers to system_da14531.o(.text) for SystemInit
    startup_da14531.o(.text) refers to entry.o(.ARM.Collect$$$$00000000) for __main
    startup_da14531.o(.text) refers to nmi_handler.o(.text) for NMI_HandlerC
    startup_da14531.o(.text) refers to hardfault_handler.o(.text) for HardFault_HandlerC
    hardfault_handler.o(.text) refers to syscntl.o(.text) for syscntl_dcdc_set_level
    nmi_handler.o(.text) refers to syscntl.o(.text) for syscntl_dcdc_set_level
    arch_console.o(.text) refers to uart.o(.text) for uart_register_tx_cb
    arch_console.o(.constdata) refers to arch_console.o(.bss) for current_msg_buffer
    arch_console.o(.constdata) refers to arch_console.o(retention_mem_area0) for current_msg_offset
    arch_console.o(.constdata) refers to arch_console.o(retention_mem_area0) for uart_busy
    arch_console.o(.constdata) refers to arch_console.o(retention_mem_area0) for printf_msg_list
    arch_console.o(.constdata) refers to arch_console.o(retention_mem_area0) for defer_sending
    arch_console.o(.constdata) refers to arch_console.o(.text) for uart_write_adapt
    arch_console.o(.constdata) refers to arch_sleep.o(.text) for arch_restore_sleep_mode
    nvds.o(.constdata) refers to nvds.o(.constdata) for nvds_data_storage
    nvds.o(.constdata) refers to arch_system.o(retention_mem_area0) for dev_bdaddr
    arch_main.o(.text) refers to arch_system.o(.text) for system_init
    arch_main.o(.text) refers to user_lis2dh_app.o(.text) for user_main_hook
    arch_main.o(.text) refers to rwip.o(.text) for rwip_sleep
    arch_main.o(.text) refers to arch_sleep.o(.text) for arch_get_sleep_mode
    arch_main.o(.text) refers to user_periph_setup.o(.text) for periph_init
    arch_main.o(.text) refers to hw_otpc_531.o(.text) for hw_otpc_init
    arch_main.o(.text) refers (Weak) to hw_otpc_531.o(.text) for hw_otpc_clear_dcdc_reserved
    arch_main.o(.text) refers to syscntl.o(.text) for syscntl_dcdc_set_level
    arch_main.o(.text) refers to rwble.o(retention_mem_area0) for arch_rwble_last_event
    arch_main.o(.text) refers to otp_cs.o(otp_cs_booter) for booter_val
    arch_main.o(.text) refers to arch_main.o(retention_mem_area0) for retention_mem_area0
    arch_main.o(.constdata) refers to app_default_handlers.o(.text) for default_app_on_init
    arch_main.o(.constdata) refers to user_lis2dh_app.o(.text) for user_main_hook
    jump_table.o(.constdata) refers to ble_arp.o(.text) for rf_init_func
    jump_table.o(.constdata) refers to jump_table.o(.text) for platform_reset_func
    jump_table.o(.constdata) refers to rwble.o(.text) for lld_sleep_compensate_func
    jump_table.o(.constdata) refers to arch_system.o(.text) for lld_sleep_init_func
    jump_table.o(.constdata) refers to patch.o(.text) for JT_lld_test_mode_rx_func
    jump_table.o(.constdata) refers to prf.o(.text) for prf_init_func
    jump_table.o(.constdata) refers to jump_table.o(heap_mem_area_not_ret) for rwip_heap_non_ret
    jump_table.o(.constdata) refers to jump_table.o(heap_env_area) for rwip_heap_env_ret
    jump_table.o(.constdata) refers to jump_table.o(heap_db_area) for rwip_heap_db_ret
    jump_table.o(.constdata) refers to jump_table.o(heap_msg_area) for rwip_heap_msg_ret
    jump_table.o(.constdata) refers to nvds.o(.constdata) for rom_nvds_cfg
    jump_table.o(.constdata) refers to custs1.o(.constdata) for rom_cust_prf_cfg
    jump_table.o(.constdata) refers to prf.o(.constdata) for rom_prf_cfg
    jump_table.o(.constdata) refers to app_entry_point.o(.constdata) for rom_app_task_cfg
    jump_table.o(.constdata) refers to arch_console.o(.constdata) for rom_console_cfg
    arch_sleep.o(.text) refers to arch_sleep.o(retention_mem_area0) for retention_mem_area0
    arch_sleep.o(.text) refers to arch_sleep.o(retention_mem_area0) for retention_mem_area0
    arch_sleep.o(.text) refers to arch_sleep.o(retention_mem_area0) for retention_mem_area0
    arch_sleep.o(.text) refers to rwble.o(retention_mem_area0) for arch_rwble_last_event
    arch_system.o(.text) refers to arch_system.o(i.__ARM_common_ll_muluu) for __ARM_common_ll_muluu
    arch_system.o(.text) refers to otp_cs.o(.text) for otp_cs_get_xtal_wait_trim
    arch_system.o(.text) refers to adc_531.o(.text) for adc_init
    arch_system.o(.text) refers to ble_arp.o(.text) for rf_recalibration
    arch_system.o(.text) refers to gpio.o(.text) for GPIO_init
    arch_system.o(.text) refers to hw_otpc_531.o(.text) for hw_otpc_init
    arch_system.o(.text) refers to otp_hdr.o(.text) for otp_hdr_get_bd_address
    arch_system.o(.text) refers to arch_system.o(retention_mem_area0) for retention_mem_area0
    arch_system.o(.text) refers to arch_system.o(.bss) for .bss
    arch_system.o(.text) refers to arch_system.o(.constdata) for .constdata
    arch_system.o(.text) refers to arch_rom.o(.text) for arch_rom_init
    arch_system.o(.text) refers to user_periph_setup.o(.text) for periph_init
    arch_system.o(.text) refers to trng.o(.text) for init_rand_seed_from_trng
    arch_system.o(.text) refers to arch_sleep.o(.text) for arch_disable_sleep
    arch_system.o(.text) refers to app.o(.text) for app_init
    arch_system.o(.text) refers to app_default_handlers.o(.text) for default_app_on_init
    arch_system.o(.text) refers to arch_system.o(retention_mem_area0) for retention_mem_area0
    arch_system.o(.text) refers to arch_system.o(.data) for .data
    arch_system.o(.text) refers to arch_system.o(retention_mem_area0) for retention_mem_area0
    arch_system.o(.constdata) refers to app_default_handlers.o(.text) for default_app_on_init
    arch_system.o(.constdata) refers to user_lis2dh_app.o(.text) for user_main_hook
    arch_hibernation.o(.text) refers to arch_hibernation.o(.text) for set_ldo_ret_trim
    arch_hibernation.o(.text) refers to otp_cs.o(otp_cs_booter) for booter_val
    arch_hibernation.o(.text) refers to rwip.o(.text) for patched_ble_regs_push
    arch_hibernation.o(.text) refers to arch_hibernation.o(.text) for set_ldo_ret_trim
    arch_hibernation.o(.text) refers to arch_hibernation.o(retention_mem_area0) for retention_mem_area0
    arch_hibernation.o(.text) refers to otp_cs.o(otp_cs_booter) for booter_val
    arch_hibernation.o(.text) refers to arch_system.o(.text) for set_xtal32m_trim_value
    arch_hibernation.o(.text) refers to user_periph_setup.o(.text) for periph_init
    arch_hibernation.o(.text) refers to rwip.o(.text) for patched_ble_regs_pop
    arch_hibernation.o(.text) refers to otp_cs.o(otp_cs_booter) for booter_val
    arch_hibernation.o(.text) refers to arch_hibernation.o(retention_mem_area0) for retention_mem_area0
    arch_hibernation.o(.text) refers to arch_system.o(retention_mem_area0) for last_temp
    arch_rom.o(.text) refers to patch.o(.text) for patch_global_vars_init
    arch_rom.o(.text) refers to trng.o(trng_state) for trng_state_val
    arch_rom.o(.text) refers to arch_rom.o(.constdata) for .constdata
    arch_rom.o(.text) refers to arch_rom.o(retention_mem_area0) for retention_mem_area0
    arch_rom.o(.text) refers to jump_table.o(.constdata) for rom_func_addr_table_var
    arch_rom.o(.text) refers to jump_table.o(.constdata) for rom_cfg_table_var
    arch_rom.o(.constdata) refers to patch.o(.text) for PATCHED_llc_data_ind_handler
    otp_cs.o(.text) refers (Weak) to rf_531.o(.text) for rf_pa_pwr_get
    otp_cs.o(.text) refers (Weak) to rf_531.o(.text) for rf_pa_pwr_get
    otp_cs.o(.text) refers to otp_cs.o(retention_mem_area0) for retention_mem_area0
    otp_cs.o(.text) refers to otp_cs.o(otp_cs_booter) for otp_cs_booter
    otp_cs.o(.text) refers to otp_cs.o(.bss) for .bss
    otp_cs.o(.text) refers to otp_cs.o(retention_mem_area0) for retention_mem_area0
    otp_cs.o(.text) refers to otp_cs.o(retention_mem_area0) for retention_mem_area0
    otp_cs.o(.text) refers to otp_cs.o(retention_mem_area0) for retention_mem_area0
    otp_cs.o(.text) refers to otp_cs.o(retention_mem_area0) for retention_mem_area0
    otp_cs.o(.text) refers to otp_cs.o(retention_mem_area0) for retention_mem_area0
    otp_cs.o(.text) refers to otp_cs.o(retention_mem_area0) for retention_mem_area0
    otp_cs.o(.text) refers to otp_cs.o(retention_mem_area0) for retention_mem_area0
    syscntl.o(.text) refers (Weak) to hw_otpc_531.o(.text) for hw_otpc_is_dcdc_reserved
    syscntl.o(.text) refers to syscntl.o(.bss) for .bss
    syscntl.o(.text) refers (Weak) to hw_otpc_531.o(.text) for hw_otpc_is_dcdc_reserved
    syscntl.o(.text) refers to syscntl.o(.text) for dcdc_cfg
    gpio.o(.text) refers to user_periph_setup.o(.text) for GPIO_reservations
    gpio.o(.text) refers to gpio.o(retention_mem_area0) for retention_mem_area0
    gpio.o(.text) refers to gpio.o(.constdata) for .constdata
    gpio.o(.text) refers to gpio.o(retention_mem_area0) for retention_mem_area0
    gpio.o(.text) refers to gpio.o(retention_mem_area0) for retention_mem_area0
    gpio.o(.text) refers to gpio.o(.text) for gpioshift16
    gpio.o(.text) refers to gpio.o(retention_mem_area0) for retention_mem_area0
    gpio.o(.text) refers to gpio.o(.text) for gpioshift16
    gpio.o(.text) refers to gpio.o(retention_mem_area0) for retention_mem_area0
    wkupct_quadec.o(.text) refers to syscntl.o(.text) for syscntl_use_highest_amba_clocks
    wkupct_quadec.o(.text) refers to wkupct_quadec.o(retention_mem_area0) for retention_mem_area0
    wkupct_quadec.o(.text) refers to wkupct_quadec.o(.text) for __NVIC_SetPriority
    wkupct_quadec.o(.text) refers to wkupct_quadec.o(.text) for wkupct_quad_disable_IRQ
    wkupct_quadec.o(.text) refers to wkupct_quadec.o(.text) for wkupct_quad_disable_IRQ
    wkupct_quadec.o(.text) refers to wkupct_quadec.o(retention_mem_area0) for retention_mem_area0
    wkupct_quadec.o(.text) refers to wkupct_quadec.o(retention_mem_area0) for retention_mem_area0
    wkupct_quadec.o(.text) refers to wkupct_quadec.o(.text) for wkupct_quad_disable_IRQ
    wkupct_quadec.o(.text) refers to wkupct_quadec.o(.text) for quad_decoder_disable_irq
    wkupct_quadec.o(.text) refers to wkupct_quadec.o(.text) for __NVIC_SetPriority
    battery.o(.text) refers to adc_531.o(.text) for adc_offset_calibrate
    battery.o(.text) refers to adc_531.o(.text) for adc_init
    battery.o(.text) refers to adc_531.o(.text) for adc_get_sample
    battery.o(.text) refers to adc_531.o(.text) for adc_correct_sample
    battery.o(.text) refers to adc_531.o(.text) for adc_disable
    battery.o(.text) refers to adc_531.o(.text) for adc_input_shift_config
    battery.o(.text) refers to adc_531.o(.text) for adc_input_shift_disable
    battery.o(.text) refers to battery.o(.constdata) for .constdata
    battery.o(.text) refers to battery.o(.constdata) for .constdata
    battery.o(.text) refers to battery.o(.text) for battery_get_voltage
    battery.o(.text) refers to battery.o(.constdata) for .constdata
    battery.o(.constdata) refers to battery.o(.text) for batt_cal_volt_cr2032
    adc_531.o(.text) refers to otp_cs.o(.text) for otp_cs_get_adc_25_cal
    adc_531.o(.text) refers to adc_531.o(.bss) for .bss
    adc_531.o(.text) refers to adc_531.o(retention_mem_area0) for retention_mem_area0
    adc_531.o(.text) refers to adc_531.o(.text) for __NVIC_DisableIRQ
    adc_531.o(.text) refers to adc_531.o(.text) for adc_input_shift_enable
    adc_531.o(.text) refers to adc_531.o(retention_mem_area0) for retention_mem_area0
    adc_531.o(.text) refers to adc_531.o(.text) for __NVIC_DisableIRQ
    adc_531.o(.text) refers to adc_531.o(retention_mem_area0) for retention_mem_area0
    adc_531.o(.text) refers to adc_531.o(.text) for adc_start
    adc_531.o(.text) refers to adc_531.o(.text) for adc_init
    adc_531.o(.text) refers to adc_531.o(.text) for adc_get_sample
    adc_531.o(.text) refers to adc_531.o(.text) for adc_correction_apply
    adc_531.o(.text) refers to adc_531.o(.bss) for .bss
    adc_531.o(.text) refers to otp_cs.o(.text) for otp_cs_get_adc_offsh_ge
    adc_531.o(.text) refers to otp_cs.o(.text) for otp_cs_get_adc_offsh_offset
    adc_531.o(.text) refers to otp_cs.o(.text) for otp_cs_get_adc_single_ge
    adc_531.o(.text) refers to otp_cs.o(.text) for otp_cs_get_adc_single_offset
    adc_531.o(.text) refers to otp_cs.o(.text) for otp_cs_get_adc_diff_ge
    adc_531.o(.text) refers to otp_cs.o(.text) for otp_cs_get_adc_diff_offset
    trng.o(.text) refers to trng.o(trng_state) for trng_state
    trng.o(.text) refers to arch_system.o(.bss) for otp_hdr_timestamp
    trng.o(.text) refers to trng.o(.bss) for .bss
    spi_531.o(.text) refers to spi_531.o(retention_mem_area0) for retention_mem_area0
    spi_531.o(.text) refers to spi_531.o(retention_mem_area0) for retention_mem_area0
    spi_531.o(.text) refers to spi_531.o(retention_mem_area0) for retention_mem_area0
    spi_531.o(.text) refers to spi_531.o(retention_mem_area0) for retention_mem_area0
    spi_531.o(.text) refers to spi_531.o(retention_mem_area0) for retention_mem_area0
    spi_531.o(.text) refers to spi_531.o(retention_mem_area0) for retention_mem_area0
    spi_531.o(.text) refers to spi_531.o(retention_mem_area0) for retention_mem_area0
    spi_531.o(.text) refers to spi_531.o(.text) for spi_enable
    spi_531.o(.text) refers to spi_531.o(.text) for spi_set_bitmode
    spi_531.o(.text) refers to spi_531.o(.text) for spi_set_cp_mode
    spi_531.o(.text) refers to spi_531.o(.text) for spi_set_speed
    spi_531.o(.text) refers to spi_531.o(retention_mem_area0) for retention_mem_area0
    spi_531.o(.text) refers to spi_531.o(retention_mem_area0) for retention_mem_area0
    spi_531.o(.text) refers to spi_531.o(.text) for spi_master_send
    spi_531.o(.text) refers to spi_531.o(retention_mem_area0) for retention_mem_area0
    spi_531.o(.text) refers to spi_531.o(.text) for spi_master_receive
    spi_531.o(.text) refers to spi_531.o(retention_mem_area0) for retention_mem_area0
    spi_531.o(.text) refers to spi_531.o(.text) for spi_master_transfer
    spi_531.o(.text) refers to spi_531.o(retention_mem_area0) for retention_mem_area0
    spi_531.o(.text) refers to spi_531.o(retention_mem_area0) for retention_mem_area0
    spi_531.o(.text) refers to spi_531.o(.text) for spi_cs_low
    spi_531.o(.text) refers to spi_531.o(.text) for spi_access
    spi_531.o(.text) refers to spi_531.o(.text) for spi_cs_high
    spi_531.o(.text) refers to spi_531.o(retention_mem_area0) for retention_mem_area0
    spi_flash.o(.text) refers to spi_531.o(.text) for spi_set_bitmode
    spi_flash.o(.text) refers to spi_531.o(.text) for spi_transaction
    spi_flash.o(.text) refers to spi_flash.o(.text) for spi_flash_read_status_reg
    spi_flash.o(.text) refers to spi_flash.o(.text) for spi_flash_read_status_reg
    spi_flash.o(.text) refers to spi_flash.o(.bss) for .bss
    spi_flash.o(.text) refers to spi_531.o(.text) for spi_cs_low
    spi_flash.o(.text) refers to spi_531.o(.text) for spi_cs_high
    spi_flash.o(.text) refers to spi_531.o(.text) for spi_set_bitmode
    spi_flash.o(.text) refers to spi_531.o(.text) for spi_transaction
    spi_flash.o(.text) refers to spi_531.o(.text) for spi_initialize
    spi_flash.o(.text) refers to spi_flash.o(.text) for spi_flash_release_from_power_down
    spi_flash.o(.text) refers to spi_flash.o(.text) for spi_flash_configure_env
    spi_flash.o(.text) refers to spi_flash.o(.text) for spi_flash_is_busy
    spi_flash.o(.text) refers to spi_531.o(.text) for spi_set_bitmode
    spi_flash.o(.text) refers to spi_531.o(.text) for spi_cs_low
    spi_flash.o(.text) refers to spi_531.o(.text) for spi_access
    spi_flash.o(.text) refers to spi_531.o(.text) for spi_cs_high
    spi_flash.o(.text) refers to spi_flash.o(.text) for spi_flash_read_jedec_id
    spi_flash.o(.text) refers to spi_flash.o(.text) for spi_flash_configure_env
    spi_flash.o(.text) refers to spi_flash.o(.constdata) for .constdata
    spi_flash.o(.text) refers to spi_531.o(.text) for spi_initialize
    spi_flash.o(.text) refers to spi_flash.o(.text) for spi_flash_release_from_power_down
    spi_flash.o(.text) refers to spi_flash.o(.text) for spi_flash_auto_detect
    spi_flash.o(.text) refers to spi_flash.o(.text) for spi_flash_is_busy
    spi_flash.o(.text) refers to spi_531.o(.text) for spi_set_bitmode
    spi_flash.o(.text) refers to spi_531.o(.text) for spi_transaction
    spi_flash.o(.text) refers to spi_flash.o(.text) for spi_flash_is_busy
    spi_flash.o(.text) refers to spi_531.o(.text) for spi_set_bitmode
    spi_flash.o(.text) refers to spi_531.o(.text) for spi_transaction
    spi_flash.o(.text) refers to spi_flash.o(.text) for spi_flash_is_busy
    spi_flash.o(.text) refers to spi_531.o(.text) for spi_set_bitmode
    spi_flash.o(.text) refers to spi_531.o(.text) for spi_transaction
    spi_flash.o(.text) refers to spi_flash.o(.text) for spi_flash_wait_till_ready
    spi_flash.o(.text) refers to spi_flash.o(.text) for spi_flash_read_status_reg
    spi_flash.o(.text) refers to spi_flash.o(.text) for spi_flash_write_enable
    spi_flash.o(.text) refers to spi_flash.o(.text) for spi_flash_write_enable
    spi_flash.o(.text) refers to spi_flash.o(.text) for spi_flash_is_busy
    spi_flash.o(.text) refers to spi_531.o(.text) for spi_set_bitmode
    spi_flash.o(.text) refers to spi_531.o(.text) for spi_transaction
    spi_flash.o(.text) refers to spi_flash.o(.text) for spi_flash_wait_till_ready
    spi_flash.o(.text) refers to spi_flash.o(.text) for spi_flash_read_status_reg
    spi_flash.o(.text) refers to spi_flash.o(.text) for spi_flash_is_busy
    spi_flash.o(.text) refers to spi_531.o(.text) for spi_set_bitmode
    spi_flash.o(.text) refers to spi_531.o(.text) for spi_transaction
    spi_flash.o(.text) refers to spi_flash.o(.text) for spi_flash_wait_till_ready
    spi_flash.o(.text) refers to spi_531.o(.text) for spi_set_bitmode
    spi_flash.o(.text) refers to spi_531.o(.text) for spi_transaction
    spi_flash.o(.text) refers to spi_flash.o(.text) for spi_flash_set_write_enable
    spi_flash.o(.text) refers to spi_flash.o(.text) for spi_flash_wait_till_ready
    spi_flash.o(.text) refers to spi_531.o(.text) for spi_set_bitmode
    spi_flash.o(.text) refers to spi_531.o(.text) for spi_transaction
    spi_flash.o(.text) refers to spi_531.o(.text) for spi_set_bitmode
    spi_flash.o(.text) refers to spi_531.o(.text) for spi_transaction
    spi_flash.o(.text) refers to spi_flash.o(.text) for spi_flash_read_config_reg
    spi_flash.o(.text) refers to spi_flash.o(.text) for spi_flash_read_config_reg
    spi_flash.o(.text) refers to spi_flash.o(.text) for spi_flash_read_status_reg
    spi_flash.o(.text) refers to spi_flash.o(.text) for spi_flash_write_status_config_reg
    spi_flash.o(.text) refers to spi_flash.o(.text) for spi_flash_is_busy
    spi_flash.o(.text) refers to spi_531.o(.text) for spi_set_bitmode
    spi_flash.o(.text) refers to spi_531.o(.text) for spi_cs_low
    spi_flash.o(.text) refers to spi_531.o(.text) for spi_access
    spi_flash.o(.text) refers to spi_531.o(.text) for spi_cs_high
    spi_flash.o(.text) refers to spi_flash.o(.text) for spi_flash_is_busy
    spi_flash.o(.text) refers to spi_531.o(.text) for spi_set_bitmode
    spi_flash.o(.text) refers to spi_531.o(.text) for spi_cs_low
    spi_flash.o(.text) refers to spi_531.o(.text) for spi_access
    spi_flash.o(.text) refers to spi_531.o(.text) for spi_cs_high
    spi_flash.o(.text) refers to spi_flash.o(.text) for spi_flash_is_busy
    spi_flash.o(.text) refers to spi_flash.o(.text) for spi_flash_write_enable
    spi_flash.o(.text) refers to spi_531.o(.text) for spi_set_bitmode
    spi_flash.o(.text) refers to spi_531.o(.text) for spi_transaction
    spi_flash.o(.text) refers to spi_flash.o(.text) for spi_flash_wait_till_ready
    spi_flash.o(.text) refers to spi_flash.o(.text) for spi_flash_is_busy
    spi_flash.o(.text) refers to spi_flash.o(.text) for spi_flash_write_enable
    spi_flash.o(.text) refers to spi_531.o(.text) for spi_set_bitmode
    spi_flash.o(.text) refers to spi_531.o(.text) for spi_transaction
    spi_flash.o(.text) refers to spi_flash.o(.text) for spi_flash_wait_till_ready
    spi_flash.o(.text) refers to spi_flash.o(.text) for spi_flash_is_busy
    spi_flash.o(.text) refers to spi_flash.o(.text) for spi_flash_write_enable
    spi_flash.o(.text) refers to spi_531.o(.text) for spi_set_bitmode
    spi_flash.o(.text) refers to spi_531.o(.text) for spi_transaction
    spi_flash.o(.text) refers to spi_flash.o(.text) for spi_flash_is_busy
    spi_flash.o(.text) refers to spi_flash.o(.text) for spi_flash_write_enable
    spi_flash.o(.text) refers to spi_531.o(.text) for spi_set_bitmode
    spi_flash.o(.text) refers to spi_531.o(.text) for spi_transaction
    spi_flash.o(.text) refers to spi_flash.o(.text) for spi_flash_wait_till_ready
    spi_flash.o(.text) refers to spi_flash.o(.text) for spi_flash_is_busy
    spi_flash.o(.text) refers to spi_flash.o(.text) for spi_flash_chip_erase
    spi_flash.o(.text) refers to spi_flash.o(.text) for spi_flash_read_security_reg
    spi_flash.o(.text) refers to spi_flash.o(.text) for spi_flash_is_busy
    spi_flash.o(.text) refers to spi_flash.o(.text) for spi_flash_write_enable
    spi_flash.o(.text) refers to spi_531.o(.text) for spi_set_bitmode
    spi_flash.o(.text) refers to spi_531.o(.text) for spi_cs_low
    spi_flash.o(.text) refers to spi_531.o(.text) for spi_access
    spi_flash.o(.text) refers to spi_531.o(.text) for spi_cs_high
    spi_flash.o(.text) refers to spi_flash.o(.text) for spi_flash_wait_till_ready
    spi_flash.o(.text) refers to spi_flash.o(.text) for spi_flash_is_busy
    spi_flash.o(.text) refers to spi_flash.o(.text) for spi_flash_write_enable
    spi_flash.o(.text) refers to spi_531.o(.text) for spi_set_bitmode
    spi_flash.o(.text) refers to spi_531.o(.text) for spi_cs_low
    spi_flash.o(.text) refers to spi_531.o(.text) for spi_access
    spi_flash.o(.text) refers to spi_531.o(.text) for spi_send
    spi_flash.o(.text) refers to spi_531.o(.text) for spi_cs_high
    spi_flash.o(.text) refers to spi_flash.o(.text) for spi_flash_wait_till_ready
    spi_flash.o(.text) refers to spi_531.o(.text) for spi_set_bitmode
    spi_flash.o(.text) refers to spi_flash.o(.text) for spi_flash_page_program
    spi_flash.o(.text) refers to spi_flash.o(.bss) for .bss
    spi_flash.o(.text) refers to spi_531.o(.text) for spi_set_bitmode
    spi_flash.o(.text) refers to spi_flash.o(.text) for spi_flash_page_program_buffer
    spi_flash.o(.text) refers to spi_flash.o(.bss) for .bss
    spi_flash.o(.text) refers to spi_flash.o(.text) for spi_flash_is_busy
    spi_flash.o(.text) refers to spi_flash.o(.text) for spi_flash_write_enable
    spi_flash.o(.text) refers to spi_531.o(.text) for spi_set_bitmode
    spi_flash.o(.text) refers to spi_531.o(.text) for spi_cs_low
    spi_flash.o(.text) refers to spi_531.o(.text) for spi_access
    spi_flash.o(.text) refers to spi_531.o(.text) for spi_cs_high
    spi_flash.o(.text) refers to spi_flash.o(.text) for spi_flash_wait_till_ready
    spi_flash.o(.text) refers to spi_531.o(.text) for spi_set_bitmode
    spi_flash.o(.text) refers to spi_flash.o(.text) for spi_flash_page_fill
    spi_flash.o(.text) refers to spi_flash.o(.bss) for .bss
    spi_flash.o(.text) refers to spi_flash.o(.text) for spi_flash_read_security_reg
    spi_flash.o(.text) refers to spi_flash.o(.text) for spi_flash_is_busy
    spi_flash.o(.text) refers to spi_531.o(.text) for spi_set_bitmode
    spi_flash.o(.text) refers to spi_531.o(.text) for spi_cs_low
    spi_flash.o(.text) refers to spi_531.o(.text) for spi_access
    spi_flash.o(.text) refers to spi_531.o(.text) for spi_cs_high
    spi_flash.o(.text) refers to spi_flash.o(.bss) for .bss
    spi_flash.o(.text) refers to spi_flash.o(.text) for spi_flash_is_busy
    spi_flash.o(.text) refers to spi_531.o(.text) for spi_set_bitmode
    spi_flash.o(.text) refers to spi_531.o(.text) for spi_cs_low
    spi_flash.o(.text) refers to spi_531.o(.text) for spi_access
    spi_flash.o(.text) refers to spi_531.o(.text) for spi_receive
    spi_flash.o(.text) refers to spi_531.o(.text) for spi_cs_high
    spi_flash.o(.text) refers to spi_flash.o(.bss) for .bss
    spi_flash.o(.text) refers to spi_flash.o(.text) for spi_flash_read_data
    spi_flash.o(.text) refers to spi_flash.o(.text) for spi_flash_is_page_empty
    spi_flash.o(.text) refers to spi_flash.o(.text) for spi_flash_is_sector_empty
    spi_flash.o(.text) refers to spi_flash.o(.bss) for .bss
    i2c_eeprom.o(.text) refers to i2c_eeprom.o(retention_mem_area0) for retention_mem_area0
    i2c_eeprom.o(.text) refers to i2c_eeprom.o(retention_mem_area0) for retention_mem_area0
    i2c_eeprom.o(.text) refers to i2c.o(.text) for i2c_init
    i2c_eeprom.o(.text) refers to i2c_eeprom.o(retention_mem_area0) for retention_mem_area0
    i2c_eeprom.o(.text) refers to i2c.o(.text) for i2c_release
    i2c_eeprom.o(.text) refers to i2c.o(.text) for i2c_release
    i2c_eeprom.o(.text) refers to i2c_eeprom.o(retention_mem_area0) for retention_mem_area0
    i2c_eeprom.o(.text) refers to i2c_eeprom.o(.text) for i2c_write_last_byte
    i2c_eeprom.o(.text) refers to i2c_eeprom.o(retention_mem_area0) for retention_mem_area0
    i2c_eeprom.o(.text) refers to i2c_eeprom.o(.text) for i2c_wait_until_eeprom_ready
    i2c_eeprom.o(.text) refers to i2c_eeprom.o(.text) for i2c_eeprom_send_address
    i2c_eeprom.o(.text) refers to i2c_eeprom.o(.text) for i2c_write_last_byte
    i2c_eeprom.o(.text) refers to i2c_eeprom.o(.text) for i2c_eeprom_send_address
    i2c_eeprom.o(.text) refers to i2c_eeprom.o(.text) for i2c_write_last_byte
    i2c_eeprom.o(.text) refers to i2c_eeprom.o(.text) for i2c_wait_until_eeprom_ready
    i2c_eeprom.o(.text) refers to i2c_eeprom.o(.text) for read_data_single
    i2c_eeprom.o(.text) refers to i2c_eeprom.o(retention_mem_area0) for retention_mem_area0
    i2c_eeprom.o(.text) refers to i2c_eeprom.o(.text) for i2c_wait_until_eeprom_ready
    i2c_eeprom.o(.text) refers to i2c_eeprom.o(.text) for i2c_eeprom_send_address
    i2c_eeprom.o(.text) refers to i2c_eeprom.o(.text) for i2c_write_last_byte
    i2c_eeprom.o(.text) refers to i2c_eeprom.o(.text) for i2c_wait_until_eeprom_ready
    i2c_eeprom.o(.text) refers to i2c_eeprom.o(.text) for i2c_eeprom_send_address
    i2c_eeprom.o(.text) refers to i2c_eeprom.o(.text) for i2c_write_last_byte
    i2c_eeprom.o(.text) refers to i2c_eeprom.o(retention_mem_area0) for retention_mem_area0
    i2c_eeprom.o(.text) refers to i2c_eeprom.o(.text) for i2c_eeprom_write_page
    i2c_eeprom.o(.text) refers to i2c_eeprom.o(retention_mem_area0) for retention_mem_area0
    systick.o(.text) refers to systick.o(retention_mem_area0) for retention_mem_area0
    systick.o(.text) refers to systick.o(retention_mem_area0) for retention_mem_area0
    systick.o(.text) refers to systick.o(.text) for systick_start
    systick.o(.text) refers to systick.o(.text) for systick_stop
    uart.o(.text) refers to uart.o(retention_mem_area0) for retention_mem_area0
    uart.o(.text) refers to uart.o(retention_mem_area0) for retention_mem_area0
    uart.o(.text) refers to uart.o(retention_mem_area0) for retention_mem_area0
    uart.o(.text) refers to uart.o(.text) for uart_read_byte
    uart.o(.text) refers to uart.o(.text) for uart_read_buffer
    uart.o(.text) refers to uart.o(.text) for __NVIC_DisableIRQ
    uart.o(.text) refers to uart.o(retention_mem_area0) for retention_mem_area0
    uart.o(.text) refers to uart.o(.text) for uart_enable_flow_control
    hw_otpc_531.o(.text) refers to syscntl.o(.text) for syscntl_dcdc_get_level
    hw_otpc_531.o(.text) refers to hw_otpc_531.o(retention_mem_area0) for retention_mem_area0
    hw_otpc_531.o(.text) refers to hw_otpc_531.o(.constdata) for .constdata
    hw_otpc_531.o(.text) refers to syscntl.o(.bss) for syscntl_dcdc_state
    hw_otpc_531.o(.text) refers to hw_otpc_531.o(.text) for hw_otpc_enter_mode
    hw_otpc_531.o(.text) refers to hw_otpc_531.o(.text) for hw_otpc_enter_mode
    hw_otpc_531.o(.text) refers to hw_otpc_531.o(.text) for hw_otpc_enter_mode
    hw_otpc_531.o(.text) refers to hw_otpc_531.o(.text) for hw_otpc_enter_mode
    hw_otpc_531.o(.text) refers to hw_otpc_531.o(.text) for hw_otpc_prog
    hw_otpc_531.o(.text) refers to hw_otpc_531.o(.text) for hw_otpc_read_verif
    hw_otpc_531.o(.text) refers to hw_otpc_531.o(.text) for hw_otpc_enter_mode
    hw_otpc_531.o(.text) refers to hw_otpc_531.o(.text) for hw_otpc_enter_mode
    i2c.o(.text) refers to i2c.o(.bss) for .bss
    i2c.o(.text) refers to i2c.o(.text) for i2c_unregister_int
    i2c.o(.text) refers to i2c.o(.bss) for .bss
    i2c.o(.text) refers to i2c.o(.text) for tx_reply
    i2c.o(.text) refers to i2c.o(.bss) for .bss
    i2c.o(.text) refers to i2c.o(.text) for i2c_register_int
    i2c.o(.text) refers to i2c.o(.bss) for .bss
    i2c.o(.text) refers to i2c.o(.text) for intr_master_transmit_buffer_handler
    i2c.o(.text) refers to i2c.o(.text) for rx_reply
    i2c.o(.text) refers to i2c.o(.bss) for .bss
    i2c.o(.text) refers to i2c.o(.text) for i2c_register_int
    i2c.o(.text) refers to i2c.o(.bss) for .bss
    i2c.o(.text) refers to i2c.o(.text) for intr_slave_receive_buffer_handler
    i2c.o(.text) refers to i2c.o(.text) for tx_reply
    i2c.o(.text) refers to i2c.o(.bss) for .bss
    i2c.o(.text) refers to i2c.o(.text) for i2c_register_int
    i2c.o(.text) refers to i2c.o(.bss) for .bss
    i2c.o(.text) refers to i2c.o(.text) for intr_slave_transmit_buffer_handler
    rwble.o(.text) refers to arch_system.o(.text) for lld_sleep_lpcycles_2_us_sel_func
    rwble.o(.text) refers to syscntl.o(.text) for syscntl_use_highest_amba_clocks
    rwble.o(.text) refers to rwip.o(.text) for patched_ble_regs_pop
    rwble.o(.text) refers to patch.o(.text) for lld_drop_packet_fix
    rwble.o(.text) refers to rf_531.o(.text) for rf_adplldig_deactivate
    rwble.o(.text) refers to rwble.o(retention_mem_area0) for retention_mem_area0
    rwble.o(.text) refers to rwip.o(retention_mem_area0) for slp_period_retained
    rwble.o(.text) refers to rwip.o(retention_mem_area0) for sleep_lp_cycles
    rwble.o(.text) refers to arch_system.o(retention_mem_area0) for clk_freq_trim_reg_value
    rwip.o(.text) refers to arch_sleep.o(.text) for arch_ble_ext_wakeup_get
    rwip.o(.text) refers to arch_system.o(.text) for set_sleep_delay
    rwip.o(.text) refers to syscntl.o(.text) for syscntl_cfg_xtal32m_amp_reg
    rwip.o(.text) refers to rwip.o(retention_mem_area0) for retention_mem_area0
    rwip.o(.text) refers to arch_system.o(retention_mem_area0) for xtal_wait_trim
    rwip.o(.text) refers to arch_system.o(.bss) for twirq_reset_value
    rwip.o(.text) refers to rwip.o(.bss) for .bss
    rwip.o(.text) refers to rwble.o(retention_mem_area0) for ble_finetim_corr
    ble_arp.o(.text) refers (Weak) to rf_531.o(.text) for rf_pa_pwr_get
    ble_arp.o(.text) refers to syscntl.o(.text) for syscntl_cfg_xtal32m_amp_reg
    ble_arp.o(.text) refers to rf_531.o(.text) for rf_power_up
    ble_arp.o(.text) refers to otp_cs.o(.text) for otp_cs_load_pd_rad
    ble_arp.o(.text) refers to ble_arp.o(.constdata) for .constdata
    rf_531.o(.text) refers to rf_531.o(retention_mem_area0) for retention_mem_area0
    rf_531.o(.text) refers to rf_531.o(.data) for .data
    rf_531.o(.text) refers to rf_531.o(.bss) for .bss
    rf_531.o(.text) refers to rf_531.o(.text) for en_adpll_tx
    rf_531.o(.text) refers to rf_531.o(.bss) for .bss
    rf_531.o(.text) refers to rf_531.o(.bss) for .bss
    rf_531.o(.text) refers to rf_531.o(.bss) for .bss
    rf_531.o(.text) refers to rf_531.o(retention_mem_area0) for retention_mem_area0
    rf_531.o(.text) refers to rf_531.o(retention_mem_area0) for retention_mem_area0
    custs1.o(.constdata) refers to user_custs1_def.o(.constdata) for custs1_services
    custs1.o(.constdata) refers to user_custs1_def.o(.constdata) for custs1_services_size
    custs1.o(.constdata) refers to user_custs1_def.o(.constdata) for custs1_att_db
    custs1.o(.constdata) refers to app_customs.o(.text) for custs_get_func_callbacks
    custs1_task.o(.text) refers to app_customs.o(.text) for custs_get_func_callbacks
    custs1_task.o(.constdata) refers to custs1_task.o(.text) for gattc_write_req_ind_handler
    custs1_task.o(.constdata) refers to custs1_task.o(.constdata) for custs1_default_state
    prf.o(.text) refers to prf.o(retention_mem_area0) for retention_mem_area0
    prf.o(.text) refers to custs1_task.o(.constdata) for custs1_default_handler
    prf.o(.constdata) refers to prf.o(.constdata) for prf_if
    prf.o(.constdata) refers to prf.o(retention_mem_area0) for prf_env
    app_default_handlers.o(.text) refers to app.o(.text) for app_easy_gap_undirected_advertise_start
    app_default_handlers.o(.text) refers to app_diss.o(.text) for app_dis_init
    app_default_handlers.o(.text) refers to arch_sleep.o(.text) for arch_set_sleep_mode
    app_default_handlers.o(.text) refers to app.o(.text) for app_prf_enable
    app_default_handlers.o(.text) refers to app_easy_security.o(.text) for app_easy_security_send_pairing_rsp
    app_default_handlers.o(.text) refers to app_security.o(.text) for app_sec_gen_ltk
    app_default_handlers.o(.text) refers to app.o(retention_mem_area0) for app_env
    app_default_handlers.o(.text) refers to hw_otpc_531.o(.text) for hw_otpc_init
    app_default_handlers.o(.text) refers to otp_cs.o(.text) for otp_cs_get_adc_single_offset
    app_default_handlers.o(.text) refers to otp_cs.o(.text) for otp_cs_get_adc_single_ge
    app_default_handlers.o(.text) refers to otp_cs.o(.text) for otp_cs_get_adc_diff_offset
    app_default_handlers.o(.text) refers to otp_cs.o(.text) for otp_cs_get_adc_diff_ge
    app_default_handlers.o(.text) refers to hash.o(.text) for hash
    app_default_handlers.o(.text) refers to app_easy_security.o(.text) for app_easy_security_csrk_exch
    app_default_handlers.o(.text) refers to app_easy_security.o(.text) for app_easy_security_bdb_search_entry
    app_default_handlers.o(.text) refers to app_easy_security.o(.text) for app_easy_security_accept_encryption
    app_default_handlers.o(.text) refers to app_easy_security.o(.text) for app_easy_security_reject_encryption
    app_default_handlers.o(.text) refers to app_security.o(retention_mem_area0) for app_sec_env
    app_default_handlers.o(.text) refers to app_easy_security.o(.text) for app_easy_security_bdb_add_entry
    app_default_handlers.o(.text) refers to app_security.o(retention_mem_area0) for app_sec_env
    app_default_handlers.o(.text) refers to app_easy_security.o(.text) for app_easy_security_bdb_search_entry
    app_default_handlers.o(.text) refers to app_easy_security.o(.text) for app_easy_security_accept_encryption
    app_default_handlers.o(.text) refers to app_easy_security.o(.text) for app_easy_security_reject_encryption
    app_default_handlers.o(.text) refers to app_security.o(retention_mem_area0) for app_sec_env
    app_default_handlers.o(.text) refers to app_easy_security.o(.text) for app_easy_security_reject_encryption
    app_default_handlers.o(.constdata) refers to app_default_handlers.o(.text) for default_advertise_operation
    app.o(.text) refers to app.o(.constdata) for .constdata
    app.o(.text) refers to app.o(retention_mem_area0) for retention_mem_area0
    app.o(.text) refers to user_custs_config.o(.constdata) for cust_prf_funcs
    app.o(.text) refers to app.o(retention_mem_area0) for retention_mem_area0
    app.o(.text) refers to app.o(retention_mem_area0) for retention_mem_area0
    app.o(.text) refers to app.o(.constdata) for .constdata
    app.o(.text) refers to app.o(retention_mem_area0) for retention_mem_area0
    app.o(.text) refers to app.o(retention_mem_area0) for retention_mem_area0
    app.o(.text) refers to app.o(retention_mem_area0) for retention_mem_area0
    app.o(.text) refers to app.o(.text) for app_easy_gap_undirected_advertise_start_create_msg
    app.o(.text) refers to app.o(.text) for app_easy_gap_directed_advertise_start_create_msg
    app.o(.text) refers to app.o(.text) for app_easy_gap_directed_advertise_start_create_msg
    app.o(.text) refers to app.o(retention_mem_area0) for retention_mem_area0
    app.o(.text) refers to app.o(.text) for app_easy_gap_non_connectable_advertise_start_create_msg
    app.o(.text) refers to app.o(.text) for app_easy_gap_non_connectable_advertise_start_create_msg
    app.o(.text) refers to app.o(retention_mem_area0) for retention_mem_area0
    app.o(.text) refers to app_easy_timer.o(.text) for app_easy_timer_cancel
    app.o(.text) refers to app_easy_timer.o(.text) for app_easy_timer
    app.o(.text) refers to app.o(.text) for app_easy_gap_undirected_advertise_start
    app.o(.text) refers to app.o(retention_mem_area0) for retention_mem_area0
    app.o(.text) refers to app.o(.text) for app_easy_gap_advertise_stop_handler
    app.o(.text) refers to app_easy_timer.o(.text) for app_easy_timer_cancel
    app.o(.text) refers to app.o(retention_mem_area0) for retention_mem_area0
    app.o(.text) refers to app.o(.text) for app_easy_gap_param_update_msg_create
    app.o(.text) refers to app.o(.text) for app_easy_gap_param_update_msg_create
    app.o(.text) refers to app.o(retention_mem_area0) for retention_mem_area0
    app.o(.text) refers to app.o(.text) for app_easy_gap_start_connection_to_msg_create
    app.o(.text) refers to app.o(.text) for app_easy_gap_start_connection_to_msg_create
    app.o(.text) refers to app.o(.text) for app_easy_gap_start_connection_to_msg_create
    app.o(.text) refers to app.o(retention_mem_area0) for retention_mem_area0
    app.o(.text) refers to app.o(.text) for app_easy_gap_dev_config_create_msg
    app.o(.constdata) refers to app_diss.o(.text) for app_diss_create_db
    app.o(.constdata) refers to app_task.o(retention_mem_area0) for app_state
    app_task.o(.text) refers to app.o(.text) for app_easy_gap_dev_configure
    app_task.o(.text) refers to user_lis2dh_app.o(.text) for user_app_on_set_dev_config_complete
    app_task.o(.text) refers to app_default_handlers.o(.text) for default_app_on_get_dev_name
    app_task.o(.text) refers to app.o(retention_mem_area0) for app_env
    app_task.o(.text) refers to app_security.o(retention_mem_area0) for app_sec_env
    app_task.o(.text) refers to app_task.o(.constdata) for .constdata
    app_task.o(.constdata) refers to user_lis2dh_app.o(.text) for user_on_connection
    app_task.o(.constdata) refers to app_default_handlers.o(.text) for default_app_on_db_init_complete
    app_task.o(.constdata) refers to app_task.o(.text) for gapm_device_ready_ind_handler
    app_security.o(.text) refers to app_utils.o(.text) for app_fill_random_byte_array
    app_security.o(.text) refers to app_security.o(retention_mem_area0) for retention_mem_area0
    app_security.o(.text) refers to app_utils.o(.text) for app_fill_random_byte_array
    app_security.o(.text) refers to app_security.o(retention_mem_area0) for retention_mem_area0
    app_security_task.o(.text) refers to app_default_handlers.o(.text) for default_app_on_pairing_request
    app_security_task.o(.text) refers to app.o(retention_mem_area0) for app_env
    app_security_task.o(.text) refers to app_security.o(retention_mem_area0) for app_sec_env
    app_security_task.o(.text) refers to app_security_task.o(.constdata) for .constdata
    app_security_task.o(.constdata) refers to user_lis2dh_app.o(.text) for user_on_connection
    app_security_task.o(.constdata) refers to app_default_handlers.o(.text) for default_app_on_db_init_complete
    app_security_task.o(.constdata) refers to app_security_task.o(.text) for gapc_bond_req_ind_handler
    app_diss_task.o(.text) refers to app_diss_task.o(.constdata) for .constdata
    app_diss_task.o(.constdata) refers to app_diss_task.o(.text) for diss_value_req_ind_handler
    app_entry_point.o(.constdata) refers to user_lis2dh_app.o(.text) for user_on_connection
    app_entry_point.o(.constdata) refers to app_default_handlers.o(.text) for default_app_on_db_init_complete
    app_entry_point.o(.constdata) refers to app_task.o(.text) for app_gap_process_handler
    app_entry_point.o(.constdata) refers to app_easy_timer.o(.text) for app_timer_api_process_handler
    app_entry_point.o(.constdata) refers to app_easy_msg_utils.o(.text) for app_msg_utils_api_process_handler
    app_entry_point.o(.constdata) refers to app_security_task.o(.text) for app_sec_process_handler
    app_entry_point.o(.constdata) refers to app_diss_task.o(.text) for app_diss_process_handler
    app_entry_point.o(.constdata) refers to app_customs_task.o(.text) for app_custs1_process_handler
    app_entry_point.o(.constdata) refers to app.o(.text) for app_easy_gap_dev_configure
    app_entry_point.o(.constdata) refers to app_entry_point.o(.constdata) for user_app_callbacks
    app_entry_point.o(.constdata) refers to app_entry_point.o(.constdata) for app_process_handlers
    app_entry_point.o(.constdata) refers to app.o(retention_mem_area0) for app_env
    app_entry_point.o(.constdata) refers to app_security.o(retention_mem_area0) for app_sec_env
    app_entry_point.o(.constdata) refers to app.o(retention_mem_area0) for app_prf_srv_perm
    app_msg_utils.o(.text) refers to app_msg_utils.o(.text) for app_check_BLE_active
    app_msg_utils.o(.text) refers to arch_sleep.o(.text) for arch_ble_force_wakeup
    app_easy_msg_utils.o(.text) refers to app_easy_msg_utils.o(.text) for app_easy_msg_find_idx
    app_easy_msg_utils.o(.text) refers to app_easy_msg_utils.o(retention_mem_area0) for retention_mem_area0
    app_easy_msg_utils.o(.text) refers to app_easy_msg_utils.o(retention_mem_area0) for retention_mem_area0
    app_easy_msg_utils.o(.text) refers to app_easy_msg_utils.o(.text) for app_easy_msg_find_idx
    app_easy_msg_utils.o(.text) refers to app_easy_msg_utils.o(retention_mem_area0) for retention_mem_area0
    app_easy_msg_utils.o(.text) refers to app_easy_msg_utils.o(.text) for app_easy_msg_modify
    app_easy_msg_utils.o(.text) refers to app_easy_msg_utils.o(.text) for app_easy_msg_set
    app_easy_msg_utils.o(.text) refers to app_easy_msg_utils.o(retention_mem_area0) for retention_mem_area0
    app_easy_msg_utils.o(.text) refers to app_easy_msg_utils.o(.text) for app_easy_msg_free_callback
    app_easy_msg_utils.o(.text) refers to app_easy_msg_utils.o(retention_mem_area0) for retention_mem_area0
    app_easy_msg_utils.o(.text) refers to app_easy_msg_utils.o(retention_mem_area0) for retention_mem_area0
    app_easy_msg_utils.o(.text) refers to app_easy_msg_utils.o(retention_mem_area0) for retention_mem_area0
    app_easy_security.o(.text) refers to app_easy_security.o(retention_mem_area0) for retention_mem_area0
    app_easy_security.o(.text) refers to app_easy_security.o(.constdata) for .constdata
    app_easy_security.o(.text) refers to app_security.o(retention_mem_area0) for app_sec_env
    app_easy_security.o(.text) refers to app_easy_security.o(.text) for pairing_rsp_create_msg
    app_easy_security.o(.text) refers to app_easy_security.o(.text) for tk_exch_create_msg
    app_easy_security.o(.text) refers to app_security.o(.text) for app_sec_gen_csrk
    app_easy_security.o(.text) refers to app_easy_security.o(retention_mem_area0) for retention_mem_area0
    app_easy_security.o(.text) refers to app_security.o(retention_mem_area0) for app_sec_env
    app_easy_security.o(.text) refers to app_easy_security.o(.text) for csrk_exch_create_msg
    app_easy_security.o(.text) refers to app_easy_security.o(.text) for csrk_exch_create_msg
    app_easy_security.o(.text) refers to app_easy_security.o(retention_mem_area0) for retention_mem_area0
    app_easy_security.o(.text) refers to app_easy_security.o(.text) for ltk_exch_create_msg
    app_easy_security.o(.text) refers to app_easy_security.o(.text) for ltk_exch_create_msg
    app_easy_security.o(.text) refers to app_easy_security.o(retention_mem_area0) for retention_mem_area0
    app_easy_security.o(.text) refers to app_easy_security.o(.text) for encrypt_cfm_create_msg
    app_easy_security.o(.text) refers to app_easy_security.o(retention_mem_area0) for retention_mem_area0
    app_easy_security.o(.text) refers to app_easy_security.o(.text) for encrypt_cfm_create_msg
    app_easy_security.o(.text) refers to app_easy_security.o(.text) for encrypt_cfm_create_msg
    app_easy_security.o(.text) refers to app_security.o(retention_mem_area0) for app_sec_env
    app_easy_security.o(.text) refers to app_easy_security.o(.text) for encrypt_cfm_create_msg
    app_easy_security.o(.text) refers to app_easy_security.o(retention_mem_area0) for retention_mem_area0
    app_easy_security.o(.text) refers to app_easy_security.o(.text) for app_easy_security_request_get_active
    app_easy_security.o(.text) refers to app_easy_security.o(retention_mem_area0) for retention_mem_area0
    app_easy_security.o(.text) refers to app_easy_security.o(.text) for app_easy_security_set_encrypt_req_valid
    app_easy_security.o(.text) refers to app_easy_security.o(.text) for app_easy_security_encrypt_cfm
    app_easy_security.o(.text) refers to app_security.o(retention_mem_area0) for app_sec_env
    app_easy_security.o(.text) refers to app_easy_security.o(.text) for app_easy_security_set_encrypt_req_invalid
    app_easy_security.o(.text) refers to app_easy_security.o(.text) for app_easy_security_encrypt_cfm
    app_easy_timer.o(.text) refers to app_msg_utils.o(.text) for app_check_BLE_active
    app_easy_timer.o(.text) refers to arch_sleep.o(.text) for arch_ble_force_wakeup
    app_easy_timer.o(.text) refers to app_easy_timer.o(.text) for timer_modified_handler
    app_easy_timer.o(.text) refers to app_easy_timer.o(retention_mem_area0) for retention_mem_area0
    app_easy_timer.o(.text) refers to app_easy_timer.o(.text) for timer_canceled_handler
    app_easy_timer.o(.text) refers to app_easy_timer.o(.text) for create_timer
    app_easy_timer.o(.text) refers to app_easy_timer.o(retention_mem_area0) for retention_mem_area0
    app_easy_timer.o(.text) refers to app_easy_timer.o(retention_mem_area0) for retention_mem_area0
    app_easy_timer.o(.text) refers to app_easy_timer.o(.text) for timer_canceled_handler
    app_easy_timer.o(.text) refers to app_easy_timer.o(retention_mem_area0) for retention_mem_area0
    app_easy_timer.o(.text) refers to app_easy_timer.o(.text) for timer_modified_handler
    app_easy_timer.o(.text) refers to app_easy_timer.o(.text) for app_easy_timer_cancel
    app_easy_timer.o(.text) refers to app_easy_timer.o(retention_mem_area0) for retention_mem_area0
    app_easy_timer.o(.text) refers to app_easy_timer.o(.text) for timer_canceled_handler
    app_customs.o(.text) refers to user_custs_config.o(.constdata) for cust_prf_funcs
    app_bond_db.o(.text) refers to app_bond_db.o(.text) for bond_db_clear
    app_bond_db.o(.text) refers to app_bond_db.o(retention_mem_area0) for retention_mem_area0
    app_bond_db.o(.text) refers to app_bond_db.o(retention_mem_area0) for retention_mem_area0
    app_bond_db.o(.text) refers to app_bond_db.o(.text) for bond_db_clear
    app_bond_db.o(.text) refers to app_bond_db.o(retention_mem_area0) for retention_mem_area0
    app_bond_db.o(.text) refers to app_bond_db.o(retention_mem_area0) for retention_mem_area0
    app_bond_db.o(.text) refers to app_bond_db.o(retention_mem_area0) for retention_mem_area0
    app_bond_db.o(.text) refers to app_bond_db.o(retention_mem_area0) for retention_mem_area0
    app_bond_db.o(.text) refers to app_bond_db.o(retention_mem_area0) for retention_mem_area0
    app_bond_db.o(.text) refers to app_bond_db.o(retention_mem_area0) for retention_mem_area0
    user_custs_config.o(.constdata) refers to user_custs1_def.o(.constdata) for custs1_att_db
    user_custs_config.o(.constdata) refers to app_customs.o(.text) for app_custs1_create_db
    user_custs1_def.o(.constdata) refers to user_custs1_def.o(.constdata) for att_decl_svc
    user_custs1_def.o(.constdata) refers to user_custs1_def.o(.constdata) for custs1_svc1
    user_custs1_def.o(.constdata) refers to user_custs1_def.o(.constdata) for att_decl_char
    user_custs1_def.o(.constdata) refers to user_custs1_def.o(.constdata) for SVC1_CTRL_POINT_UUID_128
    user_custs1_def.o(.constdata) refers to user_custs1_def.o(.constdata) for att_desc_user_desc
    user_custs1_def.o(.constdata) refers to user_custs1_def.o(.conststring) for .conststring
    user_custs1_def.o(.constdata) refers to user_custs1_def.o(.constdata) for SVC1_LED_STATE_UUID_128
    user_custs1_def.o(.constdata) refers to user_custs1_def.o(.constdata) for SVC1_ADC_VAL_1_UUID_128
    user_custs1_def.o(.constdata) refers to user_custs1_def.o(.constdata) for att_desc_cfg
    user_custs1_def.o(.constdata) refers to user_custs1_def.o(.constdata) for SVC1_ADC_VAL_2_UUID_128
    user_custs1_def.o(.constdata) refers to user_custs1_def.o(.constdata) for SVC1_BUTTON_STATE_UUID_128
    user_custs1_def.o(.constdata) refers to user_custs1_def.o(.constdata) for SVC1_INDICATEABLE_UUID_128
    user_custs1_def.o(.constdata) refers to user_custs1_def.o(.constdata) for SVC1_LONG_VALUE_UUID_128
    user_custs1_def.o(.constdata) refers to user_custs1_def.o(.constdata) for custs1_svc2
    user_custs1_def.o(.constdata) refers to user_custs1_def.o(.constdata) for SVC2_WRITE_VAL_1_UUID_128
    user_custs1_def.o(.constdata) refers to user_custs1_def.o(.constdata) for SVC2_WRITE_VAL_2_UUID_128
    user_custs1_def.o(.constdata) refers to user_custs1_def.o(.constdata) for custs1_svc3
    user_custs1_def.o(.constdata) refers to user_custs1_def.o(.constdata) for SVC3_READ_VAL_1_UUID_128
    user_custs1_def.o(.constdata) refers to user_custs1_def.o(.constdata) for SVC3_READ_VAL_2_UUID_128
    user_custs1_def.o(.constdata) refers to user_custs1_def.o(.constdata) for SVC3_READ_VAL_3_UUID_128
    user_periph_setup.o(.text) refers to gpio.o(.text) for GPIO_ConfigurePin
    user_periph_setup.o(.text) refers to syscntl.o(.text) for syscntl_dcdc_turn_on_in_boost
    user_periph_setup.o(.text) refers to patch.o(.text) for patch_func
    user_periph_setup.o(.text) refers to uart.o(.text) for uart_initialize
    user_periph_setup.o(.text) refers to i2c.o(.text) for i2c_init
    user_periph_setup.o(.text) refers to gpio.o(retention_mem_area0) for GPIO
    user_periph_setup.o(.text) refers to user_periph_setup.o(.constdata) for .constdata
    user_periph_setup.o(.text) refers to user_periph_setup.o(.data) for .data
    accel_lis2dh_impl.o(.text) refers to i2c_impl.o(.text) for i2c_accel_set_cb
    accel_lis2dh_impl.o(.text) refers to lis2dh_driver.o(.text) for LIS2DH_GetAccAxesRawBurst
    accel_lis2dh_impl.o(.text) refers to wkupct_quadec.o(.text) for wkupct_register_callback
    accel_lis2dh_impl.o(.text) refers to accel_lis2dh_impl.o(retention_mem_area0) for retention_mem_area0
    i2c_impl.o(.text) refers to i2c.o(.text) for i2c_master_transmit_buffer_sync
    i2c_impl.o(.text) refers to i2c_impl.o(retention_mem_area0) for retention_mem_area0
    i2c_impl.o(.text) refers to gpio.o(.text) for GPIO_ConfigurePin
    lis2dh_driver.o(.text) refers to i2c_impl.o(.text) for i2c_accel_read_fifo
    lis2dh_driver.o(.text) refers to lis2dh_driver.o(.bss) for .bss
    lis2dh_driver.o(.text) refers to lis2dh_driver.o(.text) for LIS2DH_ReadReg
    lis2dh_driver.o(.text) refers to lis2dh_driver.o(.text) for LIS2DH_ReadReg
    lis2dh_driver.o(.text) refers to lis2dh_driver.o(.text) for LIS2DH_ReadReg
    lis2dh_driver.o(.text) refers to lis2dh_driver.o(.text) for LIS2DH_ReadReg
    lis2dh_driver.o(.text) refers to lis2dh_driver.o(.text) for LIS2DH_ReadReg
    lis2dh_driver.o(.text) refers to lis2dh_driver.o(.text) for LIS2DH_ReadReg
    lis2dh_driver.o(.text) refers to lis2dh_driver.o(.text) for LIS2DH_ReadReg
    lis2dh_driver.o(.text) refers to lis2dh_driver.o(.text) for LIS2DH_ReadReg
    lis2dh_driver.o(.text) refers to lis2dh_driver.o(.text) for LIS2DH_ReadReg
    lis2dh_driver.o(.text) refers to lis2dh_driver.o(.text) for LIS2DH_ReadReg
    lis2dh_driver.o(.text) refers to lis2dh_driver.o(.text) for LIS2DH_ReadReg
    lis2dh_driver.o(.text) refers to lis2dh_driver.o(.text) for LIS2DH_ReadReg
    lis2dh_driver.o(.text) refers to lis2dh_driver.o(.text) for LIS2DH_ReadReg
    lis2dh_driver.o(.text) refers to lis2dh_driver.o(.text) for LIS2DH_ReadReg
    lis2dh_driver.o(.text) refers to lis2dh_driver.o(.text) for LIS2DH_ReadReg
    lis2dh_driver.o(.text) refers to lis2dh_driver.o(.text) for LIS2DH_ReadReg
    lis2dh_driver.o(.text) refers to lis2dh_driver.o(.text) for LIS2DH_ReadReg
    lis2dh_driver.o(.text) refers to lis2dh_driver.o(.text) for LIS2DH_WriteReg
    lis2dh_driver.o(.text) refers to lis2dh_driver.o(.text) for LIS2DH_WriteReg
    lis2dh_driver.o(.text) refers to lis2dh_driver.o(.text) for LIS2DH_WriteReg
    lis2dh_driver.o(.text) refers to lis2dh_driver.o(.text) for LIS2DH_WriteReg
    lis2dh_driver.o(.text) refers to lis2dh_driver.o(.text) for LIS2DH_ReadReg
    lis2dh_driver.o(.text) refers to lis2dh_driver.o(.text) for LIS2DH_ReadReg
    lis2dh_driver.o(.text) refers to lis2dh_driver.o(.text) for LIS2DH_ReadReg
    lis2dh_driver.o(.text) refers to lis2dh_driver.o(.text) for LIS2DH_ReadReg
    lis2dh_driver.o(.text) refers to lis2dh_driver.o(.text) for LIS2DH_ReadReg
    lis2dh_driver.o(.text) refers to lis2dh_driver.o(.text) for LIS2DH_ReadReg
    lis2dh_driver.o(.text) refers to lis2dh_driver.o(.text) for LIS2DH_WriteReg
    lis2dh_driver.o(.text) refers to lis2dh_driver.o(.text) for LIS2DH_WriteReg
    lis2dh_driver.o(.text) refers to lis2dh_driver.o(.text) for LIS2DH_ReadReg
    lis2dh_driver.o(.text) refers to lis2dh_driver.o(.text) for LIS2DH_ReadReg
    lis2dh_driver.o(.text) refers to lis2dh_driver.o(.text) for LIS2DH_ReadReg
    lis2dh_driver.o(.text) refers to lis2dh_driver.o(.text) for LIS2DH_ReadReg
    lis2dh_driver.o(.text) refers to lis2dh_driver.o(.text) for LIS2DH_ReadReg
    lis2dh_driver.o(.text) refers to lis2dh_driver.o(.text) for LIS2DH_ReadReg
    lis2dh_driver.o(.text) refers to lis2dh_driver.o(.text) for LIS2DH_ReadReg
    lis2dh_driver.o(.text) refers to lis2dh_driver.o(.text) for LIS2DH_ReadReg
    spi_impl.o(.text) refers to spi_531.o(.text) for spi_enable
    spi_impl.o(.text) refers to spi_531.o(.text) for spi_cs_low
    spi_impl.o(.text) refers to spi_531.o(.text) for spi_master_transfer
    spi_impl.o(.text) refers to spi_531.o(.text) for spi_cs_high
    spi_impl.o(.text) refers to spi_531.o(.text) for spi_disable
    spi_impl.o(.text) refers to spi_531.o(.text) for spi_enable
    spi_impl.o(.text) refers to spi_531.o(.text) for spi_cs_low
    spi_impl.o(.text) refers to spi_531.o(.text) for spi_send
    spi_impl.o(.text) refers to spi_531.o(.text) for spi_cs_high
    spi_impl.o(.text) refers to spi_531.o(.text) for spi_disable
    spi_impl.o(.text) refers to spi_531.o(.text) for spi_enable
    spi_impl.o(.text) refers to spi_531.o(.text) for spi_cs_low
    spi_impl.o(.text) refers to spi_531.o(.text) for spi_master_transfer
    spi_impl.o(.text) refers to spi_531.o(.text) for spi_disable
    spi_impl.o(.text) refers to spi_531.o(.text) for spi_set_bitmode
    spi_impl.o(.text) refers to spi_531.o(.text) for spi_receive
    spi_impl.o(.text) refers to spi_impl.o(.bss) for .bss
    spi_impl.o(.text) refers to spi_531.o(.text) for spi_register_receive_cb
    spi_impl.o(.text) refers to spi_impl.o(.bss) for .bss
    user_lis2dh_app.o(.text) refers to accel_lis2dh_impl.o(.text) for accel_lis2dh_prepare_int1_pin
    user_lis2dh_app.o(.text) refers to app_default_handlers.o(.text) for default_app_on_connection
    user_lis2dh_app.o(.text) refers to user_lis2dh_app.o(retention_mem_area0) for retention_mem_area0
    user_lis2dh_app.o(.text) refers to user_lis2dh_app.o(.constdata) for .constdata
    user_lis2dh_app.o(.text) refers to i2c_impl.o(.text) for i2c_accel_configure_pins_for_sleep
    patch.o(.text) refers to patch.o(retention_mem_area0) for retention_mem_area0
    patch.o(.text) refers to patch.o(.constdata) for .constdata
    patch.o(.constdata) refers to patch.o(.text) for PATCHED_llm_con_req_ind
    entry.o(.ARM.Collect$$$$00000000) refers (Special) to entry10a.o(.ARM.Collect$$$$0000000D) for __rt_final_cpp
    entry.o(.ARM.Collect$$$$00000000) refers (Special) to entry11a.o(.ARM.Collect$$$$0000000F) for __rt_final_exit
    entry.o(.ARM.Collect$$$$00000000) refers (Special) to entry7b.o(.ARM.Collect$$$$00000008) for _main_clock
    entry.o(.ARM.Collect$$$$00000000) refers (Special) to entry8b.o(.ARM.Collect$$$$0000000A) for _main_cpp_init
    entry.o(.ARM.Collect$$$$00000000) refers (Special) to entry9a.o(.ARM.Collect$$$$0000000B) for _main_init
    entry.o(.ARM.Collect$$$$00000000) refers (Special) to entry5.o(.ARM.Collect$$$$00000004) for _main_scatterload
    entry.o(.ARM.Collect$$$$00000000) refers (Special) to entry2.o(.ARM.Collect$$$$00000001) for _main_stk
    entry2.o(.ARM.Collect$$$$00000001) refers to entry2.o(.ARM.Collect$$$$00002712) for __lit__00000000
    entry2.o(.ARM.Collect$$$$00002712) refers to startup_da14531.o(STACK) for __initial_sp
    entry2.o(__vectab_stack_and_reset_area) refers to startup_da14531.o(STACK) for __initial_sp
    entry2.o(__vectab_stack_and_reset_area) refers to entry.o(.ARM.Collect$$$$00000000) for __main
    entry5.o(.ARM.Collect$$$$00000004) refers to init.o(.text) for __scatterload
    entry9a.o(.ARM.Collect$$$$0000000B) refers to arch_main.o(.text) for main
    entry9b.o(.ARM.Collect$$$$0000000C) refers to arch_main.o(.text) for main
    init.o(.text) refers to entry5.o(.ARM.Collect$$$$00000004) for __main_after_scatterload


==============================================================================

Removing Unused input sections from the image.

    Removing system_da14531.o(.text), (16 bytes).
    Removing system_da14531.o(.data), (4 bytes).
    Removing startup_da14531.o(HEAP), (256 bytes).
    Removing arch_main.o(.constdata), (28 bytes).
    Removing jump_table.o(.text), (2 bytes).
    Removing arch_sleep.o(.text), (276 bytes).
    Removing arch_sleep.o(.text), (12 bytes).
    Removing arch_sleep.o(.text), (12 bytes).
    Removing arch_sleep.o(.text), (12 bytes).
    Removing arch_system.o(.text), (60 bytes).
    Removing arch_system.o(.text), (56 bytes).
    Removing arch_system.o(.text), (44 bytes).
    Removing arch_system.o(.constdata), (28 bytes).
    Removing arch_system.o(.data), (4 bytes).
    Removing arch_system.o(retention_mem_area0), (1 bytes).
    Removing arch_system.o(retention_mem_area0), (2 bytes).
    Removing arch_system.o(retention_mem_area0), (2 bytes).
    Removing arch_system.o(retention_mem_area0), (8 bytes).
    Removing arch_system.o(retention_mem_area0), (8 bytes).
    Removing arch_system.o(retention_mem_area0), (8 bytes).
    Removing arch_system.o(retention_mem_area0), (8 bytes).
    Removing arch_hibernation.o(.text), (332 bytes).
    Removing arch_hibernation.o(.text), (364 bytes).
    Removing arch_hibernation.o(.text), (448 bytes).
    Removing arch_hibernation.o(.text), (40 bytes).
    Removing arch_hibernation.o(retention_mem_area0), (8 bytes).
    Removing hash.o(.text), (76 bytes).
    Removing otp_cs.o(.text), (12 bytes).
    Removing otp_cs.o(.text), (12 bytes).
    Removing otp_cs.o(.text), (12 bytes).
    Removing otp_cs.o(.text), (12 bytes).
    Removing otp_cs.o(.text), (12 bytes).
    Removing otp_cs.o(.text), (12 bytes).
    Removing otp_cs.o(.text), (12 bytes).
    Removing syscntl.o(.text), (36 bytes).
    Removing syscntl.o(.text), (40 bytes).
    Removing syscntl.o(.text), (84 bytes).
    Removing syscntl.o(.text), (44 bytes).
    Removing gpio.o(.text), (24 bytes).
    Removing gpio.o(.text), (68 bytes).
    Removing gpio.o(.text), (68 bytes).
    Removing gpio.o(.text), (32 bytes).
    Removing gpio.o(.text), (288 bytes).
    Removing gpio.o(.text), (144 bytes).
    Removing gpio.o(.text), (36 bytes).
    Removing gpio.o(.text), (24 bytes).
    Removing gpio.o(.text), (56 bytes).
    Removing gpio.o(.text), (12 bytes).
    Removing gpio.o(.text), (16 bytes).
    Removing gpio.o(.text), (16 bytes).
    Removing wkupct_quadec.o(.text), (60 bytes).
    Removing wkupct_quadec.o(.text), (80 bytes).
    Removing wkupct_quadec.o(.text), (28 bytes).
    Removing wkupct_quadec.o(.text), (28 bytes).
    Removing wkupct_quadec.o(.text), (12 bytes).
    Removing wkupct_quadec.o(.text), (12 bytes).
    Removing wkupct_quadec.o(.text), (68 bytes).
    Removing wkupct_quadec.o(.text), (24 bytes).
    Removing wkupct_quadec.o(.text), (32 bytes).
    Removing wkupct_quadec.o(.text), (48 bytes).
    Removing wkupct_quadec.o(.text), (56 bytes).
    Removing battery.o(.text), (232 bytes).
    Removing battery.o(.text), (12 bytes).
    Removing battery.o(.text), (24 bytes).
    Removing battery.o(.constdata), (32 bytes).
    Removing adc_531.o(.text), (32 bytes).
    Removing adc_531.o(.text), (24 bytes).
    Removing adc_531.o(.text), (16 bytes).
    Removing adc_531.o(.text), (40 bytes).
    Removing adc_531.o(.text), (56 bytes).
    Removing adc_531.o(.text), (44 bytes).
    Removing adc_531.o(.text), (16 bytes).
    Removing adc_531.o(.text), (28 bytes).
    Removing adc_531.o(.text), (280 bytes).
    Removing adc_531.o(.text), (40 bytes).
    Removing adc_531.o(.text), (92 bytes).
    Removing adc_531.o(.text), (116 bytes).
    Removing spi_531.o(.text), (156 bytes).
    Removing spi_531.o(.text), (196 bytes).
    Removing spi_531.o(.text), (44 bytes).
    Removing spi_531.o(.text), (36 bytes).
    Removing spi_531.o(.text), (36 bytes).
    Removing spi_531.o(.text), (20 bytes).
    Removing spi_531.o(.text), (80 bytes).
    Removing spi_531.o(.text), (20 bytes).
    Removing spi_531.o(.text), (12 bytes).
    Removing spi_531.o(.text), (12 bytes).
    Removing spi_531.o(.text), (12 bytes).
    Removing spi_531.o(.text), (144 bytes).
    Removing spi_531.o(.text), (32 bytes).
    Removing spi_531.o(.text), (28 bytes).
    Removing spi_531.o(.text), (28 bytes).
    Removing spi_531.o(.text), (28 bytes).
    Removing spi_531.o(.text), (28 bytes).
    Removing spi_531.o(.text), (112 bytes).
    Removing spi_531.o(.text), (24 bytes).
    Removing spi_531.o(.text), (108 bytes).
    Removing spi_531.o(retention_mem_area0), (20 bytes).
    Removing spi_flash.o(.text), (20 bytes).
    Removing spi_flash.o(.text), (16 bytes).
    Removing spi_flash.o(.text), (32 bytes).
    Removing spi_flash.o(.text), (12 bytes).
    Removing spi_flash.o(.text), (4 bytes).
    Removing spi_flash.o(.text), (26 bytes).
    Removing spi_flash.o(.text), (34 bytes).
    Removing spi_flash.o(.text), (76 bytes).
    Removing spi_flash.o(.text), (100 bytes).
    Removing spi_flash.o(.text), (24 bytes).
    Removing spi_flash.o(.text), (24 bytes).
    Removing spi_flash.o(.text), (24 bytes).
    Removing spi_flash.o(.text), (48 bytes).
    Removing spi_flash.o(.text), (10 bytes).
    Removing spi_flash.o(.text), (10 bytes).
    Removing spi_flash.o(.text), (46 bytes).
    Removing spi_flash.o(.text), (34 bytes).
    Removing spi_flash.o(.text), (26 bytes).
    Removing spi_flash.o(.text), (40 bytes).
    Removing spi_flash.o(.text), (22 bytes).
    Removing spi_flash.o(.text), (8 bytes).
    Removing spi_flash.o(.text), (36 bytes).
    Removing spi_flash.o(.text), (52 bytes).
    Removing spi_flash.o(.text), (70 bytes).
    Removing spi_flash.o(.text), (44 bytes).
    Removing spi_flash.o(.text), (44 bytes).
    Removing spi_flash.o(.text), (42 bytes).
    Removing spi_flash.o(.text), (36 bytes).
    Removing spi_flash.o(.text), (16 bytes).
    Removing spi_flash.o(.text), (22 bytes).
    Removing spi_flash.o(.text), (92 bytes).
    Removing spi_flash.o(.text), (82 bytes).
    Removing spi_flash.o(.text), (108 bytes).
    Removing spi_flash.o(.text), (108 bytes).
    Removing spi_flash.o(.text), (88 bytes).
    Removing spi_flash.o(.text), (100 bytes).
    Removing spi_flash.o(.text), (22 bytes).
    Removing spi_flash.o(.text), (100 bytes).
    Removing spi_flash.o(.text), (132 bytes).
    Removing spi_flash.o(.text), (68 bytes).
    Removing spi_flash.o(.text), (36 bytes).
    Removing spi_flash.o(.text), (40 bytes).
    Removing spi_flash.o(.text), (4 bytes).
    Removing spi_flash.o(.text), (2 bytes).
    Removing spi_flash.o(.text), (4 bytes).
    Removing spi_flash.o(.bss), (12 bytes).
    Removing spi_flash.o(.constdata), (132 bytes).
    Removing i2c_eeprom.o(.text), (28 bytes).
    Removing i2c_eeprom.o(.text), (24 bytes).
    Removing i2c_eeprom.o(.text), (16 bytes).
    Removing i2c_eeprom.o(.text), (8 bytes).
    Removing i2c_eeprom.o(.text), (20 bytes).
    Removing i2c_eeprom.o(.text), (64 bytes).
    Removing i2c_eeprom.o(.text), (96 bytes).
    Removing i2c_eeprom.o(.text), (100 bytes).
    Removing i2c_eeprom.o(.text), (140 bytes).
    Removing i2c_eeprom.o(.text), (84 bytes).
    Removing i2c_eeprom.o(.text), (80 bytes).
    Removing i2c_eeprom.o(.text), (160 bytes).
    Removing i2c_eeprom.o(.text), (84 bytes).
    Removing i2c_eeprom.o(.text), (16 bytes).
    Removing i2c_eeprom.o(retention_mem_area0), (24 bytes).
    Removing systick.o(.text), (12 bytes).
    Removing systick.o(.text), (64 bytes).
    Removing systick.o(.text), (24 bytes).
    Removing systick.o(.text), (28 bytes).
    Removing systick.o(.text), (16 bytes).
    Removing uart.o(.text), (56 bytes).
    Removing uart.o(.text), (32 bytes).
    Removing uart.o(.text), (32 bytes).
    Removing uart.o(.text), (14 bytes).
    Removing uart.o(.text), (28 bytes).
    Removing uart.o(.text), (120 bytes).
    Removing uart.o(.text), (36 bytes).
    Removing uart.o(.text), (108 bytes).
    Removing hw_otpc_531.o(.text), (92 bytes).
    Removing hw_otpc_531.o(.text), (44 bytes).
    Removing hw_otpc_531.o(.text), (80 bytes).
    Removing hw_otpc_531.o(.text), (64 bytes).
    Removing hw_otpc_531.o(.text), (68 bytes).
    Removing hw_otpc_531.o(.text), (66 bytes).
    Removing i2c.o(.text), (36 bytes).
    Removing i2c.o(.text), (120 bytes).
    Removing i2c.o(.text), (36 bytes).
    Removing i2c.o(.text), (156 bytes).
    Removing i2c.o(.text), (68 bytes).
    Removing i2c.o(.text), (40 bytes).
    Removing i2c.o(.text), (92 bytes).
    Removing i2c.o(.text), (92 bytes).
    Removing i2c.o(.text), (40 bytes).
    Removing i2c.o(.text), (144 bytes).
    Removing i2c.o(.text), (48 bytes).
    Removing rwble.o(retention_mem_area0), (1 bytes).
    Removing ble_arp.o(.constdata), (4 bytes).
    Removing rf_531.o(.text), (276 bytes).
    Removing rf_531.o(.text), (12 bytes).
    Removing rf_531.o(.text), (12 bytes).
    Removing rf_531.o(.text), (404 bytes).
    Removing rf_531.o(.text), (2 bytes).
    Removing rf_531.o(.text), (12 bytes).
    Removing rf_531.o(.text), (16 bytes).
    Removing rf_531.o(.text), (32 bytes).
    Removing rf_531.o(.text), (28 bytes).
    Removing rf_531.o(.text), (28 bytes).
    Removing rf_531.o(.text), (80 bytes).
    Removing rf_531.o(.text), (32 bytes).
    Removing rf_531.o(.text), (24 bytes).
    Removing app_default_handlers.o(.text), (8 bytes).
    Removing app_default_handlers.o(.text), (132 bytes).
    Removing app_default_handlers.o(.text), (8 bytes).
    Removing app_default_handlers.o(.text), (52 bytes).
    Removing app_default_handlers.o(.text), (28 bytes).
    Removing app_default_handlers.o(.text), (52 bytes).
    Removing app_default_handlers.o(.text), (8 bytes).
    Removing app_default_handlers.o(.text), (16 bytes).
    Removing app_default_handlers.o(.constdata), (12 bytes).
    Removing app_default_handlers.o(.constdata), (4 bytes).
    Removing app.o(.text), (96 bytes).
    Removing app.o(.text), (96 bytes).
    Removing app.o(.text), (72 bytes).
    Removing app.o(.text), (80 bytes).
    Removing app.o(.text), (28 bytes).
    Removing app.o(.text), (8 bytes).
    Removing app.o(.text), (8 bytes).
    Removing app.o(.text), (32 bytes).
    Removing app.o(.text), (8 bytes).
    Removing app.o(.text), (40 bytes).
    Removing app.o(.text), (48 bytes).
    Removing app.o(.text), (28 bytes).
    Removing app.o(.text), (8 bytes).
    Removing app.o(.text), (28 bytes).
    Removing app.o(.text), (8 bytes).
    Removing app.o(.text), (38 bytes).
    Removing app.o(.text), (24 bytes).
    Removing app.o(.text), (8 bytes).
    Removing app.o(.text), (32 bytes).
    Removing app.o(.constdata), (42 bytes).
    Removing app.o(.constdata), (12 bytes).
    Removing app.o(.constdata), (74 bytes).
    Removing app_task.o(.constdata), (140 bytes).
    Removing app_security.o(.text), (28 bytes).
    Removing app_security.o(.text), (36 bytes).
    Removing app_security_task.o(.constdata), (140 bytes).
    Removing app_msg_utils.o(.text), (24 bytes).
    Removing app_easy_msg_utils.o(.text), (36 bytes).
    Removing app_easy_msg_utils.o(.text), (52 bytes).
    Removing app_easy_msg_utils.o(.text), (40 bytes).
    Removing app_easy_msg_utils.o(.text), (32 bytes).
    Removing app_easy_msg_utils.o(.text), (20 bytes).
    Removing app_easy_msg_utils.o(.text), (24 bytes).
    Removing app_easy_security.o(.text), (8 bytes).
    Removing app_easy_security.o(.text), (8 bytes).
    Removing app_easy_security.o(.text), (80 bytes).
    Removing app_easy_security.o(.text), (8 bytes).
    Removing app_easy_security.o(.text), (28 bytes).
    Removing app_easy_security.o(.text), (8 bytes).
    Removing app_easy_security.o(.text), (44 bytes).
    Removing app_easy_security.o(.text), (44 bytes).
    Removing app_easy_security.o(.text), (28 bytes).
    Removing app_easy_security.o(.text), (8 bytes).
    Removing app_easy_security.o(.text), (40 bytes).
    Removing app_easy_security.o(.text), (12 bytes).
    Removing app_easy_security.o(.text), (52 bytes).
    Removing app_easy_security.o(.text), (28 bytes).
    Removing app_easy_security.o(.text), (44 bytes).
    Removing app_easy_security.o(.text), (22 bytes).
    Removing app_easy_security.o(.text), (4 bytes).
    Removing app_easy_security.o(.text), (4 bytes).
    Removing app_easy_security.o(.text), (4 bytes).
    Removing app_easy_security.o(.text), (66 bytes).
    Removing app_easy_security.o(.text), (2 bytes).
    Removing app_easy_security.o(.text), (4 bytes).
    Removing app_easy_security.o(.text), (2 bytes).
    Removing app_easy_security.o(.text), (2 bytes).
    Removing app_easy_security.o(.text), (4 bytes).
    Removing app_easy_security.o(.text), (4 bytes).
    Removing app_easy_security.o(.text), (2 bytes).
    Removing app_easy_security.o(.constdata), (32 bytes).
    Removing app_easy_timer.o(.text), (68 bytes).
    Removing app_easy_timer.o(.text), (80 bytes).
    Removing app_easy_timer.o(.text), (116 bytes).
    Removing app_easy_timer.o(.text), (44 bytes).
    Removing app_customs.o(.text), (2 bytes).
    Removing app_customs_common.o(.text), (4 bytes).
    Removing app_bond_db.o(.text), (48 bytes).
    Removing app_bond_db.o(.text), (4 bytes).
    Removing app_bond_db.o(.text), (172 bytes).
    Removing app_bond_db.o(.text), (212 bytes).
    Removing app_bond_db.o(.text), (116 bytes).
    Removing app_bond_db.o(.text), (40 bytes).
    Removing app_bond_db.o(.text), (56 bytes).
    Removing app_bond_db.o(.text), (72 bytes).
    Removing app_bond_db.o(.text), (44 bytes).
    Removing app_bond_db.o(retention_mem_area0), (644 bytes).
    Removing app_utils.o(.text), (20 bytes).
    Removing app_easy_whitelist.o(.text), (68 bytes).
    Removing user_custs1_def.o(.constdata), (2 bytes).
    Removing i2c_impl.o(.text), (34 bytes).
    Removing lis2dh_driver.o(.text), (18 bytes).
    Removing lis2dh_driver.o(.text), (150 bytes).
    Removing lis2dh_driver.o(.text), (48 bytes).
    Removing lis2dh_driver.o(.text), (48 bytes).
    Removing lis2dh_driver.o(.text), (122 bytes).
    Removing lis2dh_driver.o(.text), (38 bytes).
    Removing lis2dh_driver.o(.text), (48 bytes).
    Removing lis2dh_driver.o(.text), (48 bytes).
    Removing lis2dh_driver.o(.text), (48 bytes).
    Removing lis2dh_driver.o(.text), (48 bytes).
    Removing lis2dh_driver.o(.text), (44 bytes).
    Removing lis2dh_driver.o(.text), (48 bytes).
    Removing lis2dh_driver.o(.text), (48 bytes).
    Removing lis2dh_driver.o(.text), (56 bytes).
    Removing lis2dh_driver.o(.text), (48 bytes).
    Removing lis2dh_driver.o(.text), (36 bytes).
    Removing lis2dh_driver.o(.text), (44 bytes).
    Removing lis2dh_driver.o(.text), (26 bytes).
    Removing lis2dh_driver.o(.text), (26 bytes).
    Removing lis2dh_driver.o(.text), (18 bytes).
    Removing lis2dh_driver.o(.text), (18 bytes).
    Removing lis2dh_driver.o(.text), (152 bytes).
    Removing lis2dh_driver.o(.text), (78 bytes).
    Removing lis2dh_driver.o(.text), (44 bytes).
    Removing lis2dh_driver.o(.text), (48 bytes).
    Removing lis2dh_driver.o(.text), (126 bytes).
    Removing lis2dh_driver.o(.text), (60 bytes).
    Removing lis2dh_driver.o(.text), (26 bytes).
    Removing lis2dh_driver.o(.text), (26 bytes).
    Removing lis2dh_driver.o(.text), (18 bytes).
    Removing lis2dh_driver.o(.text), (156 bytes).
    Removing lis2dh_driver.o(.text), (102 bytes).
    Removing lis2dh_driver.o(.text), (18 bytes).
    Removing lis2dh_driver.o(.text), (134 bytes).
    Removing lis2dh_driver.o(.text), (18 bytes).
    Removing lis2dh_driver.o(.text), (90 bytes).
    Removing lis2dh_driver.o(.text), (44 bytes).
    Removing spi_impl.o(.text), (66 bytes).
    Removing spi_impl.o(.text), (42 bytes).
    Removing spi_impl.o(.text), (80 bytes).
    Removing spi_impl.o(.text), (20 bytes).
    Removing spi_impl.o(.bss), (4 bytes).
    Removing user_lis2dh_app.o(.text), (12 bytes).
    Removing otp_cs.o(i.__ARM_common_switch8), (26 bytes).

340 unused section(s) (total 18352 bytes) removed from the image.

==============================================================================

Image Symbol Table

    Local Symbols

    Symbol Name                              Value     Ov Type        Size  Object(Section)

    ../clib/microlib/init/entry.s            0x00000000   Number         0  entry8b.o ABSOLUTE
    ../clib/microlib/init/entry.s            0x00000000   Number         0  entry8a.o ABSOLUTE
    ../clib/microlib/init/entry.s            0x00000000   Number         0  entry11b.o ABSOLUTE
    ../clib/microlib/init/entry.s            0x00000000   Number         0  entry11a.o ABSOLUTE
    ../clib/microlib/init/entry.s            0x00000000   Number         0  entry10b.o ABSOLUTE
    ../clib/microlib/init/entry.s            0x00000000   Number         0  entry10a.o ABSOLUTE
    ../clib/microlib/init/entry.s            0x00000000   Number         0  entry7b.o ABSOLUTE
    ../clib/microlib/init/entry.s            0x00000000   Number         0  entry7a.o ABSOLUTE
    ../clib/microlib/init/entry.s            0x00000000   Number         0  entry2.o ABSOLUTE
    ../clib/microlib/init/entry.s            0x00000000   Number         0  entry9b.o ABSOLUTE
    ../clib/microlib/init/entry.s            0x00000000   Number         0  entry5.o ABSOLUTE
    ../clib/microlib/init/entry.s            0x00000000   Number         0  entry9a.o ABSOLUTE
    ../clib/microlib/init/entry.s            0x00000000   Number         0  entry.o ABSOLUTE
    ..\..\..\..\..\sdk\app_modules\src\app_bass\app_bass.c 0x00000000   Number         0  app_bass.o ABSOLUTE
    ..\..\..\..\..\sdk\app_modules\src\app_bass\app_bass_task.c 0x00000000   Number         0  app_bass_task.o ABSOLUTE
    ..\..\..\..\..\sdk\app_modules\src\app_bond_db\app_bond_db.c 0x00000000   Number         0  app_bond_db.o ABSOLUTE
    ..\..\..\..\..\sdk\app_modules\src\app_common\app.c 0x00000000   Number         0  app.o ABSOLUTE
    ..\..\..\..\..\sdk\app_modules\src\app_common\app_msg_utils.c 0x00000000   Number         0  app_msg_utils.o ABSOLUTE
    ..\..\..\..\..\sdk\app_modules\src\app_common\app_task.c 0x00000000   Number         0  app_task.o ABSOLUTE
    ..\..\..\..\..\sdk\app_modules\src\app_common\app_utils.c 0x00000000   Number         0  app_utils.o ABSOLUTE
    ..\..\..\..\..\sdk\app_modules\src\app_custs\app_customs.c 0x00000000   Number         0  app_customs.o ABSOLUTE
    ..\..\..\..\..\sdk\app_modules\src\app_custs\app_customs_common.c 0x00000000   Number         0  app_customs_common.o ABSOLUTE
    ..\..\..\..\..\sdk\app_modules\src\app_custs\app_customs_task.c 0x00000000   Number         0  app_customs_task.o ABSOLUTE
    ..\..\..\..\..\sdk\app_modules\src\app_default_hnd\app_default_handlers.c 0x00000000   Number         0  app_default_handlers.o ABSOLUTE
    ..\..\..\..\..\sdk\app_modules\src\app_diss\app_diss.c 0x00000000   Number         0  app_diss.o ABSOLUTE
    ..\..\..\..\..\sdk\app_modules\src\app_diss\app_diss_task.c 0x00000000   Number         0  app_diss_task.o ABSOLUTE
    ..\..\..\..\..\sdk\app_modules\src\app_easy\app_easy_msg_utils.c 0x00000000   Number         0  app_easy_msg_utils.o ABSOLUTE
    ..\..\..\..\..\sdk\app_modules\src\app_easy\app_easy_security.c 0x00000000   Number         0  app_easy_security.o ABSOLUTE
    ..\..\..\..\..\sdk\app_modules\src\app_easy\app_easy_timer.c 0x00000000   Number         0  app_easy_timer.o ABSOLUTE
    ..\..\..\..\..\sdk\app_modules\src\app_easy\app_easy_whitelist.c 0x00000000   Number         0  app_easy_whitelist.o ABSOLUTE
    ..\..\..\..\..\sdk\app_modules\src\app_entry\app_entry_point.c 0x00000000   Number         0  app_entry_point.o ABSOLUTE
    ..\..\..\..\..\sdk\app_modules\src\app_findme\app_findme.c 0x00000000   Number         0  app_findme.o ABSOLUTE
    ..\..\..\..\..\sdk\app_modules\src\app_findme\app_findme_task.c 0x00000000   Number         0  app_findme_task.o ABSOLUTE
    ..\..\..\..\..\sdk\app_modules\src\app_proxr\app_proxr.c 0x00000000   Number         0  app_proxr.o ABSOLUTE
    ..\..\..\..\..\sdk\app_modules\src\app_proxr\app_proxr_task.c 0x00000000   Number         0  app_proxr_task.o ABSOLUTE
    ..\..\..\..\..\sdk\app_modules\src\app_sec\app_security.c 0x00000000   Number         0  app_security.o ABSOLUTE
    ..\..\..\..\..\sdk\app_modules\src\app_sec\app_security_task.c 0x00000000   Number         0  app_security_task.o ABSOLUTE
    ..\..\..\..\..\sdk\app_modules\src\app_suotar\app_suotar.c 0x00000000   Number         0  app_suotar.o ABSOLUTE
    ..\..\..\..\..\sdk\app_modules\src\app_suotar\app_suotar_task.c 0x00000000   Number         0  app_suotar_task.o ABSOLUTE
    ..\..\..\..\..\sdk\ble_stack\host\att\attm\attm_db_128.c 0x00000000   Number         0  attm_db_128.o ABSOLUTE
    ..\..\..\..\..\sdk\ble_stack\profiles\anp\anpc\src\anpc.c 0x00000000   Number         0  anpc.o ABSOLUTE
    ..\..\..\..\..\sdk\ble_stack\profiles\anp\anpc\src\anpc_task.c 0x00000000   Number         0  anpc_task.o ABSOLUTE
    ..\..\..\..\..\sdk\ble_stack\profiles\anp\anps\src\anps.c 0x00000000   Number         0  anps.o ABSOLUTE
    ..\..\..\..\..\sdk\ble_stack\profiles\anp\anps\src\anps_task.c 0x00000000   Number         0  anps_task.o ABSOLUTE
    ..\..\..\..\..\sdk\ble_stack\profiles\bas\basc\src\basc.c 0x00000000   Number         0  basc.o ABSOLUTE
    ..\..\..\..\..\sdk\ble_stack\profiles\bas\basc\src\basc_task.c 0x00000000   Number         0  basc_task.o ABSOLUTE
    ..\..\..\..\..\sdk\ble_stack\profiles\bas\bass\src\bass.c 0x00000000   Number         0  bass.o ABSOLUTE
    ..\..\..\..\..\sdk\ble_stack\profiles\bas\bass\src\bass_task.c 0x00000000   Number         0  bass_task.o ABSOLUTE
    ..\..\..\..\..\sdk\ble_stack\profiles\blp\blpc\src\blpc.c 0x00000000   Number         0  blpc.o ABSOLUTE
    ..\..\..\..\..\sdk\ble_stack\profiles\blp\blpc\src\blpc_task.c 0x00000000   Number         0  blpc_task.o ABSOLUTE
    ..\..\..\..\..\sdk\ble_stack\profiles\blp\blps\src\blps.c 0x00000000   Number         0  blps.o ABSOLUTE
    ..\..\..\..\..\sdk\ble_stack\profiles\blp\blps\src\blps_task.c 0x00000000   Number         0  blps_task.o ABSOLUTE
    ..\..\..\..\..\sdk\ble_stack\profiles\cpp\cppc\src\cppc.c 0x00000000   Number         0  cppc.o ABSOLUTE
    ..\..\..\..\..\sdk\ble_stack\profiles\cpp\cppc\src\cppc_task.c 0x00000000   Number         0  cppc_task.o ABSOLUTE
    ..\..\..\..\..\sdk\ble_stack\profiles\cpp\cpps\src\cpps.c 0x00000000   Number         0  cpps.o ABSOLUTE
    ..\..\..\..\..\sdk\ble_stack\profiles\cpp\cpps\src\cpps_task.c 0x00000000   Number         0  cpps_task.o ABSOLUTE
    ..\..\..\..\..\sdk\ble_stack\profiles\cscp\cscpc\src\cscpc.c 0x00000000   Number         0  cscpc.o ABSOLUTE
    ..\..\..\..\..\sdk\ble_stack\profiles\cscp\cscpc\src\cscpc_task.c 0x00000000   Number         0  cscpc_task.o ABSOLUTE
    ..\..\..\..\..\sdk\ble_stack\profiles\cscp\cscps\src\cscps.c 0x00000000   Number         0  cscps.o ABSOLUTE
    ..\..\..\..\..\sdk\ble_stack\profiles\cscp\cscps\src\cscps_task.c 0x00000000   Number         0  cscps_task.o ABSOLUTE
    ..\..\..\..\..\sdk\ble_stack\profiles\custom\custom_common.c 0x00000000   Number         0  custom_common.o ABSOLUTE
    ..\..\..\..\..\sdk\ble_stack\profiles\custom\custs\src\custs1.c 0x00000000   Number         0  custs1.o ABSOLUTE
    ..\..\..\..\..\sdk\ble_stack\profiles\custom\custs\src\custs1_task.c 0x00000000   Number         0  custs1_task.o ABSOLUTE
    ..\..\..\..\..\sdk\ble_stack\profiles\custom\custs\src\custs2.c 0x00000000   Number         0  custs2.o ABSOLUTE
    ..\..\..\..\..\sdk\ble_stack\profiles\custom\custs\src\custs2_task.c 0x00000000   Number         0  custs2_task.o ABSOLUTE
    ..\..\..\..\..\sdk\ble_stack\profiles\dis\disc\src\disc.c 0x00000000   Number         0  disc.o ABSOLUTE
    ..\..\..\..\..\sdk\ble_stack\profiles\dis\disc\src\disc_task.c 0x00000000   Number         0  disc_task.o ABSOLUTE
    ..\..\..\..\..\sdk\ble_stack\profiles\dis\diss\src\diss.c 0x00000000   Number         0  diss.o ABSOLUTE
    ..\..\..\..\..\sdk\ble_stack\profiles\dis\diss\src\diss_task.c 0x00000000   Number         0  diss_task.o ABSOLUTE
    ..\..\..\..\..\sdk\ble_stack\profiles\find\findl\src\findl.c 0x00000000   Number         0  findl.o ABSOLUTE
    ..\..\..\..\..\sdk\ble_stack\profiles\find\findl\src\findl_task.c 0x00000000   Number         0  findl_task.o ABSOLUTE
    ..\..\..\..\..\sdk\ble_stack\profiles\find\findt\src\findt.c 0x00000000   Number         0  findt.o ABSOLUTE
    ..\..\..\..\..\sdk\ble_stack\profiles\find\findt\src\findt_task.c 0x00000000   Number         0  findt_task.o ABSOLUTE
    ..\..\..\..\..\sdk\ble_stack\profiles\glp\glpc\src\glpc.c 0x00000000   Number         0  glpc.o ABSOLUTE
    ..\..\..\..\..\sdk\ble_stack\profiles\glp\glpc\src\glpc_task.c 0x00000000   Number         0  glpc_task.o ABSOLUTE
    ..\..\..\..\..\sdk\ble_stack\profiles\glp\glps\src\glps.c 0x00000000   Number         0  glps.o ABSOLUTE
    ..\..\..\..\..\sdk\ble_stack\profiles\glp\glps\src\glps_task.c 0x00000000   Number         0  glps_task.o ABSOLUTE
    ..\..\..\..\..\sdk\ble_stack\profiles\hogp\hogpbh\src\hogpbh.c 0x00000000   Number         0  hogpbh.o ABSOLUTE
    ..\..\..\..\..\sdk\ble_stack\profiles\hogp\hogpbh\src\hogpbh_task.c 0x00000000   Number         0  hogpbh_task.o ABSOLUTE
    ..\..\..\..\..\sdk\ble_stack\profiles\hogp\hogpd\src\hogpd.c 0x00000000   Number         0  hogpd.o ABSOLUTE
    ..\..\..\..\..\sdk\ble_stack\profiles\hogp\hogpd\src\hogpd_task.c 0x00000000   Number         0  hogpd_task.o ABSOLUTE
    ..\..\..\..\..\sdk\ble_stack\profiles\hogp\hogprh\src\hogprh.c 0x00000000   Number         0  hogprh.o ABSOLUTE
    ..\..\..\..\..\sdk\ble_stack\profiles\hogp\hogprh\src\hogprh_task.c 0x00000000   Number         0  hogprh_task.o ABSOLUTE
    ..\..\..\..\..\sdk\ble_stack\profiles\hrp\hrpc\src\hrpc.c 0x00000000   Number         0  hrpc.o ABSOLUTE
    ..\..\..\..\..\sdk\ble_stack\profiles\hrp\hrpc\src\hrpc_task.c 0x00000000   Number         0  hrpc_task.o ABSOLUTE
    ..\..\..\..\..\sdk\ble_stack\profiles\hrp\hrps\src\hrps.c 0x00000000   Number         0  hrps.o ABSOLUTE
    ..\..\..\..\..\sdk\ble_stack\profiles\hrp\hrps\src\hrps_task.c 0x00000000   Number         0  hrps_task.o ABSOLUTE
    ..\..\..\..\..\sdk\ble_stack\profiles\htp\htpc\src\htpc.c 0x00000000   Number         0  htpc.o ABSOLUTE
    ..\..\..\..\..\sdk\ble_stack\profiles\htp\htpc\src\htpc_task.c 0x00000000   Number         0  htpc_task.o ABSOLUTE
    ..\..\..\..\..\sdk\ble_stack\profiles\htp\htpt\src\htpt.c 0x00000000   Number         0  htpt.o ABSOLUTE
    ..\..\..\..\..\sdk\ble_stack\profiles\htp\htpt\src\htpt_task.c 0x00000000   Number         0  htpt_task.o ABSOLUTE
    ..\..\..\..\..\sdk\ble_stack\profiles\lan\lanc\src\lanc.c 0x00000000   Number         0  lanc.o ABSOLUTE
    ..\..\..\..\..\sdk\ble_stack\profiles\lan\lanc\src\lanc_task.c 0x00000000   Number         0  lanc_task.o ABSOLUTE
    ..\..\..\..\..\sdk\ble_stack\profiles\lan\lans\src\lans.c 0x00000000   Number         0  lans.o ABSOLUTE
    ..\..\..\..\..\sdk\ble_stack\profiles\lan\lans\src\lans_task.c 0x00000000   Number         0  lans_task.o ABSOLUTE
    ..\..\..\..\..\sdk\ble_stack\profiles\pasp\paspc\src\paspc.c 0x00000000   Number         0  paspc.o ABSOLUTE
    ..\..\..\..\..\sdk\ble_stack\profiles\pasp\paspc\src\paspc_task.c 0x00000000   Number         0  paspc_task.o ABSOLUTE
    ..\..\..\..\..\sdk\ble_stack\profiles\pasp\pasps\src\pasps.c 0x00000000   Number         0  pasps.o ABSOLUTE
    ..\..\..\..\..\sdk\ble_stack\profiles\pasp\pasps\src\pasps_task.c 0x00000000   Number         0  pasps_task.o ABSOLUTE
    ..\..\..\..\..\sdk\ble_stack\profiles\prf.c 0x00000000   Number         0  prf.o ABSOLUTE
    ..\..\..\..\..\sdk\ble_stack\profiles\prf_utils.c 0x00000000   Number         0  prf_utils.o ABSOLUTE
    ..\..\..\..\..\sdk\ble_stack\profiles\prox\proxm\src\proxm.c 0x00000000   Number         0  proxm.o ABSOLUTE
    ..\..\..\..\..\sdk\ble_stack\profiles\prox\proxm\src\proxm_task.c 0x00000000   Number         0  proxm_task.o ABSOLUTE
    ..\..\..\..\..\sdk\ble_stack\profiles\prox\proxr\src\proxr.c 0x00000000   Number         0  proxr.o ABSOLUTE
    ..\..\..\..\..\sdk\ble_stack\profiles\prox\proxr\src\proxr_task.c 0x00000000   Number         0  proxr_task.o ABSOLUTE
    ..\..\..\..\..\sdk\ble_stack\profiles\rscp\rscpc\src\rscpc.c 0x00000000   Number         0  rscpc.o ABSOLUTE
    ..\..\..\..\..\sdk\ble_stack\profiles\rscp\rscpc\src\rscpc_task.c 0x00000000   Number         0  rscpc_task.o ABSOLUTE
    ..\..\..\..\..\sdk\ble_stack\profiles\rscp\rscps\src\rscps.c 0x00000000   Number         0  rscps.o ABSOLUTE
    ..\..\..\..\..\sdk\ble_stack\profiles\rscp\rscps\src\rscps_task.c 0x00000000   Number         0  rscps_task.o ABSOLUTE
    ..\..\..\..\..\sdk\ble_stack\profiles\scpp\scppc\src\scppc.c 0x00000000   Number         0  scppc.o ABSOLUTE
    ..\..\..\..\..\sdk\ble_stack\profiles\scpp\scppc\src\scppc_task.c 0x00000000   Number         0  scppc_task.o ABSOLUTE
    ..\..\..\..\..\sdk\ble_stack\profiles\scpp\scpps\src\scpps.c 0x00000000   Number         0  scpps.o ABSOLUTE
    ..\..\..\..\..\sdk\ble_stack\profiles\scpp\scpps\src\scpps_task.c 0x00000000   Number         0  scpps_task.o ABSOLUTE
    ..\..\..\..\..\sdk\ble_stack\profiles\suota\suotar\src\suotar.c 0x00000000   Number         0  suotar.o ABSOLUTE
    ..\..\..\..\..\sdk\ble_stack\profiles\suota\suotar\src\suotar_task.c 0x00000000   Number         0  suotar_task.o ABSOLUTE
    ..\..\..\..\..\sdk\ble_stack\profiles\tip\tipc\src\tipc.c 0x00000000   Number         0  tipc.o ABSOLUTE
    ..\..\..\..\..\sdk\ble_stack\profiles\tip\tipc\src\tipc_task.c 0x00000000   Number         0  tipc_task.o ABSOLUTE
    ..\..\..\..\..\sdk\ble_stack\profiles\tip\tips\src\tips.c 0x00000000   Number         0  tips.o ABSOLUTE
    ..\..\..\..\..\sdk\ble_stack\profiles\tip\tips\src\tips_task.c 0x00000000   Number         0  tips_task.o ABSOLUTE
    ..\..\..\..\..\sdk\ble_stack\rwble\rwble.c 0x00000000   Number         0  rwble.o ABSOLUTE
    ..\..\..\..\..\sdk\platform\arch\boot\ARM\startup_DA14531.s 0x00000000   Number         0  startup_da14531.o ABSOLUTE
    ..\..\..\..\..\sdk\platform\arch\boot\system_DA14531.c 0x00000000   Number         0  system_da14531.o ABSOLUTE
    ..\..\..\..\..\sdk\platform\arch\main\arch_hibernation.c 0x00000000   Number         0  arch_hibernation.o ABSOLUTE
    ..\..\..\..\..\sdk\platform\arch\main\arch_main.c 0x00000000   Number         0  arch_main.o ABSOLUTE
    ..\..\..\..\..\sdk\platform\arch\main\arch_rom.c 0x00000000   Number         0  arch_rom.o ABSOLUTE
    ..\..\..\..\..\sdk\platform\arch\main\arch_sleep.c 0x00000000   Number         0  arch_sleep.o ABSOLUTE
    ..\..\..\..\..\sdk\platform\arch\main\arch_system.c 0x00000000   Number         0  arch_system.o ABSOLUTE
    ..\..\..\..\..\sdk\platform\arch\main\hardfault_handler.c 0x00000000   Number         0  hardfault_handler.o ABSOLUTE
    ..\..\..\..\..\sdk\platform\arch\main\jump_table.c 0x00000000   Number         0  jump_table.o ABSOLUTE
    ..\..\..\..\..\sdk\platform\arch\main\nmi_handler.c 0x00000000   Number         0  nmi_handler.o ABSOLUTE
    ..\..\..\..\..\sdk\platform\core_modules\arch_console\arch_console.c 0x00000000   Number         0  arch_console.o ABSOLUTE
    ..\..\..\..\..\sdk\platform\core_modules\nvds\src\nvds.c 0x00000000   Number         0  nvds.o ABSOLUTE
    ..\..\..\..\..\sdk\platform\core_modules\rf\src\ble_arp.c 0x00000000   Number         0  ble_arp.o ABSOLUTE
    ..\..\..\..\..\sdk\platform\core_modules\rf\src\rf_531.c 0x00000000   Number         0  rf_531.o ABSOLUTE
    ..\..\..\..\..\sdk\platform\core_modules\rf\src\rf_585.c 0x00000000   Number         0  rf_585.o ABSOLUTE
    ..\..\..\..\..\sdk\platform\core_modules\rwip\src\rwip.c 0x00000000   Number         0  rwip.o ABSOLUTE
    ..\..\..\..\..\sdk\platform\driver\adc\adc_531.c 0x00000000   Number         0  adc_531.o ABSOLUTE
    ..\..\..\..\..\sdk\platform\driver\battery\battery.c 0x00000000   Number         0  battery.o ABSOLUTE
    ..\..\..\..\..\sdk\platform\driver\dma\dma.c 0x00000000   Number         0  dma.o ABSOLUTE
    ..\..\..\..\..\sdk\platform\driver\gpio\gpio.c 0x00000000   Number         0  gpio.o ABSOLUTE
    ..\..\..\..\..\sdk\platform\driver\hw_otpc\hw_otpc_531.c 0x00000000   Number         0  hw_otpc_531.o ABSOLUTE
    ..\..\..\..\..\sdk\platform\driver\i2c\i2c.c 0x00000000   Number         0  i2c.o ABSOLUTE
    ..\..\..\..\..\sdk\platform\driver\i2c_eeprom\i2c_eeprom.c 0x00000000   Number         0  i2c_eeprom.o ABSOLUTE
    ..\..\..\..\..\sdk\platform\driver\spi\spi_531.c 0x00000000   Number         0  spi_531.o ABSOLUTE
    ..\..\..\..\..\sdk\platform\driver\spi_flash\spi_flash.c 0x00000000   Number         0  spi_flash.o ABSOLUTE
    ..\..\..\..\..\sdk\platform\driver\syscntl\syscntl.c 0x00000000   Number         0  syscntl.o ABSOLUTE
    ..\..\..\..\..\sdk\platform\driver\systick\systick.c 0x00000000   Number         0  systick.o ABSOLUTE
    ..\..\..\..\..\sdk\platform\driver\trng\trng.c 0x00000000   Number         0  trng.o ABSOLUTE
    ..\..\..\..\..\sdk\platform\driver\uart\uart.c 0x00000000   Number         0  uart.o ABSOLUTE
    ..\..\..\..\..\sdk\platform\driver\wkupct_quadec\wkupct_quadec.c 0x00000000   Number         0  wkupct_quadec.o ABSOLUTE
    ..\..\..\..\..\sdk\platform\utilities\otp_cs\otp_cs.c 0x00000000   Number         0  otp_cs.o ABSOLUTE
    ..\..\..\..\..\sdk\platform\utilities\otp_hdr\otp_hdr.c 0x00000000   Number         0  otp_hdr.o ABSOLUTE
    ..\..\..\..\..\third_party\hash\hash.c   0x00000000   Number         0  hash.o ABSOLUTE
    ..\..\..\..\..\third_party\rand\chacha20.c 0x00000000   Number         0  chacha20.o ABSOLUTE
    ..\..\src\DA14531\patch.c                0x00000000   Number         0  patch.o ABSOLUTE
    ..\src\accel_lis2dh_impl.c               0x00000000   Number         0  accel_lis2dh_impl.o ABSOLUTE
    ..\src\custom_profile\user_custs1_def.c  0x00000000   Number         0  user_custs1_def.o ABSOLUTE
    ..\src\custom_profile\user_custs_config.c 0x00000000   Number         0  user_custs_config.o ABSOLUTE
    ..\src\i2c_impl.c                        0x00000000   Number         0  i2c_impl.o ABSOLUTE
    ..\src\lis2dh_driver.c                   0x00000000   Number         0  lis2dh_driver.o ABSOLUTE
    ..\src\platform\user_periph_setup.c      0x00000000   Number         0  user_periph_setup.o ABSOLUTE
    ..\src\spi_impl.c                        0x00000000   Number         0  spi_impl.o ABSOLUTE
    ..\src\user_lis2dh_app.c                 0x00000000   Number         0  user_lis2dh_app.o ABSOLUTE
    handlers.s                               0x00000000   Number         0  handlers.o ABSOLUTE
    init.s                                   0x00000000   Number         0  init.o ABSOLUTE
    RESET                                    0x07fc0000   Section      160  startup_da14531.o(RESET)
    otp_cs_booter                            0x07fc00a0   Section        8  otp_cs.o(otp_cs_booter)
    .ARM.Collect$$$$00000000                 0x07fc0110   Section        0  entry.o(.ARM.Collect$$$$00000000)
    .ARM.Collect$$$$00000001                 0x07fc0110   Section        4  entry2.o(.ARM.Collect$$$$00000001)
    .ARM.Collect$$$$00000004                 0x07fc0114   Section        4  entry5.o(.ARM.Collect$$$$00000004)
    .ARM.Collect$$$$00000008                 0x07fc0118   Section        0  entry7b.o(.ARM.Collect$$$$00000008)
    .ARM.Collect$$$$0000000A                 0x07fc0118   Section        0  entry8b.o(.ARM.Collect$$$$0000000A)
    .ARM.Collect$$$$0000000B                 0x07fc0118   Section        8  entry9a.o(.ARM.Collect$$$$0000000B)
    .ARM.Collect$$$$0000000D                 0x07fc0120   Section        0  entry10a.o(.ARM.Collect$$$$0000000D)
    .ARM.Collect$$$$0000000F                 0x07fc0120   Section        0  entry11a.o(.ARM.Collect$$$$0000000F)
    .ARM.Collect$$$$00002712                 0x07fc0120   Section        4  entry2.o(.ARM.Collect$$$$00002712)
    __lit__00000000                          0x07fc0120   Data           4  entry2.o(.ARM.Collect$$$$00002712)
    .text                                    0x07fc0124   Section        0  system_da14531.o(.text)
    __NVIC_DisableIRQ                        0x07fc0189   Thumb Code    26  system_da14531.o(.text)
    .text                                    0x07fc01b8   Section       80  startup_da14531.o(.text)
    NMI_Handler                              0x07fc01c1   Thumb Code    24  startup_da14531.o(.text)
    HardFault_Handler                        0x07fc01d9   Thumb Code    24  startup_da14531.o(.text)
    .text                                    0x07fc0208   Section        0  hardfault_handler.o(.text)
    .text                                    0x07fc02a0   Section        0  nmi_handler.o(.text)
    .text                                    0x07fc0360   Section        0  arch_console.o(.text)
    uart_write_adapt                         0x07fc0361   Thumb Code    30  arch_console.o(.text)
    uart_finish_transfers_adapt              0x07fc037f   Thumb Code    10  arch_console.o(.text)
    .text                                    0x07fc038c   Section        0  arch_main.o(.text)
    arch_resume_from_sleep                   0x07fc0445   Thumb Code   120  arch_main.o(.text)
    arch_goto_sleep                          0x07fc04bd   Thumb Code   108  arch_main.o(.text)
    init_retention_mode                      0x07fc0529   Thumb Code   114  arch_main.o(.text)
    arch_turn_peripherals_off                0x07fc059b   Thumb Code   174  arch_main.o(.text)
    .text                                    0x07fc0698   Section        0  jump_table.o(.text)
    .text                                    0x07fc06e8   Section        0  arch_sleep.o(.text)
    .text                                    0x07fc080c   Section        0  arch_system.o(.text)
    .text                                    0x07fc0cf4   Section        0  arch_rom.o(.text)
    .text                                    0x07fc0e50   Section        0  otp_cs.o(.text)
    calc_adc_ge                              0x07fc1119   Thumb Code    16  otp_cs.o(.text)
    calc_adc_offset                          0x07fc1129   Thumb Code    12  otp_cs.o(.text)
    .text                                    0x07fc1164   Section        0  otp_hdr.o(.text)
    .text                                    0x07fc1174   Section        0  syscntl.o(.text)
    dcdc_cfg                                 0x07fc11b3   Thumb Code    58  syscntl.o(.text)
    .text                                    0x07fc128c   Section        0  gpio.o(.text)
    gpioshift16                              0x07fc1493   Thumb Code    32  gpio.o(.text)
    .text                                    0x07fc14c8   Section        0  wkupct_quadec.o(.text)
    __NVIC_SetPriority                       0x07fc14c9   Thumb Code    60  wkupct_quadec.o(.text)
    __NVIC_EnableIRQ                         0x07fc15e3   Thumb Code    18  wkupct_quadec.o(.text)
    .text                                    0x07fc160c   Section        0  adc_531.o(.text)
    adc_configure                            0x07fc164f   Thumb Code   252  adc_531.o(.text)
    __NVIC_DisableIRQ                        0x07fc17eb   Thumb Code    26  adc_531.o(.text)
    .text                                    0x07fc1820   Section        0  trng.o(.text)
    .text                                    0x07fc18a4   Section        0  systick.o(.text)
    .text                                    0x07fc18b4   Section        0  uart.o(.text)
    __NVIC_SetPriority                       0x07fc18b5   Thumb Code    60  uart.o(.text)
    uart_rx_isr                              0x07fc18f1   Thumb Code    72  uart.o(.text)
    __NVIC_EnableIRQ                         0x07fc1b09   Thumb Code    18  uart.o(.text)
    __NVIC_DisableIRQ                        0x07fc1b1b   Thumb Code    28  uart.o(.text)
    uart_intr_hndl                           0x07fc1b37   Thumb Code   156  uart.o(.text)
    uart_tx_isr                              0x07fc1bd3   Thumb Code   100  uart.o(.text)
    .text                                    0x07fc1c50   Section        0  hw_otpc_531.o(.text)
    dcdc_cfg                                 0x07fc1c51   Thumb Code    46  hw_otpc_531.o(.text)
    .text                                    0x07fc1de0   Section        0  i2c.o(.text)
    rx_reply                                 0x07fc1fad   Thumb Code    30  i2c.o(.text)
    intr_master_receive_buffer_handler       0x07fc1fcb   Thumb Code   128  i2c.o(.text)
    __NVIC_ClearPendingIRQ                   0x07fc208b   Thumb Code    18  i2c.o(.text)
    .text                                    0x07fc20b4   Section        0  rwble.o(.text)
    .text                                    0x07fc2290   Section        0  rwip.o(.text)
    get_max_sleep_duration                   0x07fc242b   Thumb Code     8  rwip.o(.text)
    .text                                    0x07fc2470   Section        0  ble_arp.o(.text)
    rf_reset                                 0x07fc2477   Thumb Code     2  ble_arp.o(.text)
    rf_rssi_convert                          0x07fc2479   Thumb Code    36  ble_arp.o(.text)
    RADIOCNTL_Handler                        0x07fc249d   Thumb Code     2  ble_arp.o(.text)
    rf_force_agc_enable                      0x07fc249f   Thumb Code     2  ble_arp.o(.text)
    rf_txpwr_dbm_get                         0x07fc24a1   Thumb Code    36  ble_arp.o(.text)
    rf_sleep                                 0x07fc24c5   Thumb Code    24  ble_arp.o(.text)
    rf_regs                                  0x07fc24dd   Thumb Code    52  ble_arp.o(.text)
    update_radiopwrupdn_pref_setting         0x07fc264b   Thumb Code    32  ble_arp.o(.text)
    ble_update_arp_adpll_div_val             0x07fc266b   Thumb Code    32  ble_arp.o(.text)
    ble_update_arp_adpll_calib_vals          0x07fc268b   Thumb Code    34  ble_arp.o(.text)
    ble_update_arp                           0x07fc26ad   Thumb Code    86  ble_arp.o(.text)
    .text                                    0x07fc2740   Section        0  rf_531.o(.text)
    .text                                    0x07fc2c0c   Section        0  custs1_task.o(.text)
    gattc_write_req_ind_handler              0x07fc2c0d   Thumb Code   290  custs1_task.o(.text)
    .text                                    0x07fc2d3c   Section        0  prf.o(.text)
    .text                                    0x07fc2ddc   Section        0  app_default_handlers.o(.text)
    .text                                    0x07fc2f2c   Section        0  app.o(.text)
    app_task_in_user_app                     0x07fc2f2d   Thumb Code    32  app.o(.text)
    app_easy_gap_undirected_advertise_start_create_msg 0x07fc3079   Thumb Code    72  app.o(.text)
    app_easy_gap_dev_config_create_msg       0x07fc30c1   Thumb Code    98  app.o(.text)
    .text                                    0x07fc31bc   Section        0  app_task.o(.text)
    gapm_device_ready_ind_handler            0x07fc31bd   Thumb Code    40  app_task.o(.text)
    gapm_cmp_evt_handler                     0x07fc31e5   Thumb Code    52  app_task.o(.text)
    gapc_connection_req_ind_handler          0x07fc3219   Thumb Code   108  app_task.o(.text)
    gapc_cmp_evt_handler                     0x07fc3285   Thumb Code    18  app_task.o(.text)
    gapc_disconnect_ind_handler              0x07fc3297   Thumb Code    48  app_task.o(.text)
    gapc_get_dev_info_req_ind_handler        0x07fc32c7   Thumb Code   162  app_task.o(.text)
    .text                                    0x07fc3394   Section        0  app_security.o(.text)
    .text                                    0x07fc33d0   Section        0  app_security_task.o(.text)
    gapc_bond_req_ind_handler                0x07fc33d1   Thumb Code    68  app_security_task.o(.text)
    gapc_bond_ind_handler                    0x07fc3415   Thumb Code   144  app_security_task.o(.text)
    gapc_encrypt_req_ind_handler             0x07fc34a5   Thumb Code     4  app_security_task.o(.text)
    gapc_encrypt_ind_handler                 0x07fc34a9   Thumb Code    20  app_security_task.o(.text)
    gapm_addr_solved_ind_handler             0x07fc34bd   Thumb Code     4  app_security_task.o(.text)
    gapm_ral_size_ind_handler                0x07fc34c1   Thumb Code     4  app_security_task.o(.text)
    gapm_ral_addr_ind_handler                0x07fc34c5   Thumb Code     4  app_security_task.o(.text)
    .text                                    0x07fc34ec   Section        0  app_diss.o(.text)
    .text                                    0x07fc3528   Section        0  app_diss_task.o(.text)
    diss_value_req_ind_handler               0x07fc3529   Thumb Code   116  app_diss_task.o(.text)
    .text                                    0x07fc3608   Section        0  app_msg_utils.o(.text)
    .text                                    0x07fc3630   Section        0  app_easy_msg_utils.o(.text)
    app_easy_msg_find_idx                    0x07fc3663   Thumb Code    18  app_easy_msg_utils.o(.text)
    .text                                    0x07fc367c   Section        0  app_easy_security.o(.text)
    pairing_rsp_create_msg                   0x07fc367d   Thumb Code    54  app_easy_security.o(.text)
    tk_exch_create_msg                       0x07fc36c9   Thumb Code    40  app_easy_security.o(.text)
    ltk_exch_create_msg                      0x07fc372b   Thumb Code    44  app_easy_security.o(.text)
    .text                                    0x07fc37b4   Section        0  app_easy_timer.o(.text)
    timer_canceled_handler                   0x07fc37b5   Thumb Code     2  app_easy_timer.o(.text)
    .text                                    0x07fc37b6   Section        0  app_easy_timer.o(.text)
    timer_modified_handler                   0x07fc37b7   Thumb Code     2  app_easy_timer.o(.text)
    .text                                    0x07fc37b8   Section        0  app_easy_timer.o(.text)
    create_timer                             0x07fc37b9   Thumb Code    56  app_easy_timer.o(.text)
    cancel_timer_handler                     0x07fc389d   Thumb Code    82  app_easy_timer.o(.text)
    .text                                    0x07fc3908   Section        0  app_customs.o(.text)
    .text                                    0x07fc3968   Section        0  app_customs_task.o(.text)
    .text                                    0x07fc3980   Section        0  app_utils.o(.text)
    .text                                    0x07fc398c   Section        0  user_periph_setup.o(.text)
    .text                                    0x07fc3b0c   Section        0  accel_lis2dh_impl.o(.text)
    .text                                    0x07fc3bdc   Section        0  i2c_impl.o(.text)
    .text                                    0x07fc3cec   Section        0  lis2dh_driver.o(.text)
    .text                                    0x07fc4090   Section        0  user_lis2dh_app.o(.text)
    accel_int_cb                             0x07fc4091   Thumb Code     8  user_lis2dh_app.o(.text)
    i2c_async_complete                       0x07fc4099   Thumb Code    22  user_lis2dh_app.o(.text)
    handle_accel_data                        0x07fc40e5   Thumb Code    98  user_lis2dh_app.o(.text)
    .text                                    0x07fc41ec   Section        0  patch.o(.text)
    PATCHED_smpc_recv_pair_rand_pdu          0x07fc4905   Thumb Code   272  patch.o(.text)
    .text                                    0x07fc4dbc   Section       36  init.o(.text)
    i.__ARM_common_ll_muluu                  0x07fc4de0   Section        0  arch_system.o(i.__ARM_common_ll_muluu)
    i.__scatterload_copy                     0x07fc4e10   Section       14  handlers.o(i.__scatterload_copy)
    i.__scatterload_null                     0x07fc4e1e   Section        2  handlers.o(i.__scatterload_null)
    i.__scatterload_zeroinit                 0x07fc4e20   Section       14  handlers.o(i.__scatterload_zeroinit)
    .constdata                               0x07fc4e30   Section       36  arch_console.o(.constdata)
    .constdata                               0x07fc4e54   Section       14  nvds.o(.constdata)
    nvds_data_storage                        0x07fc4e54   Data          14  nvds.o(.constdata)
    .constdata                               0x07fc4e64   Section        8  nvds.o(.constdata)
    .constdata                               0x07fc4e6c   Section      380  jump_table.o(.constdata)
    .constdata                               0x07fc4fe8   Section      236  jump_table.o(.constdata)
    .constdata                               0x07fc50d4   Section        8  arch_system.o(.constdata)
    .constdata                               0x07fc50dc   Section      112  arch_rom.o(.constdata)
    .constdata                               0x07fc514c   Section        2  gpio.o(.constdata)
    p_mask                                   0x07fc514c   Data           2  gpio.o(.constdata)
    .constdata                               0x07fc5150   Section       28  hw_otpc_531.o(.constdata)
    tim1                                     0x07fc5150   Data          28  hw_otpc_531.o(.constdata)
    .constdata                               0x07fc516c   Section      112  ble_arp.o(.constdata)
    .constdata                               0x07fc51dc   Section       16  custs1.o(.constdata)
    .constdata                               0x07fc51ec   Section       72  custs1_task.o(.constdata)
    .constdata                               0x07fc5234   Section        8  custs1_task.o(.constdata)
    .constdata                               0x07fc523c   Section       24  prf.o(.constdata)
    .constdata                               0x07fc5254   Section       12  prf.o(.constdata)
    .constdata                               0x07fc5260   Section       80  app.o(.constdata)
    user_adv_conf                            0x07fc5260   Data          16  app.o(.constdata)
    user_prf_funcs                           0x07fc5270   Data          12  app.o(.constdata)
    TASK_DESC_APP                            0x07fc5294   Data          16  app.o(.constdata)
    <Data1>                                  0x07fc52a4   Data          12  app.o(.constdata)
    .constdata                               0x07fc52b0   Section      112  app_task.o(.constdata)
    app_gap_process_handlers                 0x07fc52b0   Data         112  app_task.o(.constdata)
    .constdata                               0x07fc5320   Section       56  app_security_task.o(.constdata)
    app_sec_process_handlers                 0x07fc5320   Data          56  app_security_task.o(.constdata)
    .constdata                               0x07fc5358   Section        8  app_diss_task.o(.constdata)
    app_diss_process_handlers                0x07fc5358   Data           8  app_diss_task.o(.constdata)
    .constdata                               0x07fc5360   Section      140  app_entry_point.o(.constdata)
    user_app_callbacks                       0x07fc5360   Data         140  app_entry_point.o(.constdata)
    .constdata                               0x07fc53ec   Section       28  app_entry_point.o(.constdata)
    .constdata                               0x07fc5408   Section       32  app_entry_point.o(.constdata)
    .constdata                               0x07fc5428   Section        7  app_easy_security.o(.constdata)
    user_security_conf                       0x07fc5428   Data           7  app_easy_security.o(.constdata)
    .constdata                               0x07fc5430   Section       56  user_custs_config.o(.constdata)
    .constdata                               0x07fc5468   Section       16  user_custs1_def.o(.constdata)
    custs1_svc1                              0x07fc5468   Data          16  user_custs1_def.o(.constdata)
    .constdata                               0x07fc5478   Section       16  user_custs1_def.o(.constdata)
    SVC1_CTRL_POINT_UUID_128                 0x07fc5478   Data          16  user_custs1_def.o(.constdata)
    .constdata                               0x07fc5488   Section       16  user_custs1_def.o(.constdata)
    SVC1_LED_STATE_UUID_128                  0x07fc5488   Data          16  user_custs1_def.o(.constdata)
    .constdata                               0x07fc5498   Section       16  user_custs1_def.o(.constdata)
    SVC1_ADC_VAL_1_UUID_128                  0x07fc5498   Data          16  user_custs1_def.o(.constdata)
    .constdata                               0x07fc54a8   Section       16  user_custs1_def.o(.constdata)
    SVC1_ADC_VAL_2_UUID_128                  0x07fc54a8   Data          16  user_custs1_def.o(.constdata)
    .constdata                               0x07fc54b8   Section       16  user_custs1_def.o(.constdata)
    SVC1_BUTTON_STATE_UUID_128               0x07fc54b8   Data          16  user_custs1_def.o(.constdata)
    .constdata                               0x07fc54c8   Section       16  user_custs1_def.o(.constdata)
    SVC1_INDICATEABLE_UUID_128               0x07fc54c8   Data          16  user_custs1_def.o(.constdata)
    .constdata                               0x07fc54d8   Section       16  user_custs1_def.o(.constdata)
    SVC1_LONG_VALUE_UUID_128                 0x07fc54d8   Data          16  user_custs1_def.o(.constdata)
    .constdata                               0x07fc54e8   Section       16  user_custs1_def.o(.constdata)
    custs1_svc2                              0x07fc54e8   Data          16  user_custs1_def.o(.constdata)
    .constdata                               0x07fc54f8   Section       16  user_custs1_def.o(.constdata)
    SVC2_WRITE_VAL_1_UUID_128                0x07fc54f8   Data          16  user_custs1_def.o(.constdata)
    .constdata                               0x07fc5508   Section       16  user_custs1_def.o(.constdata)
    SVC2_WRITE_VAL_2_UUID_128                0x07fc5508   Data          16  user_custs1_def.o(.constdata)
    .constdata                               0x07fc5518   Section       16  user_custs1_def.o(.constdata)
    custs1_svc3                              0x07fc5518   Data          16  user_custs1_def.o(.constdata)
    .constdata                               0x07fc5528   Section       16  user_custs1_def.o(.constdata)
    SVC3_READ_VAL_1_UUID_128                 0x07fc5528   Data          16  user_custs1_def.o(.constdata)
    .constdata                               0x07fc5538   Section       16  user_custs1_def.o(.constdata)
    SVC3_READ_VAL_2_UUID_128                 0x07fc5538   Data          16  user_custs1_def.o(.constdata)
    .constdata                               0x07fc5548   Section       16  user_custs1_def.o(.constdata)
    SVC3_READ_VAL_3_UUID_128                 0x07fc5548   Data          16  user_custs1_def.o(.constdata)
    .constdata                               0x07fc5558   Section        2  user_custs1_def.o(.constdata)
    att_decl_svc                             0x07fc5558   Data           2  user_custs1_def.o(.constdata)
    .constdata                               0x07fc555a   Section        2  user_custs1_def.o(.constdata)
    att_decl_char                            0x07fc555a   Data           2  user_custs1_def.o(.constdata)
    .constdata                               0x07fc555c   Section        2  user_custs1_def.o(.constdata)
    att_desc_cfg                             0x07fc555c   Data           2  user_custs1_def.o(.constdata)
    .constdata                               0x07fc555e   Section        2  user_custs1_def.o(.constdata)
    att_desc_user_desc                       0x07fc555e   Data           2  user_custs1_def.o(.constdata)
    .constdata                               0x07fc5560   Section        4  user_custs1_def.o(.constdata)
    .constdata                               0x07fc5564   Section        1  user_custs1_def.o(.constdata)
    .constdata                               0x07fc5568   Section      900  user_custs1_def.o(.constdata)
    .constdata                               0x07fc58ec   Section       24  user_periph_setup.o(.constdata)
    uart_cfg                                 0x07fc58ec   Data          24  user_periph_setup.o(.constdata)
    .constdata                               0x07fc5904   Section       36  user_lis2dh_app.o(.constdata)
    __func__                                 0x07fc5904   Data          36  user_lis2dh_app.o(.constdata)
    .constdata                               0x07fc5928   Section       36  patch.o(.constdata)
    patch_new_table                          0x07fc5928   Data          12  patch.o(.constdata)
    patch_orig_table                         0x07fc5934   Data          24  patch.o(.constdata)
    .conststring                             0x07fc594c   Section      174  user_custs1_def.o(.conststring)
    .data                                    0x07fc5a1c   Section        1  rf_531.o(.data)
    .data                                    0x07fc5a1e   Section       16  user_periph_setup.o(.data)
    .bss                                     0x07fc5a30   Section      256  arch_console.o(.bss)
    current_msg_buffer                       0x07fc5a30   Data         256  arch_console.o(.bss)
    .bss                                     0x07fc5b30   Section       12  arch_system.o(.bss)
    .bss                                     0x07fc5b3c   Section        4  otp_cs.o(.bss)
    txdiv_trim                               0x07fc5b3c   Data           4  otp_cs.o(.bss)
    .bss                                     0x07fc5b40   Section        2  syscntl.o(.bss)
    .bss                                     0x07fc5b42   Section        2  adc_531.o(.bss)
    cal_val                                  0x07fc5b42   Data           2  adc_531.o(.bss)
    .bss                                     0x07fc5b44   Section       20  trng.o(.bss)
    extra_samples                            0x07fc5b44   Data           4  trng.o(.bss)
    trng_bits                                0x07fc5b48   Data          16  trng.o(.bss)
    .bss                                     0x07fc5b58   Section       48  i2c.o(.bss)
    i2c_env                                  0x07fc5b58   Data          48  i2c.o(.bss)
    .bss                                     0x07fc5b88   Section        4  rwip.o(.bss)
    .bss                                     0x07fc5b8c   Section       46  rf_531.o(.bss)
    fsm_ctrl_reg                             0x07fc5b8c   Data           4  rf_531.o(.bss)
    .bss                                     0x07fc5bba   Section        1  lis2dh_driver.o(.bss)
    ODR_old_value                            0x07fc5bba   Data           1  lis2dh_driver.o(.bss)
    STACK                                    0x07fc5bc0   Section     1536  startup_da14531.o(STACK)
    heap_mem_area_not_ret                    0x07fc61c0   Section     1036  jump_table.o(heap_mem_area_not_ret)
    retention_mem_area0                      0x07fc8bc0   Section        4  arch_console.o(retention_mem_area0)
    printf_msg_list                          0x07fc8bc0   Data           4  arch_console.o(retention_mem_area0)
    retention_mem_area0                      0x07fc8bc4   Section        1  arch_console.o(retention_mem_area0)
    defer_sending                            0x07fc8bc4   Data           1  arch_console.o(retention_mem_area0)
    retention_mem_area0                      0x07fc8bc5   Section        1  arch_console.o(retention_mem_area0)
    current_msg_offset                       0x07fc8bc5   Data           1  arch_console.o(retention_mem_area0)
    retention_mem_area0                      0x07fc8bc6   Section        1  arch_console.o(retention_mem_area0)
    uart_busy                                0x07fc8bc6   Data           1  arch_console.o(retention_mem_area0)
    retention_mem_area0                      0x07fc8bc8   Section        8  arch_main.o(retention_mem_area0)
    ret_mode_for_non_ret_heap                0x07fc8bc8   Data           1  arch_main.o(retention_mem_area0)
    ret_mode                                 0x07fc8bc9   Data           1  arch_main.o(retention_mem_area0)
    ret_mode_for_ret_data                    0x07fc8bca   Data           1  arch_main.o(retention_mem_area0)
    reinit_non_ret_heap                      0x07fc8bcb   Data           1  arch_main.o(retention_mem_area0)
    code_size                                0x07fc8bcc   Data           4  arch_main.o(retention_mem_area0)
    retention_mem_area0                      0x07fc8bd0   Section        4  arch_sleep.o(retention_mem_area0)
    sleep_md                                 0x07fc8bd0   Data           1  arch_sleep.o(retention_mem_area0)
    sleep_pend                               0x07fc8bd1   Data           1  arch_sleep.o(retention_mem_area0)
    sleep_cnt                                0x07fc8bd2   Data           1  arch_sleep.o(retention_mem_area0)
    sleep_ext_force                          0x07fc8bd3   Data           1  arch_sleep.o(retention_mem_area0)
    retention_mem_area0                      0x07fc8bd8   Section       48  arch_system.o(retention_mem_area0)
    rfcal_count                              0x07fc8be4   Data           4  arch_system.o(retention_mem_area0)
    retention_mem_area0                      0x07fc8c08   Section        2  arch_rom.o(retention_mem_area0)
    retention_mem_area0                      0x07fc8c0c   Section       92  otp_cs.o(retention_mem_area0)
    otp_cs                                   0x07fc8c0c   Data          92  otp_cs.o(retention_mem_area0)
    retention_mem_area0                      0x07fc8c68   Section       76  gpio.o(retention_mem_area0)
    retention_mem_area0                      0x07fc8cb4   Section       12  wkupct_quadec.o(retention_mem_area0)
    QUADDEC_callback                         0x07fc8cb4   Data           4  wkupct_quadec.o(retention_mem_area0)
    WKUPCT_callback                          0x07fc8cb8   Data           4  wkupct_quadec.o(retention_mem_area0)
    WKUPCT2_callback                         0x07fc8cbc   Data           4  wkupct_quadec.o(retention_mem_area0)
    retention_mem_area0                      0x07fc8cc0   Section        4  adc_531.o(retention_mem_area0)
    intr_cb                                  0x07fc8cc0   Data           4  adc_531.o(retention_mem_area0)
    retention_mem_area0                      0x07fc8cc4   Section        4  systick.o(retention_mem_area0)
    retention_mem_area0                      0x07fc8cc8   Section       64  uart.o(retention_mem_area0)
    uartn_env                                0x07fc8cc8   Data          64  uart.o(retention_mem_area0)
    retention_mem_area0                      0x07fc8d08   Section        1  hw_otpc_531.o(retention_mem_area0)
    dcdc_reserved                            0x07fc8d08   Data           1  hw_otpc_531.o(retention_mem_area0)
    retention_mem_area0                      0x07fc8d0c   Section        8  rwble.o(retention_mem_area0)
    retention_mem_area0                      0x07fc8d14   Section        8  rwip.o(retention_mem_area0)
    retention_mem_area0                      0x07fc8d1c   Section        4  rwip.o(retention_mem_area0)
    retention_mem_area0                      0x07fc8d20   Section        8  rf_531.o(retention_mem_area0)
    rf_tx_pwr_lvl                            0x07fc8d20   Data           1  rf_531.o(retention_mem_area0)
    near_field_mode                          0x07fc8d21   Data           1  rf_531.o(retention_mem_area0)
    saved_tx_power                           0x07fc8d24   Data           4  rf_531.o(retention_mem_area0)
    retention_mem_area0                      0x07fc8d28   Section       48  prf.o(retention_mem_area0)
    retention_mem_area0                      0x07fc8d58   Section       72  app.o(retention_mem_area0)
    i                                        0x07fc8d58   Data           1  app.o(retention_mem_area0)
    k                                        0x07fc8d59   Data           1  app.o(retention_mem_area0)
    j                                        0x07fc8d5a   Data           1  app.o(retention_mem_area0)
    adv_timer_id                             0x07fc8d5b   Data           1  app.o(retention_mem_area0)
    param_update_cmd                         0x07fc8d5c   Data           4  app.o(retention_mem_area0)
    set_dev_config_cmd                       0x07fc8d60   Data           4  app.o(retention_mem_area0)
    adv_cmd                                  0x07fc8d64   Data           4  app.o(retention_mem_area0)
    start_connection_cmd                     0x07fc8d68   Data           4  app.o(retention_mem_area0)
    adv_timeout_callback                     0x07fc8d6c   Data           4  app.o(retention_mem_area0)
    retention_mem_area0                      0x07fc8da0   Section       20  app.o(retention_mem_area0)
    retention_mem_area0                      0x07fc8db4   Section        1  app_task.o(retention_mem_area0)
    retention_mem_area0                      0x07fc8db6   Section      122  app_security.o(retention_mem_area0)
    retention_mem_area0                      0x07fc8e30   Section       24  app_easy_msg_utils.o(retention_mem_area0)
    wakeup_id                                0x07fc8e30   Data           2  app_easy_msg_utils.o(retention_mem_area0)
    msg_util_callbacks                       0x07fc8e34   Data          20  app_easy_msg_utils.o(retention_mem_area0)
    retention_mem_area0                      0x07fc8e48   Section       24  app_easy_security.o(retention_mem_area0)
    gapc_bond_cfm_pairing_rsp                0x07fc8e48   Data           4  app_easy_security.o(retention_mem_area0)
    gapc_bond_cfm_tk_exch                    0x07fc8e4c   Data           4  app_easy_security.o(retention_mem_area0)
    gapc_bond_cfm_csrk_exch                  0x07fc8e50   Data           4  app_easy_security.o(retention_mem_area0)
    gapc_bond_cfm_ltk_exch                   0x07fc8e54   Data           4  app_easy_security.o(retention_mem_area0)
    gapc_encrypt_cfm                         0x07fc8e58   Data           4  app_easy_security.o(retention_mem_area0)
    gapc_security_req                        0x07fc8e5c   Data           4  app_easy_security.o(retention_mem_area0)
    retention_mem_area0                      0x07fc8e60   Section       80  app_easy_timer.o(retention_mem_area0)
    timer_callbacks                          0x07fc8e60   Data          40  app_easy_timer.o(retention_mem_area0)
    modified_timer_callbacks                 0x07fc8e88   Data          40  app_easy_timer.o(retention_mem_area0)
    retention_mem_area0                      0x07fc8eb0   Section       12  accel_lis2dh_impl.o(retention_mem_area0)
    retention_mem_area0                      0x07fc8ebc   Section        4  i2c_impl.o(retention_mem_area0)
    retention_mem_area0                      0x07fc8ec0   Section      202  user_lis2dh_app.o(retention_mem_area0)
    retention_mem_area0                      0x07fc8f8a   Section        3  patch.o(retention_mem_area0)
    heap_db_area                             0x07fc8f90   Section     1036  jump_table.o(heap_db_area)
    heap_env_area                            0x07fc939c   Section      696  jump_table.o(heap_env_area)
    heap_msg_area                            0x07fc9654   Section     1404  jump_table.o(heap_msg_area)
    trng_state                               0x07fcb89c   Section        4  trng.o(trng_state)

    Global Symbols

    Symbol Name                              Value     Ov Type        Size  Object(Section)

    BuildAttributes$$THM_ISAv3M$S$PE$A:L22$X:L11$S22$IEEE1$IW$USESV6$~STKCKD$USESV7$~SHL$OSPACE$EBA8$MICROLIB$REQ8$PRES8$EABIv2 0x00000000   Number         0  anon$$obj.o ABSOLUTE
    __ARM_use_no_argv                        0x00000000   Number         0  arch_main.o ABSOLUTE
    __cpp_initialize__aeabi_                  - Undefined Weak Reference
    __cxa_finalize                            - Undefined Weak Reference
    __decompress                              - Undefined Weak Reference
    _clock_init                               - Undefined Weak Reference
    _microlib_exit                            - Undefined Weak Reference
    _store_core_registers                     - Undefined Weak Reference
    _store_primask                            - Undefined Weak Reference
    reset_indication                          - Undefined Weak Reference
    sb_read_otp_header                        - Undefined Weak Reference
    sb_set_debugger_mode                      - Undefined Weak Reference
    __Vectors_Size                           0x000000a0   Number         0  startup_da14531.o ABSOLUTE
    heap_mem_area_not_ret$$Length            0x0000040c   Number         0  anon$$obj.o ABSOLUTE
    Image$$ER_IROM3$$Length                  0x00005920   Number         0  anon$$obj.o ABSOLUTE
    uECC_vli_add                             0x07f02001   Thumb Code     0  da14531_symbols.txt ABSOLUTE
    uECC_vli_sub                             0x07f02019   Thumb Code     0  da14531_symbols.txt ABSOLUTE
    uECC_vli_mult                            0x07f02035   Thumb Code     0  da14531_symbols.txt ABSOLUTE
    set_system_clocks                        0x07f02159   Thumb Code     0  da14531_symbols.txt ABSOLUTE
    set_peripheral_clocks                    0x07f0216b   Thumb Code     0  da14531_symbols.txt ABSOLUTE
    rf_workaround_init                       0x07f02183   Thumb Code     0  da14531_symbols.txt ABSOLUTE
    get_stack_usage                          0x07f02185   Thumb Code     0  da14531_symbols.txt ABSOLUTE
    rwip_eif_get_func                        0x07f0218d   Thumb Code     0  da14531_symbols.txt ABSOLUTE
    rwip_set_em_base                         0x07f0219d   Thumb Code     0  da14531_symbols.txt ABSOLUTE
    platform_initialization                  0x07f021a3   Thumb Code     0  da14531_symbols.txt ABSOLUTE
    ble_init                                 0x07f02255   Thumb Code     0  da14531_symbols.txt ABSOLUTE
    ble_regs_push                            0x07f022cb   Thumb Code     0  da14531_symbols.txt ABSOLUTE
    ble_regs_pop                             0x07f02323   Thumb Code     0  da14531_symbols.txt ABSOLUTE
    platform_sleep                           0x07f02379   Thumb Code     0  da14531_symbols.txt ABSOLUTE
    rf_reinit                                0x07f02641   Thumb Code     0  da14531_symbols.txt ABSOLUTE
    smpc_check_param                         0x07f02649   Thumb Code     0  da14531_symbols.txt ABSOLUTE
    smpc_pdu_recv                            0x07f02653   Thumb Code     0  da14531_symbols.txt ABSOLUTE
    lld_sleep_compensate                     0x07f0265d   Thumb Code     0  da14531_symbols.txt ABSOLUTE
    lld_sleep_init                           0x07f02667   Thumb Code     0  da14531_symbols.txt ABSOLUTE
    lld_sleep_us_2_lpcycles                  0x07f02671   Thumb Code     0  da14531_symbols.txt ABSOLUTE
    lld_sleep_lpcycles_2_us                  0x07f0267b   Thumb Code     0  da14531_symbols.txt ABSOLUTE
    uart_flow_off                            0x07f02685   Thumb Code     0  da14531_symbols.txt ABSOLUTE
    uart_finish_transfers                    0x07f0268d   Thumb Code     0  da14531_symbols.txt ABSOLUTE
    uart_read                                0x07f02695   Thumb Code     0  da14531_symbols.txt ABSOLUTE
    uart_write                               0x07f0269d   Thumb Code     0  da14531_symbols.txt ABSOLUTE
    UART_Handler                             0x07f026a5   Thumb Code     0  da14531_symbols.txt ABSOLUTE
    uart_init                                0x07f026ad   Thumb Code     0  da14531_symbols.txt ABSOLUTE
    uart_flow_on                             0x07f026b5   Thumb Code     0  da14531_symbols.txt ABSOLUTE
    gtl_init                                 0x07f026bd   Thumb Code     0  da14531_symbols.txt ABSOLUTE
    gtl_eif_init                             0x07f026c5   Thumb Code     0  da14531_symbols.txt ABSOLUTE
    gtl_eif_read_start                       0x07f026cd   Thumb Code     0  da14531_symbols.txt ABSOLUTE
    gtl_eif_read_hdr                         0x07f026d5   Thumb Code     0  da14531_symbols.txt ABSOLUTE
    gtl_eif_read_payl                        0x07f026dd   Thumb Code     0  da14531_symbols.txt ABSOLUTE
    gtl_eif_tx_done                          0x07f026e5   Thumb Code     0  da14531_symbols.txt ABSOLUTE
    gtl_eif_rx_done                          0x07f026ed   Thumb Code     0  da14531_symbols.txt ABSOLUTE
    h4tl_init                                0x07f026f5   Thumb Code     0  da14531_symbols.txt ABSOLUTE
    h4tl_read_start                          0x07f026fd   Thumb Code     0  da14531_symbols.txt ABSOLUTE
    h4tl_read_hdr                            0x07f02705   Thumb Code     0  da14531_symbols.txt ABSOLUTE
    h4tl_read_payl                           0x07f0270d   Thumb Code     0  da14531_symbols.txt ABSOLUTE
    h4tl_read_next_out_of_sync               0x07f02715   Thumb Code     0  da14531_symbols.txt ABSOLUTE
    h4tl_out_of_sync                         0x07f0271d   Thumb Code     0  da14531_symbols.txt ABSOLUTE
    h4tl_tx_done                             0x07f02725   Thumb Code     0  da14531_symbols.txt ABSOLUTE
    h4tl_rx_done                             0x07f0272d   Thumb Code     0  da14531_symbols.txt ABSOLUTE
    ke_task_init                             0x07f02735   Thumb Code     0  da14531_symbols.txt ABSOLUTE
    ke_timer_init                            0x07f0273d   Thumb Code     0  da14531_symbols.txt ABSOLUTE
    llm_encryption_done                      0x07f02745   Thumb Code     0  da14531_symbols.txt ABSOLUTE
    nvds_get                                 0x07f0274d   Thumb Code     0  da14531_symbols.txt ABSOLUTE
    nvds_del                                 0x07f02755   Thumb Code     0  da14531_symbols.txt ABSOLUTE
    nvds_put                                 0x07f0275d   Thumb Code     0  da14531_symbols.txt ABSOLUTE
    rwip_eif_get                             0x07f02765   Thumb Code     0  da14531_symbols.txt ABSOLUTE
    platform_reset                           0x07f0276d   Thumb Code     0  da14531_symbols.txt ABSOLUTE
    lld_test_stop                            0x07f02777   Thumb Code     0  da14531_symbols.txt ABSOLUTE
    lld_test_mode_tx                         0x07f02781   Thumb Code     0  da14531_symbols.txt ABSOLUTE
    lld_test_mode_rx                         0x07f0278b   Thumb Code     0  da14531_symbols.txt ABSOLUTE
    prf_init                                 0x07f02795   Thumb Code     0  da14531_symbols.txt ABSOLUTE
    prf_add_profile                          0x07f0279f   Thumb Code     0  da14531_symbols.txt ABSOLUTE
    prf_create                               0x07f027a9   Thumb Code     0  da14531_symbols.txt ABSOLUTE
    prf_cleanup                              0x07f027b3   Thumb Code     0  da14531_symbols.txt ABSOLUTE
    prf_get_id_from_task                     0x07f027bd   Thumb Code     0  da14531_symbols.txt ABSOLUTE
    prf_get_task_from_id                     0x07f027c7   Thumb Code     0  da14531_symbols.txt ABSOLUTE
    nvds_init                                0x07f027d1   Thumb Code     0  da14531_symbols.txt ABSOLUTE
    SetSystemVars                            0x07f027d9   Thumb Code     0  da14531_symbols.txt ABSOLUTE
    dbg_init                                 0x07f027e3   Thumb Code     0  da14531_symbols.txt ABSOLUTE
    dbg_platform_reset_complete              0x07f027ed   Thumb Code     0  da14531_symbols.txt ABSOLUTE
    hci_rd_local_supp_feats_cmd_handler      0x07f027f7   Thumb Code     0  da14531_symbols.txt ABSOLUTE
    l2cc_pdu_pack                            0x07f02807   Thumb Code     0  da14531_symbols.txt ABSOLUTE
    l2cc_pdu_unpack                          0x07f0281d   Thumb Code     0  da14531_symbols.txt ABSOLUTE
    l2c_send_lecb_message                    0x07f02835   Thumb Code     0  da14531_symbols.txt ABSOLUTE
    l2c_process_sdu                          0x07f0283f   Thumb Code     0  da14531_symbols.txt ABSOLUTE
    l2cc_pdu_recv_ind_handler                0x07f02849   Thumb Code     0  da14531_symbols.txt ABSOLUTE
    gapc_lecb_connect_cfm_handler            0x07f02859   Thumb Code     0  da14531_symbols.txt ABSOLUTE
    atts_l2cc_pdu_recv_handler               0x07f02869   Thumb Code     0  da14531_symbols.txt ABSOLUTE
    attc_l2cc_pdu_recv_handler               0x07f02873   Thumb Code     0  da14531_symbols.txt ABSOLUTE
    crypto_init                              0x07f0287d   Thumb Code     0  da14531_symbols.txt ABSOLUTE
    llm_le_adv_report_ind                    0x07f02887   Thumb Code     0  da14531_symbols.txt ABSOLUTE
    PK_PointMult                             0x07f02891   Thumb Code     0  da14531_symbols.txt ABSOLUTE
    llm_p256_start                           0x07f0289b   Thumb Code     0  da14531_symbols.txt ABSOLUTE
    llm_create_p256_key                      0x07f028a5   Thumb Code     0  da14531_symbols.txt ABSOLUTE
    llm_p256_req_handler                     0x07f028b1   Thumb Code     0  da14531_symbols.txt ABSOLUTE
    llc_le_length_effective                  0x07f028c3   Thumb Code     0  da14531_symbols.txt ABSOLUTE
    llc_le_length_conn_init                  0x07f028cf   Thumb Code     0  da14531_symbols.txt ABSOLUTE
    lld_data_tx_prog                         0x07f028db   Thumb Code     0  da14531_symbols.txt ABSOLUTE
    lld_data_tx_check                        0x07f028e7   Thumb Code     0  da14531_symbols.txt ABSOLUTE
    llc_pdu_send                             0x07f028f3   Thumb Code     0  da14531_symbols.txt ABSOLUTE
    dia_rand                                 0x07f028ff   Thumb Code     0  da14531_symbols.txt ABSOLUTE
    dia_srand                                0x07f0290b   Thumb Code     0  da14531_symbols.txt ABSOLUTE
    llc_data_notif                           0x07f02917   Thumb Code     0  da14531_symbols.txt ABSOLUTE
    ba431_get_rand                           0x07f02931   Thumb Code     0  da14531_symbols.txt ABSOLUTE
    smpc_public_key_exchange_start           0x07f0293d   Thumb Code     0  da14531_symbols.txt ABSOLUTE
    smpc_dhkey_calc_ind                      0x07f02949   Thumb Code     0  da14531_symbols.txt ABSOLUTE
    smpm_ecdh_key_create                     0x07f02955   Thumb Code     0  da14531_symbols.txt ABSOLUTE
    ble_init_arp                             0x07f02961   Thumb Code     0  da14531_symbols.txt ABSOLUTE
    co_buf_init                              0x07f02971   Thumb Code     0  da14531_symbols.txt ABSOLUTE
    co_buf_rx_free                           0x07f02a35   Thumb Code     0  da14531_symbols.txt ABSOLUTE
    co_buf_rx_buffer_get                     0x07f02a4f   Thumb Code     0  da14531_symbols.txt ABSOLUTE
    co_buf_tx_buffer_get                     0x07f02a59   Thumb Code     0  da14531_symbols.txt ABSOLUTE
    co_list_init                             0x07f02a81   Thumb Code     0  da14531_symbols.txt ABSOLUTE
    co_list_pop_front                        0x07f02a91   Thumb Code     0  da14531_symbols.txt ABSOLUTE
    co_list_flush                            0x07f02ab3   Thumb Code     0  da14531_symbols.txt ABSOLUTE
    co_list_push_back                        0x07f02ac9   Thumb Code     0  da14531_symbols.txt ABSOLUTE
    co_list_pool_init                        0x07f02aed   Thumb Code     0  da14531_symbols.txt ABSOLUTE
    co_list_push_front                       0x07f02b55   Thumb Code     0  da14531_symbols.txt ABSOLUTE
    co_list_extract                          0x07f02b71   Thumb Code     0  da14531_symbols.txt ABSOLUTE
    co_list_find                             0x07f02bc1   Thumb Code     0  da14531_symbols.txt ABSOLUTE
    co_list_merge                            0x07f02bd7   Thumb Code     0  da14531_symbols.txt ABSOLUTE
    co_list_insert_before                    0x07f02bf3   Thumb Code     0  da14531_symbols.txt ABSOLUTE
    co_list_insert_after                     0x07f02c2b   Thumb Code     0  da14531_symbols.txt ABSOLUTE
    co_list_size                             0x07f02c67   Thumb Code     0  da14531_symbols.txt ABSOLUTE
    co_bdaddr_compare                        0x07f02c7b   Thumb Code     0  da14531_symbols.txt ABSOLUTE
    co_array_reverse                         0x07f02c97   Thumb Code     0  da14531_symbols.txt ABSOLUTE
    llc_init                                 0x07f02cb9   Thumb Code     0  da14531_symbols.txt ABSOLUTE
    llc_common_nb_of_pkt_comp_evt_send       0x07f02ce5   Thumb Code     0  da14531_symbols.txt ABSOLUTE
    llc_acl_tx_data_flush                    0x07f02d05   Thumb Code     0  da14531_symbols.txt ABSOLUTE
    llc_stop                                 0x07f02d6d   Thumb Code     0  da14531_symbols.txt ABSOLUTE
    llc_reset                                0x07f02db9   Thumb Code     0  da14531_symbols.txt ABSOLUTE
    llc_le_length_effective_func             0x07f02ddb   Thumb Code     0  da14531_symbols.txt ABSOLUTE
    llc_le_length_conn_init_func             0x07f02e75   Thumb Code     0  da14531_symbols.txt ABSOLUTE
    llc_le_enh_con_cmp_evt_send              0x07f02ed3   Thumb Code     0  da14531_symbols.txt ABSOLUTE
    llc_le_con_cmp_evt_send                  0x07f02ff3   Thumb Code     0  da14531_symbols.txt ABSOLUTE
    llc_start                                0x07f0308f   Thumb Code     0  da14531_symbols.txt ABSOLUTE
    llc_acl_tx_data_squash                   0x07f03173   Thumb Code     0  da14531_symbols.txt ABSOLUTE
    llc_acl_tx_desc_flushed                  0x07f03215   Thumb Code     0  da14531_symbols.txt ABSOLUTE
    llc_acl_tx_data_process                  0x07f03285   Thumb Code     0  da14531_symbols.txt ABSOLUTE
    llc_discon_event_complete_send           0x07f032d3   Thumb Code     0  da14531_symbols.txt ABSOLUTE
    llc_con_update_complete_send             0x07f032f5   Thumb Code     0  da14531_symbols.txt ABSOLUTE
    llc_ltk_req_send                         0x07f0332f   Thumb Code     0  da14531_symbols.txt ABSOLUTE
    llc_feats_rd_event_send                  0x07f03367   Thumb Code     0  da14531_symbols.txt ABSOLUTE
    llc_version_rd_event_send                0x07f033a3   Thumb Code     0  da14531_symbols.txt ABSOLUTE
    llc_common_cmd_complete_send             0x07f033d5   Thumb Code     0  da14531_symbols.txt ABSOLUTE
    llc_common_cmd_status_send               0x07f033f3   Thumb Code     0  da14531_symbols.txt ABSOLUTE
    llc_common_cmd_discard                   0x07f0340f   Thumb Code     0  da14531_symbols.txt ABSOLUTE
    llc_common_flush_occurred_send           0x07f03417   Thumb Code     0  da14531_symbols.txt ABSOLUTE
    llc_common_enc_key_ref_comp_evt_send     0x07f03431   Thumb Code     0  da14531_symbols.txt ABSOLUTE
    llc_common_enc_change_evt_send           0x07f0344f   Thumb Code     0  da14531_symbols.txt ABSOLUTE
    llc_con_update_ind                       0x07f034b7   Thumb Code     0  da14531_symbols.txt ABSOLUTE
    llc_lsto_con_update                      0x07f0355b   Thumb Code     0  da14531_symbols.txt ABSOLUTE
    llc_map_update_ind                       0x07f03595   Thumb Code     0  da14531_symbols.txt ABSOLUTE
    llc_chnl_map_req_send                    0x07f03653   Thumb Code     0  da14531_symbols.txt ABSOLUTE
    llc_add_bad_chnl                         0x07f0366f   Thumb Code     0  da14531_symbols.txt ABSOLUTE
    llc_pdu_send_func                        0x07f03709   Thumb Code     0  da14531_symbols.txt ABSOLUTE
    llc_version_ind_pdu_send                 0x07f0377b   Thumb Code     0  da14531_symbols.txt ABSOLUTE
    llc_ch_map_update_pdu_send               0x07f037d5   Thumb Code     0  da14531_symbols.txt ABSOLUTE
    llc_pause_enc_req_pdu_send               0x07f03825   Thumb Code     0  da14531_symbols.txt ABSOLUTE
    llc_pause_enc_rsp_pdu_send               0x07f03871   Thumb Code     0  da14531_symbols.txt ABSOLUTE
    llc_enc_req_pdu_send                     0x07f038d7   Thumb Code     0  da14531_symbols.txt ABSOLUTE
    llc_enc_rsp_pdu_send                     0x07f039a3   Thumb Code     0  da14531_symbols.txt ABSOLUTE
    llc_start_enc_rsp_pdu_send               0x07f03a41   Thumb Code     0  da14531_symbols.txt ABSOLUTE
    llc_reject_ind_pdu_send                  0x07f03a99   Thumb Code     0  da14531_symbols.txt ABSOLUTE
    llc_con_update_pdu_send                  0x07f03b37   Thumb Code     0  da14531_symbols.txt ABSOLUTE
    llc_con_param_req_pdu_send               0x07f03b8d   Thumb Code     0  da14531_symbols.txt ABSOLUTE
    llc_con_param_rsp_pdu_send               0x07f03c1b   Thumb Code     0  da14531_symbols.txt ABSOLUTE
    llc_feats_req_pdu_send                   0x07f03ca9   Thumb Code     0  da14531_symbols.txt ABSOLUTE
    llc_start_enc_req_pdu_send               0x07f03d09   Thumb Code     0  da14531_symbols.txt ABSOLUTE
    llc_terminate_ind_pdu_send               0x07f03dbd   Thumb Code     0  da14531_symbols.txt ABSOLUTE
    llc_unknown_rsp_send_pdu                 0x07f03e31   Thumb Code     0  da14531_symbols.txt ABSOLUTE
    llc_length_req_pdu_send                  0x07f03e65   Thumb Code     0  da14531_symbols.txt ABSOLUTE
    llc_length_rsp_pdu_send                  0x07f03f31   Thumb Code     0  da14531_symbols.txt ABSOLUTE
    llc_length_ind                           0x07f03fa1   Thumb Code     0  da14531_symbols.txt ABSOLUTE
    llc_ping_req_pdu_send                    0x07f0402d   Thumb Code     0  da14531_symbols.txt ABSOLUTE
    llc_ping_rsp_pdu_send                    0x07f0405d   Thumb Code     0  da14531_symbols.txt ABSOLUTE
    llc_feats_req_ind                        0x07f0408d   Thumb Code     0  da14531_symbols.txt ABSOLUTE
    llc_feats_rsp_ind                        0x07f040f9   Thumb Code     0  da14531_symbols.txt ABSOLUTE
    llc_vers_ind_ind                         0x07f04167   Thumb Code     0  da14531_symbols.txt ABSOLUTE
    llc_terminate_ind                        0x07f041fb   Thumb Code     0  da14531_symbols.txt ABSOLUTE
    llc_pause_enc_req_ind                    0x07f04237   Thumb Code     0  da14531_symbols.txt ABSOLUTE
    llc_pause_enc_rsp_ind                    0x07f04267   Thumb Code     0  da14531_symbols.txt ABSOLUTE
    llc_enc_req_ind                          0x07f042dd   Thumb Code     0  da14531_symbols.txt ABSOLUTE
    llc_enc_rsp_ind                          0x07f0439d   Thumb Code     0  da14531_symbols.txt ABSOLUTE
    llc_start_enc_req_ind                    0x07f04449   Thumb Code     0  da14531_symbols.txt ABSOLUTE
    llc_start_enc_rsp_ind                    0x07f044b7   Thumb Code     0  da14531_symbols.txt ABSOLUTE
    llc_cntl_rcv                             0x07f0453f   Thumb Code     0  da14531_symbols.txt ABSOLUTE
    llcp_con_param_req_pdu_unpk              0x07f045cd   Thumb Code     0  da14531_symbols.txt ABSOLUTE
    llcp_con_param_rsp_pdu_unpk              0x07f04645   Thumb Code     0  da14531_symbols.txt ABSOLUTE
    llc_con_update_req_ind                   0x07f046bd   Thumb Code     0  da14531_symbols.txt ABSOLUTE
    llc_ch_map_req_ind                       0x07f04717   Thumb Code     0  da14531_symbols.txt ABSOLUTE
    llc_data_rcv                             0x07f04799   Thumb Code     0  da14531_symbols.txt ABSOLUTE
    llc_lsto_timer_restart                   0x07f048f9   Thumb Code     0  da14531_symbols.txt ABSOLUTE
    lld_data_ind_handler                     0x07f0581b   Thumb Code     0  da14531_symbols.txt ABSOLUTE
    llc_util_get_free_conhdl                 0x07f06bd1   Thumb Code     0  da14531_symbols.txt ABSOLUTE
    llc_util_dicon_procedure                 0x07f06c01   Thumb Code     0  da14531_symbols.txt ABSOLUTE
    llc_util_gen_skdx                        0x07f06c63   Thumb Code     0  da14531_symbols.txt ABSOLUTE
    llc_util_update_channel_map              0x07f06c77   Thumb Code     0  da14531_symbols.txt ABSOLUTE
    llc_util_set_llcp_discard_enable         0x07f06c89   Thumb Code     0  da14531_symbols.txt ABSOLUTE
    llc_util_set_auth_payl_to_margin         0x07f06ca1   Thumb Code     0  da14531_symbols.txt ABSOLUTE
    llm_add_bad_chnl                         0x07f06cc9   Thumb Code     0  da14531_symbols.txt ABSOLUTE
    llc_data_notif_func                      0x07f06d05   Thumb Code     0  da14531_symbols.txt ABSOLUTE
    lld_init                                 0x07f06e11   Thumb Code     0  da14531_symbols.txt ABSOLUTE
    lld_reset                                0x07f06f5d   Thumb Code     0  da14531_symbols.txt ABSOLUTE
    lld_adv_start                            0x07f06fab   Thumb Code     0  da14531_symbols.txt ABSOLUTE
    lld_adv_stop                             0x07f0710f   Thumb Code     0  da14531_symbols.txt ABSOLUTE
    lld_scan_start                           0x07f07135   Thumb Code     0  da14531_symbols.txt ABSOLUTE
    lld_scan_stop                            0x07f0727d   Thumb Code     0  da14531_symbols.txt ABSOLUTE
    lld_con_start                            0x07f072b5   Thumb Code     0  da14531_symbols.txt ABSOLUTE
    lld_move_to_master                       0x07f07647   Thumb Code     0  da14531_symbols.txt ABSOLUTE
    lld_con_update_req                       0x07f076df   Thumb Code     0  da14531_symbols.txt ABSOLUTE
    lld_con_update_after_param_req           0x07f0775d   Thumb Code     0  da14531_symbols.txt ABSOLUTE
    lld_con_param_rsp                        0x07f07949   Thumb Code     0  da14531_symbols.txt ABSOLUTE
    lld_con_param_req                        0x07f07a45   Thumb Code     0  da14531_symbols.txt ABSOLUTE
    lld_con_stop                             0x07f07b1b   Thumb Code     0  da14531_symbols.txt ABSOLUTE
    lld_get_mode                             0x07f07b71   Thumb Code     0  da14531_symbols.txt ABSOLUTE
    lld_move_to_slave                        0x07f07b95   Thumb Code     0  da14531_symbols.txt ABSOLUTE
    lld_ch_map_ind                           0x07f07d3b   Thumb Code     0  da14531_symbols.txt ABSOLUTE
    lld_con_update_ind                       0x07f07d6b   Thumb Code     0  da14531_symbols.txt ABSOLUTE
    lld_crypt_isr                            0x07f07d79   Thumb Code     0  da14531_symbols.txt ABSOLUTE
    lld_test_mode_tx_func                    0x07f07d83   Thumb Code     0  da14531_symbols.txt ABSOLUTE
    lld_test_mode_rx_func                    0x07f07e23   Thumb Code     0  da14531_symbols.txt ABSOLUTE
    lld_test_stop_func                       0x07f07eb5   Thumb Code     0  da14531_symbols.txt ABSOLUTE
    lld_data_rx_check                        0x07f07f75   Thumb Code     0  da14531_symbols.txt ABSOLUTE
    lld_data_rx_flush                        0x07f07fb9   Thumb Code     0  da14531_symbols.txt ABSOLUTE
    lld_data_tx_check_func                   0x07f07fdf   Thumb Code     0  da14531_symbols.txt ABSOLUTE
    lld_data_tx_loop                         0x07f08085   Thumb Code     0  da14531_symbols.txt ABSOLUTE
    lld_data_tx_push                         0x07f080b3   Thumb Code     0  da14531_symbols.txt ABSOLUTE
    lld_data_tx_prog_func                    0x07f08115   Thumb Code     0  da14531_symbols.txt ABSOLUTE
    lld_data_tx_flush                        0x07f08255   Thumb Code     0  da14531_symbols.txt ABSOLUTE
    lld_evt_drift_compute                    0x07f08363   Thumb Code     0  da14531_symbols.txt ABSOLUTE
    lld_evt_elt_delete                       0x07f08449   Thumb Code     0  da14531_symbols.txt ABSOLUTE
    lld_evt_deffered_elt_handler             0x07f08a6f   Thumb Code     0  da14531_symbols.txt ABSOLUTE
    lld_evt_init                             0x07f08b43   Thumb Code     0  da14531_symbols.txt ABSOLUTE
    lld_evt_init_evt                         0x07f08bb9   Thumb Code     0  da14531_symbols.txt ABSOLUTE
    lld_evt_elt_insert                       0x07f08bd7   Thumb Code     0  da14531_symbols.txt ABSOLUTE
    lld_evt_conhdl2elt                       0x07f08c01   Thumb Code     0  da14531_symbols.txt ABSOLUTE
    lld_evt_schedule_next                    0x07f08c1d   Thumb Code     0  da14531_symbols.txt ABSOLUTE
    lld_evt_schedule                         0x07f08d19   Thumb Code     0  da14531_symbols.txt ABSOLUTE
    lld_evt_prevent_stop                     0x07f08d55   Thumb Code     0  da14531_symbols.txt ABSOLUTE
    lld_evt_canceled                         0x07f08d57   Thumb Code     0  da14531_symbols.txt ABSOLUTE
    lld_evt_scan_create                      0x07f08d7b   Thumb Code     0  da14531_symbols.txt ABSOLUTE
    lld_evt_move_to_master                   0x07f08e6f   Thumb Code     0  da14531_symbols.txt ABSOLUTE
    lld_evt_update_create                    0x07f08fef   Thumb Code     0  da14531_symbols.txt ABSOLUTE
    lld_evt_ch_map_update_req                0x07f090f1   Thumb Code     0  da14531_symbols.txt ABSOLUTE
    lld_evt_move_to_slave                    0x07f09109   Thumb Code     0  da14531_symbols.txt ABSOLUTE
    lld_evt_slave_update                     0x07f09347   Thumb Code     0  da14531_symbols.txt ABSOLUTE
    lld_evt_adv_create                       0x07f09405   Thumb Code     0  da14531_symbols.txt ABSOLUTE
    lld_evt_end                              0x07f094b9   Thumb Code     0  da14531_symbols.txt ABSOLUTE
    lld_evt_rx                               0x07f095c1   Thumb Code     0  da14531_symbols.txt ABSOLUTE
    lld_evt_timer_isr                        0x07f095f3   Thumb Code     0  da14531_symbols.txt ABSOLUTE
    lld_evt_end_isr                          0x07f095fd   Thumb Code     0  da14531_symbols.txt ABSOLUTE
    lld_evt_rx_isr                           0x07f0968b   Thumb Code     0  da14531_symbols.txt ABSOLUTE
    lld_sleep_us_2_lpcycles_func             0x07f09839   Thumb Code     0  da14531_symbols.txt ABSOLUTE
    lld_sleep_lpcycles_2_us_func             0x07f0985f   Thumb Code     0  da14531_symbols.txt ABSOLUTE
    lld_sleep_enter                          0x07f09969   Thumb Code     0  da14531_symbols.txt ABSOLUTE
    lld_sleep_wakeup                         0x07f099a9   Thumb Code     0  da14531_symbols.txt ABSOLUTE
    lld_sleep_wakeup_end                     0x07f099c3   Thumb Code     0  da14531_symbols.txt ABSOLUTE
    lld_wlcoex_connection_complete           0x07f099e9   Thumb Code     0  da14531_symbols.txt ABSOLUTE
    lld_wlcoex_remove_connection             0x07f09a01   Thumb Code     0  da14531_symbols.txt ABSOLUTE
    lld_wlcoex_set                           0x07f09a15   Thumb Code     0  da14531_symbols.txt ABSOLUTE
    lld_util_get_bd_address                  0x07f09a29   Thumb Code     0  da14531_symbols.txt ABSOLUTE
    lld_util_set_bd_address                  0x07f09a49   Thumb Code     0  da14531_symbols.txt ABSOLUTE
    lld_util_freq2chnl                       0x07f09a85   Thumb Code     0  da14531_symbols.txt ABSOLUTE
    lld_util_get_local_offset                0x07f09aa7   Thumb Code     0  da14531_symbols.txt ABSOLUTE
    lld_util_get_peer_offset                 0x07f09ac1   Thumb Code     0  da14531_symbols.txt ABSOLUTE
    lld_util_connection_param_set            0x07f09add   Thumb Code     0  da14531_symbols.txt ABSOLUTE
    llm_wl_clr                               0x07f09b2d   Thumb Code     0  da14531_symbols.txt ABSOLUTE
    llm_init                                 0x07f09b55   Thumb Code     0  da14531_symbols.txt ABSOLUTE
    llm_common_cmd_complete_send             0x07f09d5b   Thumb Code     0  da14531_symbols.txt ABSOLUTE
    llm_ble_ready                            0x07f09d73   Thumb Code     0  da14531_symbols.txt ABSOLUTE
    llm_wl_from_rl_restore                   0x07f09d79   Thumb Code     0  da14531_symbols.txt ABSOLUTE
    llm_con_req_ind                          0x07f09df9   Thumb Code     0  da14531_symbols.txt ABSOLUTE
    llm_resolv_addr                          0x07f0a0ef   Thumb Code     0  da14531_symbols.txt ABSOLUTE
    llm_util_rl_wl_update                    0x07f0a131   Thumb Code     0  da14531_symbols.txt ABSOLUTE
    llm_alter_conn                           0x07f0a16b   Thumb Code     0  da14531_symbols.txt ABSOLUTE
    llm_adv_report_set                       0x07f0a207   Thumb Code     0  da14531_symbols.txt ABSOLUTE
    llm_direct_adv_report_set                0x07f0a295   Thumb Code     0  da14531_symbols.txt ABSOLUTE
    llm_encryption_start                     0x07f0a2d7   Thumb Code     0  da14531_symbols.txt ABSOLUTE
    llm_resolv_addr_inplace                  0x07f0a37f   Thumb Code     0  da14531_symbols.txt ABSOLUTE
    llm_le_adv_report_ind_func               0x07f0a42b   Thumb Code     0  da14531_symbols.txt ABSOLUTE
    llm_con_req_tx_cfm                       0x07f0a93d   Thumb Code     0  da14531_symbols.txt ABSOLUTE
    llm_common_cmd_status_send               0x07f0aa59   Thumb Code     0  da14531_symbols.txt ABSOLUTE
    llm_test_mode_start_tx                   0x07f0aa73   Thumb Code     0  da14531_symbols.txt ABSOLUTE
    llm_test_mode_start_rx                   0x07f0ab8d   Thumb Code     0  da14531_symbols.txt ABSOLUTE
    llm_set_adv_param                        0x07f0abcd   Thumb Code     0  da14531_symbols.txt ABSOLUTE
    llm_gen_rand_addr                        0x07f0ad33   Thumb Code     0  da14531_symbols.txt ABSOLUTE
    llm_wl_from_rl                           0x07f0adef   Thumb Code     0  da14531_symbols.txt ABSOLUTE
    llm_set_adv_en                           0x07f0af1f   Thumb Code     0  da14531_symbols.txt ABSOLUTE
    llm_set_adv_data                         0x07f0b225   Thumb Code     0  da14531_symbols.txt ABSOLUTE
    llm_set_scan_rsp_data                    0x07f0b2dd   Thumb Code     0  da14531_symbols.txt ABSOLUTE
    llm_set_scan_param                       0x07f0b3cd   Thumb Code     0  da14531_symbols.txt ABSOLUTE
    llm_set_scan_en                          0x07f0b453   Thumb Code     0  da14531_symbols.txt ABSOLUTE
    llm_wl_dev_add                           0x07f0b5a7   Thumb Code     0  da14531_symbols.txt ABSOLUTE
    llm_wl_dev_rem                           0x07f0b681   Thumb Code     0  da14531_symbols.txt ABSOLUTE
    llm_create_con                           0x07f0b6d5   Thumb Code     0  da14531_symbols.txt ABSOLUTE
    llm_encryption_done_func                 0x07f0b9db   Thumb Code     0  da14531_symbols.txt ABSOLUTE
    llm_get_chnl_assess_nb_pkt               0x07f0bcb3   Thumb Code     0  da14531_symbols.txt ABSOLUTE
    llm_get_chnl_assess_nb_bad_pkt           0x07f0bcbb   Thumb Code     0  da14531_symbols.txt ABSOLUTE
    llm_get_min_rssi                         0x07f0bcc3   Thumb Code     0  da14531_symbols.txt ABSOLUTE
    llm_le_scan_report_ind                   0x07f0bccd   Thumb Code     0  da14531_symbols.txt ABSOLUTE
    llm_set_tx_oct_time                      0x07f0bd35   Thumb Code     0  da14531_symbols.txt ABSOLUTE
    llm_p256_start_func                      0x07f0bd5f   Thumb Code     0  da14531_symbols.txt ABSOLUTE
    llm_create_p256_key_func                 0x07f0bdd5   Thumb Code     0  da14531_symbols.txt ABSOLUTE
    llm_wlpub_addr_set                       0x07f0be1b   Thumb Code     0  da14531_symbols.txt ABSOLUTE
    llm_wlpriv_addr_set                      0x07f0be47   Thumb Code     0  da14531_symbols.txt ABSOLUTE
    llm_p256_req_handler_func                0x07f0be85   Thumb Code     0  da14531_symbols.txt ABSOLUTE
    hci_rd_local_supp_feats_cmd_handler_func 0x07f0c6b9   Thumb Code     0  da14531_symbols.txt ABSOLUTE
    llm_util_bd_addr_in_wl                   0x07f0cf35   Thumb Code     0  da14531_symbols.txt ABSOLUTE
    llm_util_check_address_validity          0x07f0cfab   Thumb Code     0  da14531_symbols.txt ABSOLUTE
    llm_util_check_map_validity              0x07f0cfbb   Thumb Code     0  da14531_symbols.txt ABSOLUTE
    llm_util_apply_bd_addr                   0x07f0d001   Thumb Code     0  da14531_symbols.txt ABSOLUTE
    llm_util_set_public_addr                 0x07f0d019   Thumb Code     0  da14531_symbols.txt ABSOLUTE
    llm_util_check_evt_mask                  0x07f0d027   Thumb Code     0  da14531_symbols.txt ABSOLUTE
    llm_util_get_channel_map                 0x07f0d049   Thumb Code     0  da14531_symbols.txt ABSOLUTE
    llm_util_get_supp_features               0x07f0d057   Thumb Code     0  da14531_symbols.txt ABSOLUTE
    llm_util_adv_data_update                 0x07f0d063   Thumb Code     0  da14531_symbols.txt ABSOLUTE
    llm_util_bl_check                        0x07f0d087   Thumb Code     0  da14531_symbols.txt ABSOLUTE
    llm_util_bl_add                          0x07f0d0c9   Thumb Code     0  da14531_symbols.txt ABSOLUTE
    llm_util_bl_rem                          0x07f0d11f   Thumb Code     0  da14531_symbols.txt ABSOLUTE
    llm_util_rl_check                        0x07f0d16f   Thumb Code     0  da14531_symbols.txt ABSOLUTE
    llm_util_rl_add                          0x07f0d1a5   Thumb Code     0  da14531_symbols.txt ABSOLUTE
    llm_util_rl_rem                          0x07f0d223   Thumb Code     0  da14531_symbols.txt ABSOLUTE
    llm_util_rl_peer_find                    0x07f0d249   Thumb Code     0  da14531_symbols.txt ABSOLUTE
    llm_util_rl_peer_resolv                  0x07f0d275   Thumb Code     0  da14531_symbols.txt ABSOLUTE
    llm_util_rl_rpa_find                     0x07f0d2c7   Thumb Code     0  da14531_symbols.txt ABSOLUTE
    PK_PointMult_func                        0x07f0d2f1   Thumb Code     0  da14531_symbols.txt ABSOLUTE
    ea_time_get_slot_rounded                 0x07f0d401   Thumb Code     0  da14531_symbols.txt ABSOLUTE
    ea_init                                  0x07f0d4cd   Thumb Code     0  da14531_symbols.txt ABSOLUTE
    ea_elt_create                            0x07f0d521   Thumb Code     0  da14531_symbols.txt ABSOLUTE
    ea_time_get_halfslot_rounded             0x07f0d53b   Thumb Code     0  da14531_symbols.txt ABSOLUTE
    ea_elt_insert                            0x07f0d56b   Thumb Code     0  da14531_symbols.txt ABSOLUTE
    ea_elt_remove                            0x07f0d7af   Thumb Code     0  da14531_symbols.txt ABSOLUTE
    ea_elt_delete                            0x07f0d837   Thumb Code     0  da14531_symbols.txt ABSOLUTE
    ea_interval_create                       0x07f0d851   Thumb Code     0  da14531_symbols.txt ABSOLUTE
    ea_interval_insert                       0x07f0d867   Thumb Code     0  da14531_symbols.txt ABSOLUTE
    ea_interval_delete                       0x07f0d875   Thumb Code     0  da14531_symbols.txt ABSOLUTE
    ea_finetimer_isr                         0x07f0d88f   Thumb Code     0  da14531_symbols.txt ABSOLUTE
    ea_sw_isr                                0x07f0d961   Thumb Code     0  da14531_symbols.txt ABSOLUTE
    ea_offset_req                            0x07f0d97f   Thumb Code     0  da14531_symbols.txt ABSOLUTE
    ea_sleep_check                           0x07f0db3d   Thumb Code     0  da14531_symbols.txt ABSOLUTE
    ea_interval_duration_req                 0x07f0db93   Thumb Code     0  da14531_symbols.txt ABSOLUTE
    flash_identify                           0x07f0dcb3   Thumb Code     0  da14531_symbols.txt ABSOLUTE
    flash_init                               0x07f0dd01   Thumb Code     0  da14531_symbols.txt ABSOLUTE
    flash_erase                              0x07f0dd3d   Thumb Code     0  da14531_symbols.txt ABSOLUTE
    flash_write                              0x07f0dda1   Thumb Code     0  da14531_symbols.txt ABSOLUTE
    flash_read                               0x07f0de05   Thumb Code     0  da14531_symbols.txt ABSOLUTE
    uart_init_func                           0x07f0de93   Thumb Code     0  da14531_symbols.txt ABSOLUTE
    uart_flow_on_func                        0x07f0def1   Thumb Code     0  da14531_symbols.txt ABSOLUTE
    uart_flow_off_func                       0x07f0def9   Thumb Code     0  da14531_symbols.txt ABSOLUTE
    uart_finish_transfers_func               0x07f0df49   Thumb Code     0  da14531_symbols.txt ABSOLUTE
    uart_read_func                           0x07f0df61   Thumb Code     0  da14531_symbols.txt ABSOLUTE
    uart_write_func                          0x07f0df77   Thumb Code     0  da14531_symbols.txt ABSOLUTE
    UART_Handler_func                        0x07f0df99   Thumb Code     0  da14531_symbols.txt ABSOLUTE
    uart_set_flow_off_retries_limit          0x07f0dfeb   Thumb Code     0  da14531_symbols.txt ABSOLUTE
    init_delay                               0x07f0e045   Thumb Code     0  da14531_symbols.txt ABSOLUTE
    delay_us                                 0x07f0e047   Thumb Code     0  da14531_symbols.txt ABSOLUTE
    gtl_init_func                            0x07f0e319   Thumb Code     0  da14531_symbols.txt ABSOLUTE
    gtl_enter_sleep                          0x07f0e341   Thumb Code     0  da14531_symbols.txt ABSOLUTE
    gtl_exit_sleep                           0x07f0e36b   Thumb Code     0  da14531_symbols.txt ABSOLUTE
    gtl_send_msg                             0x07f0e373   Thumb Code     0  da14531_symbols.txt ABSOLUTE
    gtl_eif_read_start_func                  0x07f0e3fd   Thumb Code     0  da14531_symbols.txt ABSOLUTE
    gtl_eif_read_hdr_func                    0x07f0e41d   Thumb Code     0  da14531_symbols.txt ABSOLUTE
    gtl_eif_read_payl_func                   0x07f0e43d   Thumb Code     0  da14531_symbols.txt ABSOLUTE
    gtl_eif_tx_done_func                     0x07f0e47b   Thumb Code     0  da14531_symbols.txt ABSOLUTE
    gtl_eif_rx_done_func                     0x07f0e48b   Thumb Code     0  da14531_symbols.txt ABSOLUTE
    gtl_eif_init_func                        0x07f0e5bd   Thumb Code     0  da14531_symbols.txt ABSOLUTE
    gtl_eif_write                            0x07f0e5d7   Thumb Code     0  da14531_symbols.txt ABSOLUTE
    gtl_eif_start                            0x07f0e5f9   Thumb Code     0  da14531_symbols.txt ABSOLUTE
    gtl_eif_stop                             0x07f0e603   Thumb Code     0  da14531_symbols.txt ABSOLUTE
    gtl_env_curr_msg_type_set                0x07f0e61f   Thumb Code     0  da14531_symbols.txt ABSOLUTE
    hci_tl_host_cmd_discarded                0x07f0e8d3   Thumb Code     0  da14531_symbols.txt ABSOLUTE
    hci_tl_send                              0x07f0e8f1   Thumb Code     0  da14531_symbols.txt ABSOLUTE
    hci_tl_init                              0x07f0e939   Thumb Code     0  da14531_symbols.txt ABSOLUTE
    hci_cmd_get_max_param_size               0x07f0e95d   Thumb Code     0  da14531_symbols.txt ABSOLUTE
    hci_cmd_received                         0x07f0e9a7   Thumb Code     0  da14531_symbols.txt ABSOLUTE
    hci_acl_tx_data_alloc                    0x07f0eae3   Thumb Code     0  da14531_symbols.txt ABSOLUTE
    hci_acl_tx_data_received                 0x07f0eb75   Thumb Code     0  da14531_symbols.txt ABSOLUTE
    hci_acl_rx_data_alloc                    0x07f0ebdd   Thumb Code     0  da14531_symbols.txt ABSOLUTE
    hci_acl_rx_data_received                 0x07f0ebe9   Thumb Code     0  da14531_symbols.txt ABSOLUTE
    hci_evt_received                         0x07f0ec1f   Thumb Code     0  da14531_symbols.txt ABSOLUTE
    hci_tl_env_tx_queue_cnt_get              0x07f0edcb   Thumb Code     0  da14531_symbols.txt ABSOLUTE
    hci_util_pack                            0x07f0eee3   Thumb Code     0  da14531_symbols.txt ABSOLUTE
    hci_util_unpack                          0x07f0efe3   Thumb Code     0  da14531_symbols.txt ABSOLUTE
    hci_look_for_cmd_desc                    0x07f0f4c9   Thumb Code     0  da14531_symbols.txt ABSOLUTE
    hci_look_for_evt_desc                    0x07f0f515   Thumb Code     0  da14531_symbols.txt ABSOLUTE
    hci_look_for_le_evt_desc                 0x07f0f537   Thumb Code     0  da14531_symbols.txt ABSOLUTE
    hci_evt_mask_set                         0x07f0f569   Thumb Code     0  da14531_symbols.txt ABSOLUTE
    hci_init                                 0x07f0f5b1   Thumb Code     0  da14531_symbols.txt ABSOLUTE
    hci_reset                                0x07f0f5cd   Thumb Code     0  da14531_symbols.txt ABSOLUTE
    hci_send_2_host                          0x07f0f5e5   Thumb Code     0  da14531_symbols.txt ABSOLUTE
    hci_host_cmd_discarded                   0x07f0f6cf   Thumb Code     0  da14531_symbols.txt ABSOLUTE
    hci_send_2_controller                    0x07f0f6d7   Thumb Code     0  da14531_symbols.txt ABSOLUTE
    h4tl_read_start_func                     0x07f0f7b1   Thumb Code     0  da14531_symbols.txt ABSOLUTE
    h4tl_read_hdr_func                       0x07f0f7cf   Thumb Code     0  da14531_symbols.txt ABSOLUTE
    h4tl_read_payl_func                      0x07f0f7eb   Thumb Code     0  da14531_symbols.txt ABSOLUTE
    h4tl_read_next_out_of_sync_func          0x07f0f805   Thumb Code     0  da14531_symbols.txt ABSOLUTE
    h4tl_out_of_sync_func                    0x07f0f819   Thumb Code     0  da14531_symbols.txt ABSOLUTE
    h4tl_out_of_sync_check                   0x07f0f83f   Thumb Code     0  da14531_symbols.txt ABSOLUTE
    h4tl_tx_done_func                        0x07f0f897   Thumb Code     0  da14531_symbols.txt ABSOLUTE
    h4tl_rx_done_func                        0x07f0f8af   Thumb Code     0  da14531_symbols.txt ABSOLUTE
    h4tl_init_func                           0x07f0f9f5   Thumb Code     0  da14531_symbols.txt ABSOLUTE
    h4tl_write                               0x07f0fa11   Thumb Code     0  da14531_symbols.txt ABSOLUTE
    h4tl_start                               0x07f0fa39   Thumb Code     0  da14531_symbols.txt ABSOLUTE
    h4tl_stop                                0x07f0fa41   Thumb Code     0  da14531_symbols.txt ABSOLUTE
    h4tl_env_rx_type_set                     0x07f0fa55   Thumb Code     0  da14531_symbols.txt ABSOLUTE
    h4tl_env_hdr_set                         0x07f0fa61   Thumb Code     0  da14531_symbols.txt ABSOLUTE
    attc_send_att_req                        0x07f0fa9d   Thumb Code     0  da14531_symbols.txt ABSOLUTE
    attc_allocate_att_req                    0x07f0fad9   Thumb Code     0  da14531_symbols.txt ABSOLUTE
    attc_send_hdl_cfm                        0x07f0fafb   Thumb Code     0  da14531_symbols.txt ABSOLUTE
    attc_send_execute                        0x07f0fb11   Thumb Code     0  da14531_symbols.txt ABSOLUTE
    attc_send_read_ind                       0x07f0fb2b   Thumb Code     0  da14531_symbols.txt ABSOLUTE
    attc_l2cc_pdu_recv_handler_func          0x07f1046b   Thumb Code     0  da14531_symbols.txt ABSOLUTE
    attm_convert_to128                       0x07f104c5   Thumb Code     0  da14531_symbols.txt ABSOLUTE
    attm_uuid_comp                           0x07f104f5   Thumb Code     0  da14531_symbols.txt ABSOLUTE
    attm_uuid16_comp                         0x07f1054d   Thumb Code     0  da14531_symbols.txt ABSOLUTE
    attm_is_bt16_uuid                        0x07f10559   Thumb Code     0  da14531_symbols.txt ABSOLUTE
    attm_is_bt32_uuid                        0x07f1057f   Thumb Code     0  da14531_symbols.txt ABSOLUTE
    attmdb_add_service                       0x07f1097f   Thumb Code     0  da14531_symbols.txt ABSOLUTE
    attmdb_destroy                           0x07f10a07   Thumb Code     0  da14531_symbols.txt ABSOLUTE
    attmdb_get_service                       0x07f10a21   Thumb Code     0  da14531_symbols.txt ABSOLUTE
    attmdb_get_attribute                     0x07f10a5f   Thumb Code     0  da14531_symbols.txt ABSOLUTE
    attmdb_get_next_att                      0x07f10a93   Thumb Code     0  da14531_symbols.txt ABSOLUTE
    attmdb_uuid16_comp                       0x07f10af7   Thumb Code     0  da14531_symbols.txt ABSOLUTE
    attmdb_att_set_value                     0x07f10b33   Thumb Code     0  da14531_symbols.txt ABSOLUTE
    attmdb_get_max_len                       0x07f10bdf   Thumb Code     0  da14531_symbols.txt ABSOLUTE
    attmdb_get_uuid                          0x07f10c45   Thumb Code     0  da14531_symbols.txt ABSOLUTE
    attmdb_get_value                         0x07f10d1b   Thumb Code     0  da14531_symbols.txt ABSOLUTE
    attmdb_att_set_permission                0x07f10e6b   Thumb Code     0  da14531_symbols.txt ABSOLUTE
    attmdb_att_update_perm                   0x07f10edd   Thumb Code     0  da14531_symbols.txt ABSOLUTE
    attmdb_svc_get_permission                0x07f10f4b   Thumb Code     0  da14531_symbols.txt ABSOLUTE
    attmdb_att_get_permission                0x07f10f69   Thumb Code     0  da14531_symbols.txt ABSOLUTE
    attmdb_svc_set_permission                0x07f1106b   Thumb Code     0  da14531_symbols.txt ABSOLUTE
    attmdb_init                              0x07f1108f   Thumb Code     0  da14531_symbols.txt ABSOLUTE
    attmdb_get_nb_svc                        0x07f110a5   Thumb Code     0  da14531_symbols.txt ABSOLUTE
    attmdb_get_svc_info                      0x07f110b9   Thumb Code     0  da14531_symbols.txt ABSOLUTE
    attm_svc_create_db                       0x07f110ed   Thumb Code     0  da14531_symbols.txt ABSOLUTE
    attmdb_reserve_handle_range              0x07f111fb   Thumb Code     0  da14531_symbols.txt ABSOLUTE
    atts_clear_read_cache                    0x07f1138d   Thumb Code     0  da14531_symbols.txt ABSOLUTE
    atts_send_error                          0x07f11519   Thumb Code     0  da14531_symbols.txt ABSOLUTE
    atts_write_signed_cfm                    0x07f11535   Thumb Code     0  da14531_symbols.txt ABSOLUTE
    atts_send_event                          0x07f1157b   Thumb Code     0  da14531_symbols.txt ABSOLUTE
    atts_clear_prep_data                     0x07f11603   Thumb Code     0  da14531_symbols.txt ABSOLUTE
    atts_clear_rsp_data                      0x07f11627   Thumb Code     0  da14531_symbols.txt ABSOLUTE
    atts_clear_pending_write_ind_data        0x07f1167d   Thumb Code     0  da14531_symbols.txt ABSOLUTE
    atts_write_rsp_send                      0x07f116a1   Thumb Code     0  da14531_symbols.txt ABSOLUTE
    atts_l2cc_pdu_recv_handler_func          0x07f122b9   Thumb Code     0  da14531_symbols.txt ABSOLUTE
    gattc_cleanup                            0x07f1252b   Thumb Code     0  da14531_symbols.txt ABSOLUTE
    gattc_init                               0x07f125b5   Thumb Code     0  da14531_symbols.txt ABSOLUTE
    gattc_update_state                       0x07f125e7   Thumb Code     0  da14531_symbols.txt ABSOLUTE
    gattc_create                             0x07f1260b   Thumb Code     0  da14531_symbols.txt ABSOLUTE
    gattc_con_enable                         0x07f1268b   Thumb Code     0  da14531_symbols.txt ABSOLUTE
    gattc_get_mtu                            0x07f12691   Thumb Code     0  da14531_symbols.txt ABSOLUTE
    gattc_set_mtu                            0x07f1269d   Thumb Code     0  da14531_symbols.txt ABSOLUTE
    gattc_get_requester                      0x07f126e3   Thumb Code     0  da14531_symbols.txt ABSOLUTE
    gattc_send_complete_evt                  0x07f126ff   Thumb Code     0  da14531_symbols.txt ABSOLUTE
    gattc_send_error_evt                     0x07f1275b   Thumb Code     0  da14531_symbols.txt ABSOLUTE
    gattc_get_operation                      0x07f12781   Thumb Code     0  da14531_symbols.txt ABSOLUTE
    gattc_get_op_seq_num                     0x07f12797   Thumb Code     0  da14531_symbols.txt ABSOLUTE
    gattc_get_operation_ptr                  0x07f127ad   Thumb Code     0  da14531_symbols.txt ABSOLUTE
    gattc_set_operation_ptr                  0x07f127b9   Thumb Code     0  da14531_symbols.txt ABSOLUTE
    gattc_reschedule_operation               0x07f127c5   Thumb Code     0  da14531_symbols.txt ABSOLUTE
    gattc_reallocate_svc                     0x07f12809   Thumb Code     0  da14531_symbols.txt ABSOLUTE
    gattm_svc_get_start_hdl                  0x07f13815   Thumb Code     0  da14531_symbols.txt ABSOLUTE
    gattm_init                               0x07f1381b   Thumb Code     0  da14531_symbols.txt ABSOLUTE
    gattm_init_attr                          0x07f13839   Thumb Code     0  da14531_symbols.txt ABSOLUTE
    gattm_create                             0x07f1388d   Thumb Code     0  da14531_symbols.txt ABSOLUTE
    gattm_cleanup                            0x07f13895   Thumb Code     0  da14531_symbols.txt ABSOLUTE
    gattm_get_max_mtu                        0x07f1389d   Thumb Code     0  da14531_symbols.txt ABSOLUTE
    gattm_set_max_mtu                        0x07f138a3   Thumb Code     0  da14531_symbols.txt ABSOLUTE
    gattm_get_max_mps                        0x07f138bf   Thumb Code     0  da14531_symbols.txt ABSOLUTE
    gattm_set_max_mps                        0x07f138c5   Thumb Code     0  da14531_symbols.txt ABSOLUTE
    l2cc_cleanup                             0x07f13b2d   Thumb Code     0  da14531_symbols.txt ABSOLUTE
    l2cc_init                                0x07f13b71   Thumb Code     0  da14531_symbols.txt ABSOLUTE
    l2cc_create                              0x07f13ba3   Thumb Code     0  da14531_symbols.txt ABSOLUTE
    l2cc_update_state                        0x07f13bdb   Thumb Code     0  da14531_symbols.txt ABSOLUTE
    hci_acl_data_rx_handler                  0x07f13d97   Thumb Code     0  da14531_symbols.txt ABSOLUTE
    l2cm_init                                0x07f14029   Thumb Code     0  da14531_symbols.txt ABSOLUTE
    l2cm_create                              0x07f1403d   Thumb Code     0  da14531_symbols.txt ABSOLUTE
    l2cm_cleanup                             0x07f14045   Thumb Code     0  da14531_symbols.txt ABSOLUTE
    l2cm_set_link_layer_buff_size            0x07f1404d   Thumb Code     0  da14531_symbols.txt ABSOLUTE
    smpc_send_use_enc_block_cmd              0x07f1405d   Thumb Code     0  da14531_symbols.txt ABSOLUTE
    smpc_send_start_enc_cmd                  0x07f14095   Thumb Code     0  da14531_symbols.txt ABSOLUTE
    smpc_send_ltk_req_rsp                    0x07f1410f   Thumb Code     0  da14531_symbols.txt ABSOLUTE
    smpc_send_pairing_req_ind                0x07f1416b   Thumb Code     0  da14531_symbols.txt ABSOLUTE
    smpc_send_pairing_ind                    0x07f1424f   Thumb Code     0  da14531_symbols.txt ABSOLUTE
    smpc_check_pairing_feat                  0x07f1436b   Thumb Code     0  da14531_symbols.txt ABSOLUTE
    smpc_launch_rep_att_timer                0x07f14385   Thumb Code     0  da14531_symbols.txt ABSOLUTE
    smpc_check_repeated_attempts             0x07f143c1   Thumb Code     0  da14531_symbols.txt ABSOLUTE
    smpc_check_max_key_size                  0x07f14423   Thumb Code     0  da14531_symbols.txt ABSOLUTE
    smpc_check_key_distrib                   0x07f14469   Thumb Code     0  da14531_symbols.txt ABSOLUTE
    smpc_xor                                 0x07f144b3   Thumb Code     0  da14531_symbols.txt ABSOLUTE
    smpc_generate_l                          0x07f144c9   Thumb Code     0  da14531_symbols.txt ABSOLUTE
    smpc_generate_ci                         0x07f14517   Thumb Code     0  da14531_symbols.txt ABSOLUTE
    smpc_generate_rand                       0x07f1457b   Thumb Code     0  da14531_symbols.txt ABSOLUTE
    smpc_generate_e1                         0x07f145a1   Thumb Code     0  da14531_symbols.txt ABSOLUTE
    smpc_generate_cfm                        0x07f1465b   Thumb Code     0  da14531_symbols.txt ABSOLUTE
    smpc_generate_stk                        0x07f146d5   Thumb Code     0  da14531_symbols.txt ABSOLUTE
    smpc_calc_subkeys                        0x07f1472b   Thumb Code     0  da14531_symbols.txt ABSOLUTE
    smpc_clear_timeout_timer                 0x07f147a1   Thumb Code     0  da14531_symbols.txt ABSOLUTE
    smpc_pairing_end                         0x07f147cb   Thumb Code     0  da14531_symbols.txt ABSOLUTE
    smpc_tkdp_rcp_continue                   0x07f14829   Thumb Code     0  da14531_symbols.txt ABSOLUTE
    smpc_tkdp_rcp_start                      0x07f148a1   Thumb Code     0  da14531_symbols.txt ABSOLUTE
    smpc_pdu_send                            0x07f148f5   Thumb Code     0  da14531_symbols.txt ABSOLUTE
    smpc_tkdp_send_start                     0x07f14993   Thumb Code     0  da14531_symbols.txt ABSOLUTE
    smpc_tkdp_send_continue                  0x07f14a1f   Thumb Code     0  da14531_symbols.txt ABSOLUTE
    smpc_get_key_sec_prop                    0x07f14a9b   Thumb Code     0  da14531_symbols.txt ABSOLUTE
    smpc_is_sec_mode_reached                 0x07f14b67   Thumb Code     0  da14531_symbols.txt ABSOLUTE
    smpc_handle_enc_change_evt               0x07f14ba9   Thumb Code     0  da14531_symbols.txt ABSOLUTE
    smpc_pdu_recv_func                       0x07f14c63   Thumb Code     0  da14531_symbols.txt ABSOLUTE
    smpc_generate_subkey                     0x07f14ccf   Thumb Code     0  da14531_symbols.txt ABSOLUTE
    leftshift_onebit                         0x07f14d03   Thumb Code     0  da14531_symbols.txt ABSOLUTE
    padding                                  0x07f14d1b   Thumb Code     0  da14531_symbols.txt ABSOLUTE
    smpc_generate_subkey_P2                  0x07f14d3f   Thumb Code     0  da14531_symbols.txt ABSOLUTE
    AES_CMAC_block                           0x07f14de3   Thumb Code     0  da14531_symbols.txt ABSOLUTE
    smpc_generate_f4                         0x07f14ea3   Thumb Code     0  da14531_symbols.txt ABSOLUTE
    smpc_generate_g2                         0x07f14fb7   Thumb Code     0  da14531_symbols.txt ABSOLUTE
    smpc_generate_f5                         0x07f15061   Thumb Code     0  da14531_symbols.txt ABSOLUTE
    smpc_generate_f5_T                       0x07f15073   Thumb Code     0  da14531_symbols.txt ABSOLUTE
    smpc_generate_f5_P2                      0x07f150e1   Thumb Code     0  da14531_symbols.txt ABSOLUTE
    smpc_generate_f6                         0x07f152b3   Thumb Code     0  da14531_symbols.txt ABSOLUTE
    smpm_send_encrypt_req                    0x07f1544d   Thumb Code     0  da14531_symbols.txt ABSOLUTE
    smpm_send_gen_rand_nb_req                0x07f1547b   Thumb Code     0  da14531_symbols.txt ABSOLUTE
    smpm_check_addr_type                     0x07f15491   Thumb Code     0  da14531_symbols.txt ABSOLUTE
    gapc_update_state                        0x07f154fd   Thumb Code     0  da14531_symbols.txt ABSOLUTE
    gapc_get_requester                       0x07f1552d   Thumb Code     0  da14531_symbols.txt ABSOLUTE
    gapc_send_complete_evt                   0x07f15549   Thumb Code     0  da14531_symbols.txt ABSOLUTE
    gapc_init                                0x07f15673   Thumb Code     0  da14531_symbols.txt ABSOLUTE
    gapc_con_create                          0x07f156a5   Thumb Code     0  da14531_symbols.txt ABSOLUTE
    gapc_con_create_enh                      0x07f1575f   Thumb Code     0  da14531_symbols.txt ABSOLUTE
    gapc_con_cleanup                         0x07f15859   Thumb Code     0  da14531_symbols.txt ABSOLUTE
    gapc_send_disconect_ind                  0x07f15869   Thumb Code     0  da14531_symbols.txt ABSOLUTE
    gapc_get_conidx                          0x07f1588b   Thumb Code     0  da14531_symbols.txt ABSOLUTE
    gapc_get_conhdl                          0x07f158c5   Thumb Code     0  da14531_symbols.txt ABSOLUTE
    gapc_get_role                            0x07f158dd   Thumb Code     0  da14531_symbols.txt ABSOLUTE
    gapc_get_bdaddr                          0x07f158f9   Thumb Code     0  da14531_symbols.txt ABSOLUTE
    gapc_get_csrk                            0x07f15919   Thumb Code     0  da14531_symbols.txt ABSOLUTE
    gapc_get_sign_counter                    0x07f15937   Thumb Code     0  da14531_symbols.txt ABSOLUTE
    gapc_send_error_evt                      0x07f15955   Thumb Code     0  da14531_symbols.txt ABSOLUTE
    gapc_get_operation                       0x07f15977   Thumb Code     0  da14531_symbols.txt ABSOLUTE
    gapc_get_operation_ptr                   0x07f1598d   Thumb Code     0  da14531_symbols.txt ABSOLUTE
    gapc_set_operation_ptr                   0x07f15999   Thumb Code     0  da14531_symbols.txt ABSOLUTE
    gapc_reschedule_operation                0x07f159a5   Thumb Code     0  da14531_symbols.txt ABSOLUTE
    gapc_reschedule_conn_update              0x07f159d5   Thumb Code     0  da14531_symbols.txt ABSOLUTE
    gapc_get_enc_keysize                     0x07f159fb   Thumb Code     0  da14531_symbols.txt ABSOLUTE
    gapc_is_sec_set                          0x07f15a13   Thumb Code     0  da14531_symbols.txt ABSOLUTE
    gapc_set_enc_keysize                     0x07f15a9f   Thumb Code     0  da14531_symbols.txt ABSOLUTE
    gapc_link_encrypted                      0x07f15ab3   Thumb Code     0  da14531_symbols.txt ABSOLUTE
    gapc_auth_set                            0x07f15acd   Thumb Code     0  da14531_symbols.txt ABSOLUTE
    gapc_svc_chg_ccc_get                     0x07f15aed   Thumb Code     0  da14531_symbols.txt ABSOLUTE
    gapc_svc_chg_ccc_set                     0x07f15afd   Thumb Code     0  da14531_symbols.txt ABSOLUTE
    gapc_check_lecb_sec_perm                 0x07f15b13   Thumb Code     0  da14531_symbols.txt ABSOLUTE
    gapc_search_lecb_channel                 0x07f15b7b   Thumb Code     0  da14531_symbols.txt ABSOLUTE
    gapc_lecnx_check_tx                      0x07f15bb5   Thumb Code     0  da14531_symbols.txt ABSOLUTE
    gapc_lecnx_check_rx                      0x07f15bfd   Thumb Code     0  da14531_symbols.txt ABSOLUTE
    gapc_lecnx_get_field                     0x07f15c41   Thumb Code     0  da14531_symbols.txt ABSOLUTE
    gapc_process_op                          0x07f15cb5   Thumb Code     0  da14531_symbols.txt ABSOLUTE
    gapc_param_update_sanity                 0x07f15e2f   Thumb Code     0  da14531_symbols.txt ABSOLUTE
    gapc_param_cb_con_sanity                 0x07f15e57   Thumb Code     0  da14531_symbols.txt ABSOLUTE
    l2cc_pdu_recv_ind_handler_func           0x07f16323   Thumb Code     0  da14531_symbols.txt ABSOLUTE
    gapc_lecb_connect_cfm_handler_func       0x07f172eb   Thumb Code     0  da14531_symbols.txt ABSOLUTE
    gapm_init                                0x07f176c7   Thumb Code     0  da14531_symbols.txt ABSOLUTE
    gapm_init_attr                           0x07f17723   Thumb Code     0  da14531_symbols.txt ABSOLUTE
    gapm_get_operation                       0x07f1774f   Thumb Code     0  da14531_symbols.txt ABSOLUTE
    gapm_get_requester                       0x07f17761   Thumb Code     0  da14531_symbols.txt ABSOLUTE
    gapm_reschedule_operation                0x07f17779   Thumb Code     0  da14531_symbols.txt ABSOLUTE
    gapm_send_complete_evt                   0x07f1779b   Thumb Code     0  da14531_symbols.txt ABSOLUTE
    gapm_send_error_evt                      0x07f177d1   Thumb Code     0  da14531_symbols.txt ABSOLUTE
    gapm_con_create                          0x07f177f1   Thumb Code     0  da14531_symbols.txt ABSOLUTE
    gapm_con_enable                          0x07f17875   Thumb Code     0  da14531_symbols.txt ABSOLUTE
    gapm_con_cleanup                         0x07f17881   Thumb Code     0  da14531_symbols.txt ABSOLUTE
    gapm_get_id_from_task                    0x07f178b1   Thumb Code     0  da14531_symbols.txt ABSOLUTE
    gapm_get_task_from_id                    0x07f178f1   Thumb Code     0  da14531_symbols.txt ABSOLUTE
    gapm_is_disc_connection                  0x07f1792d   Thumb Code     0  da14531_symbols.txt ABSOLUTE
    gapm_adv_sanity                          0x07f18779   Thumb Code     0  da14531_symbols.txt ABSOLUTE
    gapm_adv_op_sanity                       0x07f1886d   Thumb Code     0  da14531_symbols.txt ABSOLUTE
    gapm_set_adv_mode                        0x07f189f3   Thumb Code     0  da14531_symbols.txt ABSOLUTE
    gapm_set_adv_data                        0x07f18a0d   Thumb Code     0  da14531_symbols.txt ABSOLUTE
    gapm_execute_adv_op                      0x07f18a9d   Thumb Code     0  da14531_symbols.txt ABSOLUTE
    gapm_scan_op_sanity                      0x07f18bc3   Thumb Code     0  da14531_symbols.txt ABSOLUTE
    gapm_set_scan_mode                       0x07f18ccb   Thumb Code     0  da14531_symbols.txt ABSOLUTE
    gapm_execute_scan_op                     0x07f18ce9   Thumb Code     0  da14531_symbols.txt ABSOLUTE
    gapm_connect_op_sanity                   0x07f18da3   Thumb Code     0  da14531_symbols.txt ABSOLUTE
    gapm_basic_hci_cmd_send                  0x07f18f23   Thumb Code     0  da14531_symbols.txt ABSOLUTE
    gapm_execute_connect_op                  0x07f18f37   Thumb Code     0  da14531_symbols.txt ABSOLUTE
    gapm_get_role                            0x07f190d9   Thumb Code     0  da14531_symbols.txt ABSOLUTE
    gapm_get_ad_type_flag                    0x07f190e1   Thumb Code     0  da14531_symbols.txt ABSOLUTE
    gapm_add_to_filter                       0x07f19107   Thumb Code     0  da14531_symbols.txt ABSOLUTE
    gapm_is_filtered                         0x07f19187   Thumb Code     0  da14531_symbols.txt ABSOLUTE
    gapm_update_air_op_state                 0x07f191eb   Thumb Code     0  da14531_symbols.txt ABSOLUTE
    gapm_get_irk                             0x07f192b3   Thumb Code     0  da14531_symbols.txt ABSOLUTE
    gapm_get_bdaddr                          0x07f192b9   Thumb Code     0  da14531_symbols.txt ABSOLUTE
    l2cc_pdu_pack_func                       0x07f192d5   Thumb Code     0  da14531_symbols.txt ABSOLUTE
    l2cc_detect_dest                         0x07f197d1   Thumb Code     0  da14531_symbols.txt ABSOLUTE
    l2cc_handle_invalid_pdu                  0x07f1982d   Thumb Code     0  da14531_symbols.txt ABSOLUTE
    l2cc_pdu_unpack_func                     0x07f19943   Thumb Code     0  da14531_symbols.txt ABSOLUTE
    l2c_process_sdu_func                     0x07f19c5f   Thumb Code     0  da14531_symbols.txt ABSOLUTE
    l2c_send_lecb_message_func               0x07f19d5f   Thumb Code     0  da14531_symbols.txt ABSOLUTE
    smpc_check_param_func                    0x07f19e59   Thumb Code     0  da14531_symbols.txt ABSOLUTE
    smpc_recv_pair_rand_pdu                  0x07f1a1e3   Thumb Code     0  da14531_symbols.txt ABSOLUTE
    smpc_recv_public_key_exchange_pdu        0x07f1a44f   Thumb Code     0  da14531_symbols.txt ABSOLUTE
    gapc_hci_handler                         0x07f1aacd   Thumb Code     0  da14531_symbols.txt ABSOLUTE
    gapm_hci_handler                         0x07f1b745   Thumb Code     0  da14531_symbols.txt ABSOLUTE
    smpc_pairing_start                       0x07f1b7b1   Thumb Code     0  da14531_symbols.txt ABSOLUTE
    smpc_pairing_tk_exch                     0x07f1b837   Thumb Code     0  da14531_symbols.txt ABSOLUTE
    smpc_pairing_ltk_exch                    0x07f1b8f5   Thumb Code     0  da14531_symbols.txt ABSOLUTE
    smpc_pairing_csrk_exch                   0x07f1b949   Thumb Code     0  da14531_symbols.txt ABSOLUTE
    smpc_pairing_rsp                         0x07f1b99f   Thumb Code     0  da14531_symbols.txt ABSOLUTE
    smpc_pairing_req_handler                 0x07f1ba83   Thumb Code     0  da14531_symbols.txt ABSOLUTE
    smpc_security_req_send                   0x07f1babb   Thumb Code     0  da14531_symbols.txt ABSOLUTE
    smpc_encrypt_start                       0x07f1bae5   Thumb Code     0  da14531_symbols.txt ABSOLUTE
    smpc_encrypt_start_handler               0x07f1bb0b   Thumb Code     0  da14531_symbols.txt ABSOLUTE
    smpc_encrypt_cfm                         0x07f1bb3d   Thumb Code     0  da14531_symbols.txt ABSOLUTE
    smpc_sign_command                        0x07f1bb69   Thumb Code     0  da14531_symbols.txt ABSOLUTE
    smpc_sign_cont                           0x07f1bc41   Thumb Code     0  da14531_symbols.txt ABSOLUTE
    smpc_calc_confirm_cont                   0x07f1bdeb   Thumb Code     0  da14531_symbols.txt ABSOLUTE
    smpc_confirm_gen_rand                    0x07f1c32d   Thumb Code     0  da14531_symbols.txt ABSOLUTE
    smpc_public_key_exchange_start_func      0x07f1c3f3   Thumb Code     0  da14531_symbols.txt ABSOLUTE
    smpc_dhkey_calc_start                    0x07f1c417   Thumb Code     0  da14531_symbols.txt ABSOLUTE
    smpc_sec_authentication_start            0x07f1c447   Thumb Code     0  da14531_symbols.txt ABSOLUTE
    smpc_dhkey_calc_ind_func                 0x07f1c475   Thumb Code     0  da14531_symbols.txt ABSOLUTE
    smpm_gen_rand_addr                       0x07f1c4b9   Thumb Code     0  da14531_symbols.txt ABSOLUTE
    smpm_resolv_addr                         0x07f1c4d1   Thumb Code     0  da14531_symbols.txt ABSOLUTE
    smpm_use_enc_block                       0x07f1c4f3   Thumb Code     0  da14531_symbols.txt ABSOLUTE
    smpm_gen_rand_nb                         0x07f1c4fb   Thumb Code     0  da14531_symbols.txt ABSOLUTE
    smpm_ecdh_key_create_func                0x07f1c503   Thumb Code     0  da14531_symbols.txt ABSOLUTE
    ke_init                                  0x07f1c521   Thumb Code     0  da14531_symbols.txt ABSOLUTE
    ke_flush                                 0x07f1c553   Thumb Code     0  da14531_symbols.txt ABSOLUTE
    ke_sleep_check                           0x07f1c593   Thumb Code     0  da14531_symbols.txt ABSOLUTE
    ke_stats_get                             0x07f1c5a5   Thumb Code     0  da14531_symbols.txt ABSOLUTE
    ke_event_init                            0x07f1c5c1   Thumb Code     0  da14531_symbols.txt ABSOLUTE
    ke_event_callback_set                    0x07f1c5cd   Thumb Code     0  da14531_symbols.txt ABSOLUTE
    ke_event_set                             0x07f1c5e1   Thumb Code     0  da14531_symbols.txt ABSOLUTE
    ke_event_clear                           0x07f1c60d   Thumb Code     0  da14531_symbols.txt ABSOLUTE
    ke_event_get                             0x07f1c639   Thumb Code     0  da14531_symbols.txt ABSOLUTE
    ke_event_get_all                         0x07f1c65f   Thumb Code     0  da14531_symbols.txt ABSOLUTE
    ke_event_flush                           0x07f1c665   Thumb Code     0  da14531_symbols.txt ABSOLUTE
    ke_event_schedule                        0x07f1c66d   Thumb Code     0  da14531_symbols.txt ABSOLUTE
    ke_mem_init                              0x07f1c6bd   Thumb Code     0  da14531_symbols.txt ABSOLUTE
    ke_mem_is_empty                          0x07f1c709   Thumb Code     0  da14531_symbols.txt ABSOLUTE
    ke_check_malloc                          0x07f1c749   Thumb Code     0  da14531_symbols.txt ABSOLUTE
    ke_malloc                                0x07f1c7d9   Thumb Code     0  da14531_symbols.txt ABSOLUTE
    ke_free                                  0x07f1c8cf   Thumb Code     0  da14531_symbols.txt ABSOLUTE
    ke_is_free                               0x07f1c9b1   Thumb Code     0  da14531_symbols.txt ABSOLUTE
    ke_get_mem_usage                         0x07f1c9c3   Thumb Code     0  da14531_symbols.txt ABSOLUTE
    ke_get_max_mem_usage                     0x07f1c9cf   Thumb Code     0  da14531_symbols.txt ABSOLUTE
    ke_msg_alloc                             0x07f1c9f5   Thumb Code     0  da14531_symbols.txt ABSOLUTE
    ke_msg_send                              0x07f1ca2b   Thumb Code     0  da14531_symbols.txt ABSOLUTE
    ke_msg_send_basic                        0x07f1ca57   Thumb Code     0  da14531_symbols.txt ABSOLUTE
    ke_msg_forward                           0x07f1ca65   Thumb Code     0  da14531_symbols.txt ABSOLUTE
    ke_msg_forward_new_id                    0x07f1ca6f   Thumb Code     0  da14531_symbols.txt ABSOLUTE
    ke_msg_free                              0x07f1ca7f   Thumb Code     0  da14531_symbols.txt ABSOLUTE
    ke_msg_dest_id_get                       0x07f1ca87   Thumb Code     0  da14531_symbols.txt ABSOLUTE
    ke_msg_src_id_get                        0x07f1ca8d   Thumb Code     0  da14531_symbols.txt ABSOLUTE
    ke_msg_in_queue                          0x07f1ca93   Thumb Code     0  da14531_symbols.txt ABSOLUTE
    ke_queue_extract                         0x07f1caa5   Thumb Code     0  da14531_symbols.txt ABSOLUTE
    ke_queue_insert                          0x07f1caf5   Thumb Code     0  da14531_symbols.txt ABSOLUTE
    ke_task_init_func                        0x07f1cddf   Thumb Code     0  da14531_symbols.txt ABSOLUTE
    ke_task_create                           0x07f1cdf3   Thumb Code     0  da14531_symbols.txt ABSOLUTE
    ke_task_delete                           0x07f1ce2b   Thumb Code     0  da14531_symbols.txt ABSOLUTE
    ke_state_set                             0x07f1ce57   Thumb Code     0  da14531_symbols.txt ABSOLUTE
    ke_state_get                             0x07f1ce81   Thumb Code     0  da14531_symbols.txt ABSOLUTE
    ke_msg_discard                           0x07f1ce9f   Thumb Code     0  da14531_symbols.txt ABSOLUTE
    ke_msg_save                              0x07f1cea3   Thumb Code     0  da14531_symbols.txt ABSOLUTE
    ke_task_msg_flush                        0x07f1cea7   Thumb Code     0  da14531_symbols.txt ABSOLUTE
    ke_timer_init_func                       0x07f1d067   Thumb Code     0  da14531_symbols.txt ABSOLUTE
    ke_timer_set                             0x07f1d073   Thumb Code     0  da14531_symbols.txt ABSOLUTE
    ke_timer_clear                           0x07f1d107   Thumb Code     0  da14531_symbols.txt ABSOLUTE
    ke_timer_active                          0x07f1d15d   Thumb Code     0  da14531_symbols.txt ABSOLUTE
    ke_timer_sleep_check                     0x07f1d183   Thumb Code     0  da14531_symbols.txt ABSOLUTE
    rwble_hl_init                            0x07f1d289   Thumb Code     0  da14531_symbols.txt ABSOLUTE
    rwble_hl_reset                           0x07f1d2ab   Thumb Code     0  da14531_symbols.txt ABSOLUTE
    rwble_hl_send_message                    0x07f1d2cd   Thumb Code     0  da14531_symbols.txt ABSOLUTE
    rwip_check_wakeup_boundary               0x07f1d2d1   Thumb Code     0  da14531_symbols.txt ABSOLUTE
    rwip_init                                0x07f1d2f7   Thumb Code     0  da14531_symbols.txt ABSOLUTE
    rwip_reset                               0x07f1d3bb   Thumb Code     0  da14531_symbols.txt ABSOLUTE
    rwip_version                             0x07f1d3f3   Thumb Code     0  da14531_symbols.txt ABSOLUTE
    rwip_schedule                            0x07f1d3fb   Thumb Code     0  da14531_symbols.txt ABSOLUTE
    rwip_prevent_sleep_set                   0x07f1d4a7   Thumb Code     0  da14531_symbols.txt ABSOLUTE
    rwip_wakeup                              0x07f1d4c9   Thumb Code     0  da14531_symbols.txt ABSOLUTE
    rwip_prevent_sleep_clear                 0x07f1d4df   Thumb Code     0  da14531_symbols.txt ABSOLUTE
    rwip_wakeup_end                          0x07f1d501   Thumb Code     0  da14531_symbols.txt ABSOLUTE
    rwip_wakeup_delay_set                    0x07f1d51d   Thumb Code     0  da14531_symbols.txt ABSOLUTE
    rwip_sleep_enable                        0x07f1d52b   Thumb Code     0  da14531_symbols.txt ABSOLUTE
    rwip_ext_wakeup_enable                   0x07f1d531   Thumb Code     0  da14531_symbols.txt ABSOLUTE
    rwble_init                               0x07f1d555   Thumb Code     0  da14531_symbols.txt ABSOLUTE
    rwble_reset                              0x07f1d5bb   Thumb Code     0  da14531_symbols.txt ABSOLUTE
    rwble_version                            0x07f1d5ef   Thumb Code     0  da14531_symbols.txt ABSOLUTE
    rwble_send_message                       0x07f1d61b   Thumb Code     0  da14531_symbols.txt ABSOLUTE
    YieldToScheduler                         0x07f1d725   Thumb Code     0  da14531_symbols.txt ABSOLUTE
    xorshift64star                           0x07f1d72d   Thumb Code     0  da14531_symbols.txt ABSOLUTE
    uECC_set_rng                             0x07f1d793   Thumb Code     0  da14531_symbols.txt ABSOLUTE
    uECC_get_rng                             0x07f1d799   Thumb Code     0  da14531_symbols.txt ABSOLUTE
    uECC_curve_private_key_size              0x07f1d79f   Thumb Code     0  da14531_symbols.txt ABSOLUTE
    uECC_curve_public_key_size               0x07f1d7af   Thumb Code     0  da14531_symbols.txt ABSOLUTE
    uECC_vli_clear                           0x07f1d7b7   Thumb Code     0  da14531_symbols.txt ABSOLUTE
    uECC_vli_isZero                          0x07f1d7cd   Thumb Code     0  da14531_symbols.txt ABSOLUTE
    uECC_vli_testBit                         0x07f1d7ef   Thumb Code     0  da14531_symbols.txt ABSOLUTE
    uECC_vli_numBits                         0x07f1d801   Thumb Code     0  da14531_symbols.txt ABSOLUTE
    uECC_vli_set                             0x07f1d83b   Thumb Code     0  da14531_symbols.txt ABSOLUTE
    uECC_vli_equal                           0x07f1d879   Thumb Code     0  da14531_symbols.txt ABSOLUTE
    uECC_vli_cmp                             0x07f1d89d   Thumb Code     0  da14531_symbols.txt ABSOLUTE
    uECC_vli_rshift1                         0x07f1d8d3   Thumb Code     0  da14531_symbols.txt ABSOLUTE
    uECC_vli_square                          0x07f1d8f1   Thumb Code     0  da14531_symbols.txt ABSOLUTE
    uECC_vli_modAdd                          0x07f1d8fd   Thumb Code     0  da14531_symbols.txt ABSOLUTE
    uECC_vli_modSub                          0x07f1d92b   Thumb Code     0  da14531_symbols.txt ABSOLUTE
    uECC_vli_mmod                            0x07f1d94b   Thumb Code     0  da14531_symbols.txt ABSOLUTE
    uECC_vli_modMult                         0x07f1da55   Thumb Code     0  da14531_symbols.txt ABSOLUTE
    uECC_vli_modMult_fast                    0x07f1da77   Thumb Code     0  da14531_symbols.txt ABSOLUTE
    uECC_vli_modSquare                       0x07f1da97   Thumb Code     0  da14531_symbols.txt ABSOLUTE
    uECC_vli_modSquare_fast                  0x07f1daa5   Thumb Code     0  da14531_symbols.txt ABSOLUTE
    uECC_vli_modInv                          0x07f1dae5   Thumb Code     0  da14531_symbols.txt ABSOLUTE
    uECC_secp256r1                           0x07f1de21   Thumb Code     0  da14531_symbols.txt ABSOLUTE
    uECC_vli_nativeToBytes                   0x07f1e41f   Thumb Code     0  da14531_symbols.txt ABSOLUTE
    uECC_vli_bytesToNative                   0x07f1e441   Thumb Code     0  da14531_symbols.txt ABSOLUTE
    uECC_generate_random_int                 0x07f1e47f   Thumb Code     0  da14531_symbols.txt ABSOLUTE
    uECC_make_key                            0x07f1e4e1   Thumb Code     0  da14531_symbols.txt ABSOLUTE
    uECC_shared_secret                       0x07f1e55f   Thumb Code     0  da14531_symbols.txt ABSOLUTE
    uECC_compress                            0x07f1e61b   Thumb Code     0  da14531_symbols.txt ABSOLUTE
    uECC_decompress                          0x07f1e649   Thumb Code     0  da14531_symbols.txt ABSOLUTE
    uECC_valid_point                         0x07f1e6b9   Thumb Code     0  da14531_symbols.txt ABSOLUTE
    uECC_valid_public_key                    0x07f1e71b   Thumb Code     0  da14531_symbols.txt ABSOLUTE
    uECC_compute_public_key                  0x07f1e74f   Thumb Code     0  da14531_symbols.txt ABSOLUTE
    uECC_sign                                0x07f1e9d5   Thumb Code     0  da14531_symbols.txt ABSOLUTE
    uECC_sign_deterministic                  0x07f1eabb   Thumb Code     0  da14531_symbols.txt ABSOLUTE
    uECC_verify                              0x07f1ec29   Thumb Code     0  da14531_symbols.txt ABSOLUTE
    uECC_curve_num_words                     0x07f1eed5   Thumb Code     0  da14531_symbols.txt ABSOLUTE
    uECC_curve_num_bytes                     0x07f1eedd   Thumb Code     0  da14531_symbols.txt ABSOLUTE
    uECC_curve_num_bits                      0x07f1eee5   Thumb Code     0  da14531_symbols.txt ABSOLUTE
    uECC_curve_num_n_words                   0x07f1eeed   Thumb Code     0  da14531_symbols.txt ABSOLUTE
    uECC_curve_num_n_bytes                   0x07f1eefd   Thumb Code     0  da14531_symbols.txt ABSOLUTE
    uECC_curve_num_n_bits                    0x07f1ef0d   Thumb Code     0  da14531_symbols.txt ABSOLUTE
    uECC_curve_p                             0x07f1ef15   Thumb Code     0  da14531_symbols.txt ABSOLUTE
    uECC_curve_n                             0x07f1ef19   Thumb Code     0  da14531_symbols.txt ABSOLUTE
    uECC_curve_G                             0x07f1ef1d   Thumb Code     0  da14531_symbols.txt ABSOLUTE
    uECC_curve_b                             0x07f1ef21   Thumb Code     0  da14531_symbols.txt ABSOLUTE
    uECC_vli_mod_sqrt                        0x07f1ef25   Thumb Code     0  da14531_symbols.txt ABSOLUTE
    uECC_vli_mmod_fast                       0x07f1ef2b   Thumb Code     0  da14531_symbols.txt ABSOLUTE
    uECC_point_mult                          0x07f1ef31   Thumb Code     0  da14531_symbols.txt ABSOLUTE
    __aeabi_uidiv                            0x07f1f005   Thumb Code     0  da14531_symbols.txt ABSOLUTE
    __aeabi_uidivmod                         0x07f1f005   Thumb Code     0  da14531_symbols.txt ABSOLUTE
    __aeabi_idiv                             0x07f1f031   Thumb Code     0  da14531_symbols.txt ABSOLUTE
    __aeabi_idivmod                          0x07f1f031   Thumb Code     0  da14531_symbols.txt ABSOLUTE
    __aeabi_lmul                             0x07f1f059   Thumb Code     0  da14531_symbols.txt ABSOLUTE
    _ll_mul                                  0x07f1f059   Thumb Code     0  da14531_symbols.txt ABSOLUTE
    rand                                     0x07f1f0d5   Thumb Code     0  da14531_symbols.txt ABSOLUTE
    srand                                    0x07f1f0e7   Thumb Code     0  da14531_symbols.txt ABSOLUTE
    __aeabi_memcpy                           0x07f1f0f9   Thumb Code     0  da14531_symbols.txt ABSOLUTE
    __aeabi_memcpy4                          0x07f1f0f9   Thumb Code     0  da14531_symbols.txt ABSOLUTE
    __aeabi_memcpy8                          0x07f1f0f9   Thumb Code     0  da14531_symbols.txt ABSOLUTE
    __aeabi_memset                           0x07f1f11d   Thumb Code     0  da14531_symbols.txt ABSOLUTE
    __aeabi_memset4                          0x07f1f11d   Thumb Code     0  da14531_symbols.txt ABSOLUTE
    __aeabi_memset8                          0x07f1f11d   Thumb Code     0  da14531_symbols.txt ABSOLUTE
    __aeabi_memclr                           0x07f1f12b   Thumb Code     0  da14531_symbols.txt ABSOLUTE
    __aeabi_memclr4                          0x07f1f12b   Thumb Code     0  da14531_symbols.txt ABSOLUTE
    __aeabi_memclr8                          0x07f1f12b   Thumb Code     0  da14531_symbols.txt ABSOLUTE
    _memset$wrapper                          0x07f1f12f   Thumb Code     0  da14531_symbols.txt ABSOLUTE
    memcmp                                   0x07f1f141   Thumb Code     0  da14531_symbols.txt ABSOLUTE
    __aeabi_uread4                           0x07f1f15b   Thumb Code     0  da14531_symbols.txt ABSOLUTE
    __rt_uread4                              0x07f1f15b   Thumb Code     0  da14531_symbols.txt ABSOLUTE
    _uread4                                  0x07f1f15b   Thumb Code     0  da14531_symbols.txt ABSOLUTE
    __aeabi_uwrite4                          0x07f1f16f   Thumb Code     0  da14531_symbols.txt ABSOLUTE
    __rt_uwrite4                             0x07f1f16f   Thumb Code     0  da14531_symbols.txt ABSOLUTE
    _uwrite4                                 0x07f1f16f   Thumb Code     0  da14531_symbols.txt ABSOLUTE
    __aeabi_llsl                             0x07f1f181   Thumb Code     0  da14531_symbols.txt ABSOLUTE
    _ll_shift_l                              0x07f1f181   Thumb Code     0  da14531_symbols.txt ABSOLUTE
    __ARM_common_switch8                     0x07f1f1a1   Thumb Code     0  da14531_symbols.txt ABSOLUTE
    uart_api                                 0x07f1f1bc   Data           0  da14531_symbols.txt ABSOLUTE
    co_sca2ppm                               0x07f1f1cc   Data           0  da14531_symbols.txt ABSOLUTE
    co_null_bdaddr                           0x07f1f1dc   Data           0  da14531_symbols.txt ABSOLUTE
    co_default_bdaddr                        0x07f1f1e2   Data           0  da14531_symbols.txt ABSOLUTE
    llc_state_handler                        0x07f1f468   Data           0  da14531_symbols.txt ABSOLUTE
    llc_default_handler                      0x07f1f538   Data           0  da14531_symbols.txt ABSOLUTE
    llm_dflt_bdaddr                          0x07f1f550   Data           0  da14531_symbols.txt ABSOLUTE
    llm_debug_private_key                    0x07f1f556   Data           0  da14531_symbols.txt ABSOLUTE
    llm_local_le_states                      0x07f1f588   Data           0  da14531_symbols.txt ABSOLUTE
    llm_state_handler                        0x07f1f770   Data           0  da14531_symbols.txt ABSOLUTE
    llm_default_handler                      0x07f1f7a0   Data           0  da14531_symbols.txt ABSOLUTE
    LLM_AA_CT1                               0x07f1f7a8   Data           0  da14531_symbols.txt ABSOLUTE
    LLM_AA_CT2                               0x07f1f7ab   Data           0  da14531_symbols.txt ABSOLUTE
    ecc_p256_G                               0x07f1f7ad   Data           0  da14531_symbols.txt ABSOLUTE
    gtl_default_state                        0x07f1f800   Data           0  da14531_symbols.txt ABSOLUTE
    gtl_default_handler                      0x07f1f808   Data           0  da14531_symbols.txt ABSOLUTE
    hci_cmd_desc_tab_lk_ctrl                 0x07f1f814   Data           0  da14531_symbols.txt ABSOLUTE
    hci_cmd_desc_tab_ctrl_bb                 0x07f1f838   Data           0  da14531_symbols.txt ABSOLUTE
    hci_cmd_desc_tab_info_par                0x07f1f8b0   Data           0  da14531_symbols.txt ABSOLUTE
    hci_cmd_desc_tab_stat_par                0x07f1f8e0   Data           0  da14531_symbols.txt ABSOLUTE
    hci_cmd_desc_tab_le                      0x07f1f8ec   Data           0  da14531_symbols.txt ABSOLUTE
    hci_cmd_desc_tab_vs                      0x07f1fb38   Data           0  da14531_symbols.txt ABSOLUTE
    rom_hci_cmd_desc_root_tab                0x07f1fc7c   Data           0  da14531_symbols.txt ABSOLUTE
    hci_evt_desc_tab                         0x07f1fcac   Data           0  da14531_symbols.txt ABSOLUTE
    hci_evt_le_desc_tab                      0x07f1fcf4   Data           0  da14531_symbols.txt ABSOLUTE
    attc_handlers                            0x07f1fd64   Data           0  da14531_symbols.txt ABSOLUTE
    atts_handlers                            0x07f1fdd4   Data           0  da14531_symbols.txt ABSOLUTE
    gattc_default_state                      0x07f1fe54   Data           0  da14531_symbols.txt ABSOLUTE
    gattc_default_handler                    0x07f1ff34   Data           0  da14531_symbols.txt ABSOLUTE
    gattm_default_state                      0x07f1ff80   Data           0  da14531_symbols.txt ABSOLUTE
    gattm_default_handler                    0x07f1ffd8   Data           0  da14531_symbols.txt ABSOLUTE
    l2cc_default_state                       0x07f1fff0   Data           0  da14531_symbols.txt ABSOLUTE
    l2cc_default_handler                     0x07f20008   Data           0  da14531_symbols.txt ABSOLUTE
    const_Rb                                 0x07f20029   Data           0  da14531_symbols.txt ABSOLUTE
    const_Zero                               0x07f20039   Data           0  da14531_symbols.txt ABSOLUTE
    gapc_default_state                       0x07f2005c   Data           0  da14531_symbols.txt ABSOLUTE
    gapc_default_handler                     0x07f201ac   Data           0  da14531_symbols.txt ABSOLUTE
    gapm_default_state                       0x07f20248   Data           0  da14531_symbols.txt ABSOLUTE
    gapm_default_handler                     0x07f20330   Data           0  da14531_symbols.txt ABSOLUTE
    l2cc_connor_pkt_format                   0x07f20338   Data           0  da14531_symbols.txt ABSOLUTE
    l2cc_signaling_pkt_format                0x07f20340   Data           0  da14531_symbols.txt ABSOLUTE
    l2cc_security_pkt_format                 0x07f2039c   Data           0  da14531_symbols.txt ABSOLUTE
    l2cc_attribute_pkt_format                0x07f203d8   Data           0  da14531_symbols.txt ABSOLUTE
    smpc_construct_pdu                       0x07f20454   Data           0  da14531_symbols.txt ABSOLUTE
    arch_printf_flush                        0x07f20be5   Thumb Code     0  da14531_symbols.txt ABSOLUTE
    arch_vprintf                             0x07f20c9d   Thumb Code     0  da14531_symbols.txt ABSOLUTE
    arch_printf                              0x07f20cfd   Thumb Code     0  da14531_symbols.txt ABSOLUTE
    arch_puts                                0x07f20d11   Thumb Code     0  da14531_symbols.txt ABSOLUTE
    arch_printf_process                      0x07f20d21   Thumb Code     0  da14531_symbols.txt ABSOLUTE
    nvds_get_func                            0x07f20dcd   Thumb Code     0  da14531_symbols.txt ABSOLUTE
    nvds_init_func                           0x07f20ea9   Thumb Code     0  da14531_symbols.txt ABSOLUTE
    nvds_del_func                            0x07f20ead   Thumb Code     0  da14531_symbols.txt ABSOLUTE
    nvds_put_func                            0x07f20eb1   Thumb Code     0  da14531_symbols.txt ABSOLUTE
    csprng_seed                              0x07f20f49   Thumb Code     0  da14531_symbols.txt ABSOLUTE
    csprng_get_next_uint32                   0x07f20f79   Thumb Code     0  da14531_symbols.txt ABSOLUTE
    trng_acquire                             0x07f21021   Thumb Code     0  da14531_symbols.txt ABSOLUTE
    prf_add_profile_func                     0x07f210d1   Thumb Code     0  da14531_symbols.txt ABSOLUTE
    prf_cleanup_func                         0x07f211b1   Thumb Code     0  da14531_symbols.txt ABSOLUTE
    prf_env_get                              0x07f211f1   Thumb Code     0  da14531_symbols.txt ABSOLUTE
    prf_src_task_get                         0x07f2121d   Thumb Code     0  da14531_symbols.txt ABSOLUTE
    prf_dst_task_get                         0x07f2122d   Thumb Code     0  da14531_symbols.txt ABSOLUTE
    prf_get_id_from_task_func                0x07f21241   Thumb Code     0  da14531_symbols.txt ABSOLUTE
    prf_get_task_from_id_func                0x07f21279   Thumb Code     0  da14531_symbols.txt ABSOLUTE
    prf_reset_func                           0x07f212b1   Thumb Code     0  da14531_symbols.txt ABSOLUTE
    prf_itf_get                              0x07f212fd   Thumb Code     0  da14531_symbols.txt ABSOLUTE
    prf_pack_char_pres_fmt                   0x07f21321   Thumb Code     0  da14531_symbols.txt ABSOLUTE
    prf_pack_date_time                       0x07f2133f   Thumb Code     0  da14531_symbols.txt ABSOLUTE
    prf_unpack_date_time                     0x07f2135f   Thumb Code     0  da14531_symbols.txt ABSOLUTE
    diss_compute_cfg_flag                    0x07f21381   Thumb Code     0  da14531_symbols.txt ABSOLUTE
    diss_handle_to_value                     0x07f21453   Thumb Code     0  da14531_symbols.txt ABSOLUTE
    diss_value_to_handle                     0x07f21483   Thumb Code     0  da14531_symbols.txt ABSOLUTE
    diss_check_val_len                       0x07f214b7   Thumb Code     0  da14531_symbols.txt ABSOLUTE
    diss_prf_itf_get                         0x07f214ed   Thumb Code     0  da14531_symbols.txt ABSOLUTE
    bass_get_att_handle                      0x07f2184b   Thumb Code     0  da14531_symbols.txt ABSOLUTE
    bass_get_att_idx                         0x07f21901   Thumb Code     0  da14531_symbols.txt ABSOLUTE
    bass_exe_operation                       0x07f2196b   Thumb Code     0  da14531_symbols.txt ABSOLUTE
    bass_prf_itf_get                         0x07f21a6d   Thumb Code     0  da14531_symbols.txt ABSOLUTE
    suotar_prf_itf_get                       0x07f22059   Thumb Code     0  da14531_symbols.txt ABSOLUTE
    check_client_char_cfg                    0x07f22355   Thumb Code     0  da14531_symbols.txt ABSOLUTE
    get_value_handle                         0x07f2237f   Thumb Code     0  da14531_symbols.txt ABSOLUTE
    get_cfg_handle                           0x07f223cb   Thumb Code     0  da14531_symbols.txt ABSOLUTE
    custs1_get_att_handle                    0x07f2242d   Thumb Code     0  da14531_symbols.txt ABSOLUTE
    custs1_get_att_idx                       0x07f22449   Thumb Code     0  da14531_symbols.txt ABSOLUTE
    custs1_prf_itf_get                       0x07f22621   Thumb Code     0  da14531_symbols.txt ABSOLUTE
    custs1_init_ccc_values                   0x07f226d3   Thumb Code     0  da14531_symbols.txt ABSOLUTE
    custs1_set_ccc_value                     0x07f2270b   Thumb Code     0  da14531_symbols.txt ABSOLUTE
    gattc_cmp_evt_handler                    0x07f22823   Thumb Code     0  da14531_symbols.txt ABSOLUTE
    custs1_val_set_req_handler               0x07f22837   Thumb Code     0  da14531_symbols.txt ABSOLUTE
    custs1_val_ntf_req_handler               0x07f22857   Thumb Code     0  da14531_symbols.txt ABSOLUTE
    custs1_val_ind_req_handler               0x07f228b3   Thumb Code     0  da14531_symbols.txt ABSOLUTE
    custs1_att_info_rsp_handler              0x07f2290f   Thumb Code     0  da14531_symbols.txt ABSOLUTE
    gattc_read_req_ind_handler               0x07f2294b   Thumb Code     0  da14531_symbols.txt ABSOLUTE
    gattc_att_info_req_ind_handler           0x07f22b57   Thumb Code     0  da14531_symbols.txt ABSOLUTE
    custs1_value_req_rsp_handler             0x07f22b99   Thumb Code     0  da14531_symbols.txt ABSOLUTE
    attm_svc_create_db_128                   0x07f22c19   Thumb Code     0  da14531_symbols.txt ABSOLUTE
    gapm_adv_report_ind_handler_ROM          0x07f23085   Thumb Code     0  da14531_symbols.txt ABSOLUTE
    gapc_security_ind_handler_ROM            0x07f2309f   Thumb Code     0  da14531_symbols.txt ABSOLUTE
    gapc_set_dev_info_req_ind_handler_ROM    0x07f23185   Thumb Code     0  da14531_symbols.txt ABSOLUTE
    gapm_profile_added_ind_handler_ROM       0x07f231c7   Thumb Code     0  da14531_symbols.txt ABSOLUTE
    gapc_param_update_req_ind_handler_ROM    0x07f231f9   Thumb Code     0  da14531_symbols.txt ABSOLUTE
    gapc_le_pkt_size_ind_handler_ROM         0x07f23239   Thumb Code     0  da14531_symbols.txt ABSOLUTE
    gattc_svc_changed_cfg_ind_handler_ROM    0x07f23253   Thumb Code     0  da14531_symbols.txt ABSOLUTE
    gapc_peer_features_ind_handler_ROM       0x07f2326f   Thumb Code     0  da14531_symbols.txt ABSOLUTE
    app_entry_point_handler                  0x07f232a9   Thumb Code     0  da14531_symbols.txt ABSOLUTE
    app_std_process_event                    0x07f232f1   Thumb Code     0  da14531_symbols.txt ABSOLUTE
    app_get_address_type_ROM                 0x07f23335   Thumb Code     0  da14531_symbols.txt ABSOLUTE
    app_fill_random_byte_array_ROM           0x07f23361   Thumb Code     0  da14531_symbols.txt ABSOLUTE
    __aeabi_ldivmod                          0x07f233f3   Thumb Code     0  da14531_symbols.txt ABSOLUTE
    __aeabi_llsr                             0x07f2343f   Thumb Code     0  da14531_symbols.txt ABSOLUTE
    _ll_ushift_r                             0x07f2343f   Thumb Code     0  da14531_symbols.txt ABSOLUTE
    __aeabi_uldivmod                         0x07f23461   Thumb Code     0  da14531_symbols.txt ABSOLUTE
    app_db_init_start                        0x07f234c1   Thumb Code     0  da14531_symbols.txt ABSOLUTE
    app_db_init                              0x07f234dd   Thumb Code     0  da14531_symbols.txt ABSOLUTE
    app_easy_gap_confirm                     0x07f234e9   Thumb Code     0  da14531_symbols.txt ABSOLUTE
    append_device_name                       0x07f23515   Thumb Code     0  da14531_symbols.txt ABSOLUTE
    app_easy_gap_update_adv_data             0x07f23539   Thumb Code     0  da14531_symbols.txt ABSOLUTE
    app_easy_gap_disconnect                  0x07f23581   Thumb Code     0  da14531_symbols.txt ABSOLUTE
    app_easy_gap_advertise_stop              0x07f235bd   Thumb Code     0  da14531_symbols.txt ABSOLUTE
    active_conidx_to_conhdl                  0x07f235d9   Thumb Code     0  da14531_symbols.txt ABSOLUTE
    active_conhdl_to_conidx                  0x07f23605   Thumb Code     0  da14531_symbols.txt ABSOLUTE
    app_timer_set                            0x07f23641   Thumb Code     0  da14531_symbols.txt ABSOLUTE
    app_easy_gap_set_data_packet_length      0x07f2365d   Thumb Code     0  da14531_symbols.txt ABSOLUTE
    get_user_prf_srv_perm                    0x07f23699   Thumb Code     0  da14531_symbols.txt ABSOLUTE
    app_set_prf_srv_perm                     0x07f236c1   Thumb Code     0  da14531_symbols.txt ABSOLUTE
    prf_init_srv_perm                        0x07f236f1   Thumb Code     0  da14531_symbols.txt ABSOLUTE
    app_gattc_svc_changed_cmd_send           0x07f23715   Thumb Code     0  da14531_symbols.txt ABSOLUTE
    blank_otp_bdaddr                         0x07f239e4   Data           0  da14531_symbols.txt ABSOLUTE
    app_default_handler                      0x07f23f58   Data           0  da14531_symbols.txt ABSOLUTE
    gap_cfg_user_var_struct                  0x07f23f60   Data           0  da14531_symbols.txt ABSOLUTE
    __Vectors                                0x07fc0000   Data           4  startup_da14531.o(RESET)
    __Vectors_End                            0x07fc00a0   Data           0  startup_da14531.o(RESET)
    booter_val                               0x07fc00a0   Data           8  otp_cs.o(otp_cs_booter)
    Image$$ER_IROM3$$Base                    0x07fc0110   Number         0  anon$$obj.o ABSOLUTE
    __main                                   0x07fc0111   Thumb Code     0  entry.o(.ARM.Collect$$$$00000000)
    _main_stk                                0x07fc0111   Thumb Code     0  entry2.o(.ARM.Collect$$$$00000001)
    _main_scatterload                        0x07fc0115   Thumb Code     0  entry5.o(.ARM.Collect$$$$00000004)
    __main_after_scatterload                 0x07fc0119   Thumb Code     0  entry5.o(.ARM.Collect$$$$00000004)
    _main_clock                              0x07fc0119   Thumb Code     0  entry7b.o(.ARM.Collect$$$$00000008)
    _main_cpp_init                           0x07fc0119   Thumb Code     0  entry8b.o(.ARM.Collect$$$$0000000A)
    _main_init                               0x07fc0119   Thumb Code     0  entry9a.o(.ARM.Collect$$$$0000000B)
    __rt_final_cpp                           0x07fc0121   Thumb Code     0  entry10a.o(.ARM.Collect$$$$0000000D)
    __rt_final_exit                          0x07fc0121   Thumb Code     0  entry11a.o(.ARM.Collect$$$$0000000F)
    SystemInit                               0x07fc0125   Thumb Code   100  system_da14531.o(.text)
    Reset_Handler                            0x07fc01b9   Thumb Code     8  startup_da14531.o(.text)
    SVC_Handler                              0x07fc01f1   Thumb Code     2  startup_da14531.o(.text)
    PendSV_Handler                           0x07fc01f3   Thumb Code     2  startup_da14531.o(.text)
    BLE_RF_DIAG_Handler                      0x07fc01f7   Thumb Code     0  startup_da14531.o(.text)
    DMA_Handler                              0x07fc01f7   Thumb Code     0  startup_da14531.o(.text)
    KEYBRD_Handler                           0x07fc01f7   Thumb Code     0  startup_da14531.o(.text)
    RESERVED21_Handler                       0x07fc01f7   Thumb Code     0  startup_da14531.o(.text)
    RESERVED22_Handler                       0x07fc01f7   Thumb Code     0  startup_da14531.o(.text)
    RESERVED23_Handler                       0x07fc01f7   Thumb Code     0  startup_da14531.o(.text)
    RFCAL_Handler                            0x07fc01f7   Thumb Code     0  startup_da14531.o(.text)
    RTC_Handler                              0x07fc01f7   Thumb Code     0  startup_da14531.o(.text)
    SPI_Handler                              0x07fc01f7   Thumb Code     0  startup_da14531.o(.text)
    SWTIM1_Handler                           0x07fc01f7   Thumb Code     0  startup_da14531.o(.text)
    SWTIM_Handler                            0x07fc01f7   Thumb Code     0  startup_da14531.o(.text)
    XTAL32M_RDY_Handler                      0x07fc01f7   Thumb Code     0  startup_da14531.o(.text)
    HardFault_HandlerC                       0x07fc0209   Thumb Code   134  hardfault_handler.o(.text)
    NMI_HandlerC                             0x07fc02a1   Thumb Code   172  nmi_handler.o(.text)
    main                                     0x07fc038d   Thumb Code   184  arch_main.o(.text)
    crypto_init_func                         0x07fc0699   Thumb Code     2  jump_table.o(.text)
    ba431_get_rand_func                      0x07fc069b   Thumb Code    24  jump_table.o(.text)
    dia_rand_func                            0x07fc06b3   Thumb Code     8  jump_table.o(.text)
    dia_srand_func                           0x07fc06bb   Thumb Code     8  jump_table.o(.text)
    dbg_init_func_empty                      0x07fc06c3   Thumb Code     2  jump_table.o(.text)
    dbg_platform_reset_complete_func_empty   0x07fc06c5   Thumb Code     2  jump_table.o(.text)
    smpm_ecdh_key_create_func_empty          0x07fc06c7   Thumb Code     2  jump_table.o(.text)
    platform_reset_func                      0x07fc06c9   Thumb Code    28  jump_table.o(.text)
    arch_disable_sleep                       0x07fc06e9   Thumb Code    26  arch_sleep.o(.text)
    arch_set_extended_sleep                  0x07fc0703   Thumb Code    46  arch_sleep.o(.text)
    arch_set_sleep_mode                      0x07fc0731   Thumb Code    24  arch_sleep.o(.text)
    arch_get_sleep_mode                      0x07fc0749   Thumb Code    26  arch_sleep.o(.text)
    arch_restore_sleep_mode                  0x07fc0763   Thumb Code    72  arch_sleep.o(.text)
    arch_force_active_mode                   0x07fc07ab   Thumb Code    30  arch_sleep.o(.text)
    arch_ble_ext_wakeup_get                  0x07fc07c9   Thumb Code     6  arch_sleep.o(.text)
    arch_ble_force_wakeup                    0x07fc07cf   Thumb Code    46  arch_sleep.o(.text)
    read_rcx_freq                            0x07fc080d   Thumb Code    80  arch_system.o(.text)
    calibrate_rcx20                          0x07fc085d   Thumb Code    28  arch_system.o(.text)
    init_pwr_and_clk_ble                     0x07fc0879   Thumb Code   160  arch_system.o(.text)
    lld_sleep_lpcycles_2_us_rcx_func         0x07fc0919   Thumb Code    32  arch_system.o(.text)
    lld_sleep_lpcycles_2_us_sel_func         0x07fc0939   Thumb Code     2  arch_system.o(.text)
    lld_sleep_us_2_lpcycles_rcx_func         0x07fc093b   Thumb Code    20  arch_system.o(.text)
    lld_sleep_us_2_lpcycles_sel_func         0x07fc094f   Thumb Code     2  arch_system.o(.text)
    set_sleep_delay                          0x07fc0951   Thumb Code    66  arch_system.o(.text)
    conditionally_run_radio_cals             0x07fc0993   Thumb Code   134  arch_system.o(.text)
    app_use_lower_clocks_check               0x07fc0a19   Thumb Code     4  arch_system.o(.text)
    lld_sleep_init_func                      0x07fc0a1d   Thumb Code    26  arch_system.o(.text)
    set_xtal32m_trim_value                   0x07fc0a37   Thumb Code    82  arch_system.o(.text)
    system_init                              0x07fc0a89   Thumb Code   598  arch_system.o(.text)
    arch_rom_init                            0x07fc0cf5   Thumb Code   212  arch_rom.o(.text)
    otp_cs_store                             0x07fc0e51   Thumb Code   524  otp_cs.o(.text)
    otp_cs_load_pd_rad                       0x07fc105d   Thumb Code    94  otp_cs.o(.text)
    otp_cs_load_pd_adpll                     0x07fc10bb   Thumb Code    70  otp_cs.o(.text)
    otp_cs_get_adc_trim_val                  0x07fc1101   Thumb Code     6  otp_cs.o(.text)
    otp_cs_get_adc_25_cal                    0x07fc1107   Thumb Code     6  otp_cs.o(.text)
    otp_cs_get_xtal32m_trim_value            0x07fc110d   Thumb Code     6  otp_cs.o(.text)
    otp_cs_get_xtal_wait_trim                0x07fc1113   Thumb Code     6  otp_cs.o(.text)
    otp_hdr_get_bd_address                   0x07fc1165   Thumb Code    12  otp_hdr.o(.text)
    syscntl_use_lowest_amba_clocks           0x07fc1175   Thumb Code    22  syscntl.o(.text)
    syscntl_use_highest_amba_clocks          0x07fc118b   Thumb Code    22  syscntl.o(.text)
    syscntl_cfg_xtal32m_amp_reg              0x07fc11a1   Thumb Code    18  syscntl.o(.text)
    syscntl_dcdc_get_level                   0x07fc11ed   Thumb Code    20  syscntl.o(.text)
    syscntl_dcdc_set_level                   0x07fc1201   Thumb Code    36  syscntl.o(.text)
    syscntl_dcdc_turn_on_in_boost            0x07fc1225   Thumb Code    86  syscntl.o(.text)
    GPIO_init                                0x07fc128d   Thumb Code   166  gpio.o(.text)
    GPIO_SetPinFunction                      0x07fc1333   Thumb Code    60  gpio.o(.text)
    GPIO_SetInactive                         0x07fc136f   Thumb Code    54  gpio.o(.text)
    GPIO_SetActive                           0x07fc13a5   Thumb Code    54  gpio.o(.text)
    GPIO_ConfigurePin                        0x07fc13db   Thumb Code    78  gpio.o(.text)
    GPIO_ResetIRQ                            0x07fc1429   Thumb Code    32  gpio.o(.text)
    GPIOn_Handler                            0x07fc1449   Thumb Code    54  gpio.o(.text)
    GPIO0_Handler                            0x07fc147f   Thumb Code     4  gpio.o(.text)
    GPIO1_Handler                            0x07fc1483   Thumb Code     4  gpio.o(.text)
    GPIO2_Handler                            0x07fc1487   Thumb Code     4  gpio.o(.text)
    GPIO3_Handler                            0x07fc148b   Thumb Code     4  gpio.o(.text)
    GPIO4_Handler                            0x07fc148f   Thumb Code     4  gpio.o(.text)
    WKUP_QUADEC_Handler                      0x07fc1505   Thumb Code   142  wkupct_quadec.o(.text)
    wkupct_enable_irq                        0x07fc1593   Thumb Code    74  wkupct_quadec.o(.text)
    wkupct_register_callback                 0x07fc15dd   Thumb Code     6  wkupct_quadec.o(.text)
    adc_temp_sensor_disable                  0x07fc160d   Thumb Code    14  adc_531.o(.text)
    adc_temp_sensor_enable                   0x07fc161b   Thumb Code    22  adc_531.o(.text)
    adc_set_diff_input                       0x07fc1631   Thumb Code    14  adc_531.o(.text)
    adc_set_se_input                         0x07fc163f   Thumb Code    16  adc_531.o(.text)
    adc_enable                               0x07fc174b   Thumb Code    12  adc_531.o(.text)
    adc_init                                 0x07fc1757   Thumb Code    54  adc_531.o(.text)
    adc_start                                0x07fc178d   Thumb Code    12  adc_531.o(.text)
    ADC_Handler                              0x07fc1799   Thumb Code    18  adc_531.o(.text)
    adc_get_temp                             0x07fc17ab   Thumb Code    64  adc_531.o(.text)
    init_rand_seed_from_trng                 0x07fc1821   Thumb Code   114  trng.o(.text)
    SysTick_Handler                          0x07fc18a5   Thumb Code    12  systick.o(.text)
    UART2_Handler                            0x07fc1939   Thumb Code    10  uart.o(.text)
    uart_enable                              0x07fc1943   Thumb Code    48  uart.o(.text)
    uart_baudrate_setf                       0x07fc1973   Thumb Code    50  uart.o(.text)
    uart_register_tx_cb                      0x07fc19a5   Thumb Code    22  uart.o(.text)
    uart_initialize                          0x07fc19bb   Thumb Code   166  uart.o(.text)
    uart_write_byte                          0x07fc1a61   Thumb Code    14  uart.o(.text)
    uart_write_buffer                        0x07fc1a6f   Thumb Code    30  uart.o(.text)
    uart_send                                0x07fc1a8d   Thumb Code   112  uart.o(.text)
    uart_wait_tx_finish                      0x07fc1afd   Thumb Code    12  uart.o(.text)
    hw_otpc_enter_mode                       0x07fc1c7f   Thumb Code    76  hw_otpc_531.o(.text)
    hw_otpc_is_dcdc_reserved                 0x07fc1ccb   Thumb Code     6  hw_otpc_531.o(.text)
    hw_otpc_clear_dcdc_reserved              0x07fc1cd1   Thumb Code     8  hw_otpc_531.o(.text)
    hw_otpc_set_speed                        0x07fc1cd9   Thumb Code    28  hw_otpc_531.o(.text)
    hw_otpc_init                             0x07fc1cf5   Thumb Code    96  hw_otpc_531.o(.text)
    hw_otpc_disable                          0x07fc1d55   Thumb Code   110  hw_otpc_531.o(.text)
    i2c_setup_slave                          0x07fc1de1   Thumb Code    44  i2c.o(.text)
    i2c_setup_master                         0x07fc1e0d   Thumb Code    68  i2c.o(.text)
    i2c_init                                 0x07fc1e51   Thumb Code   204  i2c.o(.text)
    i2c_master_transmit_buffer_sync          0x07fc1f1d   Thumb Code   114  i2c.o(.text)
    i2c_register_int                         0x07fc1f8f   Thumb Code    12  i2c.o(.text)
    i2c_unregister_int                       0x07fc1f9b   Thumb Code    18  i2c.o(.text)
    i2c_master_receive_buffer_async          0x07fc204b   Thumb Code    36  i2c.o(.text)
    I2C_Handler                              0x07fc206f   Thumb Code    28  i2c.o(.text)
    lld_sleep_compensate_func                0x07fc20b5   Thumb Code    82  rwble.o(.text)
    power_up                                 0x07fc2107   Thumb Code    70  rwble.o(.text)
    BLE_WAKEUP_LP_Handler                    0x07fc214d   Thumb Code    58  rwble.o(.text)
    rwble_isr                                0x07fc2187   Thumb Code   224  rwble.o(.text)
    patched_ble_regs_push                    0x07fc2291   Thumb Code    16  rwip.o(.text)
    patched_ble_regs_pop                     0x07fc22a1   Thumb Code    16  rwip.o(.text)
    rwip_sleep                               0x07fc22b1   Thumb Code   378  rwip.o(.text)
    rf_reg_rd                                0x07fc2471   Thumb Code     4  ble_arp.o(.text)
    rf_reg_wr                                0x07fc2475   Thumb Code     2  ble_arp.o(.text)
    rf_init_func                             0x07fc2511   Thumb Code   158  ble_arp.o(.text)
    rf_reinit_func                           0x07fc25af   Thumb Code    88  ble_arp.o(.text)
    ble_init_arp_func                        0x07fc2607   Thumb Code    36  ble_arp.o(.text)
    rf_recalibration                         0x07fc262b   Thumb Code    32  ble_arp.o(.text)
    set_recommended_settings                 0x07fc2741   Thumb Code   410  rf_531.o(.text)
    dis_adpll                                0x07fc28db   Thumb Code    46  rf_531.o(.text)
    kdtc_cal_end                             0x07fc2909   Thumb Code    74  rf_531.o(.text)
    dis_kdtc_cal                             0x07fc2953   Thumb Code    12  rf_531.o(.text)
    en_adpll_tx                              0x07fc295f   Thumb Code    58  rf_531.o(.text)
    dis_hclk                                 0x07fc2999   Thumb Code    22  rf_531.o(.text)
    en_kdtc_cal_mod0                         0x07fc29af   Thumb Code    22  rf_531.o(.text)
    kdtc_cal_init                            0x07fc29c5   Thumb Code    98  rf_531.o(.text)
    kdtc_calibration                         0x07fc2a27   Thumb Code   402  rf_531.o(.text)
    rf_calibration                           0x07fc2bb9   Thumb Code     2  rf_531.o(.text)
    rf_power_up                              0x07fc2bbb   Thumb Code     2  rf_531.o(.text)
    rf_adplldig_activate                     0x07fc2bbd   Thumb Code    38  rf_531.o(.text)
    rf_adplldig_deactivate                   0x07fc2be3   Thumb Code    12  rf_531.o(.text)
    rf_pa_pwr_set                            0x07fc2bef   Thumb Code     6  rf_531.o(.text)
    rf_pa_pwr_get                            0x07fc2bf5   Thumb Code     6  rf_531.o(.text)
    rf_nfm_is_enabled                        0x07fc2bfb   Thumb Code     6  rf_531.o(.text)
    prf_init_func                            0x07fc2d3d   Thumb Code    96  prf.o(.text)
    prf_create_func                          0x07fc2d9d   Thumb Code    54  prf.o(.text)
    default_app_on_init                      0x07fc2ddd   Thumb Code    18  app_default_handlers.o(.text)
    default_app_on_connection                0x07fc2def   Thumb Code    28  app_default_handlers.o(.text)
    default_app_on_disconnect                0x07fc2e0b   Thumb Code     8  app_default_handlers.o(.text)
    default_app_on_set_dev_config_complete   0x07fc2e13   Thumb Code    16  app_default_handlers.o(.text)
    default_app_on_db_init_complete          0x07fc2e23   Thumb Code     8  app_default_handlers.o(.text)
    default_app_on_get_dev_name              0x07fc2e2b   Thumb Code    18  app_default_handlers.o(.text)
    default_app_on_get_dev_appearance        0x07fc2e3d   Thumb Code     8  app_default_handlers.o(.text)
    default_app_on_get_dev_slv_pref_params   0x07fc2e45   Thumb Code    18  app_default_handlers.o(.text)
    default_app_on_set_dev_info              0x07fc2e57   Thumb Code    46  app_default_handlers.o(.text)
    default_app_update_params_request        0x07fc2e85   Thumb Code    12  app_default_handlers.o(.text)
    default_app_generate_static_random_addr  0x07fc2e91   Thumb Code    48  app_default_handlers.o(.text)
    default_app_on_pairing_request           0x07fc2ec1   Thumb Code     8  app_default_handlers.o(.text)
    default_app_on_tk_exch                   0x07fc2ec9   Thumb Code    48  app_default_handlers.o(.text)
    default_app_on_ltk_exch                  0x07fc2ef9   Thumb Code    24  app_default_handlers.o(.text)
    app_db_init_next                         0x07fc2f4d   Thumb Code   164  app.o(.text)
    app_prf_enable                           0x07fc2ff1   Thumb Code   136  app.o(.text)
    app_init                                 0x07fc3123   Thumb Code    72  app.o(.text)
    app_easy_gap_undirected_advertise_start  0x07fc316b   Thumb Code    26  app.o(.text)
    app_easy_gap_dev_configure               0x07fc3185   Thumb Code    18  app.o(.text)
    app_gap_process_handler                  0x07fc3369   Thumb Code    24  app_task.o(.text)
    app_sec_gen_ltk                          0x07fc3395   Thumb Code    54  app_security.o(.text)
    app_sec_process_handler                  0x07fc34c9   Thumb Code    24  app_security_task.o(.text)
    app_dis_init                             0x07fc34ed   Thumb Code     2  app_diss.o(.text)
    app_diss_create_db                       0x07fc34ef   Thumb Code    54  app_diss.o(.text)
    app_diss_process_handler                 0x07fc359d   Thumb Code    24  app_diss_task.o(.text)
    app_check_BLE_active                     0x07fc3609   Thumb Code    36  app_msg_utils.o(.text)
    app_msg_utils_api_process_handler        0x07fc3631   Thumb Code    50  app_easy_msg_utils.o(.text)
    app_easy_security_send_pairing_rsp       0x07fc36b3   Thumb Code    22  app_easy_security.o(.text)
    app_easy_security_tk_exch                0x07fc36f1   Thumb Code    58  app_easy_security.o(.text)
    app_easy_security_ltk_exch               0x07fc3757   Thumb Code    24  app_easy_security.o(.text)
    app_easy_security_set_ltk_exch_from_sec_env 0x07fc376f   Thumb Code    52  app_easy_security.o(.text)
    app_timer_api_process_handler            0x07fc37f1   Thumb Code   172  app_easy_timer.o(.text)
    custs_get_func_callbacks                 0x07fc3909   Thumb Code    34  app_customs.o(.text)
    app_custs1_create_db                     0x07fc392b   Thumb Code    54  app_customs.o(.text)
    app_custs1_process_handler               0x07fc3969   Thumb Code    24  app_customs_task.o(.text)
    app_fill_random_byte_array               0x07fc3981   Thumb Code    12  app_utils.o(.text)
    GPIO_reservations                        0x07fc398d   Thumb Code   220  user_periph_setup.o(.text)
    set_pad_functions                        0x07fc3a69   Thumb Code    96  user_periph_setup.o(.text)
    periph_init                              0x07fc3ac9   Thumb Code    44  user_periph_setup.o(.text)
    accel_lis2dh_start_acquisition           0x07fc3b0d   Thumb Code    22  accel_lis2dh_impl.o(.text)
    accel_lis2dh_handle_watermark_int1       0x07fc3b23   Thumb Code    16  accel_lis2dh_impl.o(.text)
    accel_lis2dh_prepare_int1_pin            0x07fc3b33   Thumb Code    26  accel_lis2dh_impl.o(.text)
    accel_lis2dh_init                        0x07fc3b4d   Thumb Code    24  accel_lis2dh_impl.o(.text)
    accel_lis2dh_on                          0x07fc3b65   Thumb Code   116  accel_lis2dh_impl.o(.text)
    i2c_accel_read_reg                       0x07fc3bdd   Thumb Code    94  i2c_impl.o(.text)
    i2c_accel_write_reg                      0x07fc3c3b   Thumb Code    70  i2c_impl.o(.text)
    i2c_accel_read_fifo                      0x07fc3c81   Thumb Code    92  i2c_impl.o(.text)
    i2c_accel_set_cb                         0x07fc3cdd   Thumb Code     6  i2c_impl.o(.text)
    LIS2DH_ReadRegN                          0x07fc3ced   Thumb Code     8  lis2dh_driver.o(.text)
    LIS2DH_ReadReg                           0x07fc3cf5   Thumb Code     8  lis2dh_driver.o(.text)
    LIS2DH_WriteReg                          0x07fc3cfd   Thumb Code     8  lis2dh_driver.o(.text)
    LIS2DH_GetWHO_AM_I                       0x07fc3d05   Thumb Code    18  lis2dh_driver.o(.text)
    LIS2DH_SetODR                            0x07fc3d17   Thumb Code    48  lis2dh_driver.o(.text)
    LIS2DH_SetMode                           0x07fc3d47   Thumb Code   152  lis2dh_driver.o(.text)
    LIS2DH_SetAxis                           0x07fc3ddf   Thumb Code    48  lis2dh_driver.o(.text)
    LIS2DH_SetFullScale                      0x07fc3e0f   Thumb Code    48  lis2dh_driver.o(.text)
    LIS2DH_SetInt1Pin                        0x07fc3e3f   Thumb Code    36  lis2dh_driver.o(.text)
    LIS2DH_Int1LatchEnable                   0x07fc3e63   Thumb Code    48  lis2dh_driver.o(.text)
    LIS2DH_ResetInt1Latch                    0x07fc3e93   Thumb Code    18  lis2dh_driver.o(.text)
    LIS2DH_FIFOModeEnable                    0x07fc3ea5   Thumb Code   330  lis2dh_driver.o(.text)
    LIS2DH_SetTriggerInt                     0x07fc3fef   Thumb Code    48  lis2dh_driver.o(.text)
    LIS2DH_SetWaterMark                      0x07fc401f   Thumb Code    52  lis2dh_driver.o(.text)
    LIS2DH_GetAccAxesRawBurst                0x07fc4053   Thumb Code    24  lis2dh_driver.o(.text)
    LIS2DH_GetFifoSourceFSS                  0x07fc406b   Thumb Code    32  lis2dh_driver.o(.text)
    user_on_connection                       0x07fc40af   Thumb Code     8  user_lis2dh_app.o(.text)
    user_on_disconnect                       0x07fc40b7   Thumb Code     8  user_lis2dh_app.o(.text)
    user_app_on_set_dev_config_complete      0x07fc40bf   Thumb Code    38  user_lis2dh_app.o(.text)
    user_main_hook                           0x07fc4147   Thumb Code    86  user_lis2dh_app.o(.text)
    JT_lld_test_mode_rx_func                 0x07fc41ed   Thumb Code   142  patch.o(.text)
    JT_l2cc_pdu_unpack_func                  0x07fc427b   Thumb Code   786  patch.o(.text)
    JT_l2cc_pdu_recv_ind_handler_func        0x07fc458d   Thumb Code    72  patch.o(.text)
    PATCHED_llm_con_req_ind                  0x07fc45d5   Thumb Code   816  patch.o(.text)
    PATCHED_smpc_recv_public_key_exchange_pdu 0x07fc4a15   Thumb Code   106  patch.o(.text)
    PATCHED_llc_data_ind_handler             0x07fc4a7f   Thumb Code   176  patch.o(.text)
    PATCHED_llcp_length_req_handler          0x07fc4b2f   Thumb Code   118  patch.o(.text)
    PATCHED_llcp_length_rsp_handler          0x07fc4ba5   Thumb Code   134  patch.o(.text)
    JT_llc_le_length_effective_func          0x07fc4c2b   Thumb Code   188  patch.o(.text)
    lld_drop_packet_fix                      0x07fc4ce7   Thumb Code    64  patch.o(.text)
    PATCHED_lld_data_ind_handler             0x07fc4d27   Thumb Code    58  patch.o(.text)
    patch_func                               0x07fc4d61   Thumb Code    44  patch.o(.text)
    patch_global_vars_init                   0x07fc4d8d   Thumb Code     2  patch.o(.text)
    __scatterload                            0x07fc4dbd   Thumb Code    28  init.o(.text)
    __scatterload_rt2                        0x07fc4dbd   Thumb Code     0  init.o(.text)
    __ARM_common_ll_muluu                    0x07fc4de1   Thumb Code    48  arch_system.o(i.__ARM_common_ll_muluu)
    __scatterload_copy                       0x07fc4e11   Thumb Code    14  handlers.o(i.__scatterload_copy)
    __scatterload_null                       0x07fc4e1f   Thumb Code     2  handlers.o(i.__scatterload_null)
    __scatterload_zeroinit                   0x07fc4e21   Thumb Code    14  handlers.o(i.__scatterload_zeroinit)
    rom_console_cfg                          0x07fc4e30   Data          36  arch_console.o(.constdata)
    rom_nvds_cfg                             0x07fc4e64   Data           8  nvds.o(.constdata)
    rom_func_addr_table_var                  0x07fc4e6c   Data         380  jump_table.o(.constdata)
    rom_cfg_table_var                        0x07fc4fe8   Data         236  jump_table.o(.constdata)
    my_custom_msg_handlers                   0x07fc50e4   Data          40  arch_rom.o(.constdata)
    arp_init_table                           0x07fc516c   Data         112  ble_arp.o(.constdata)
    rom_cust_prf_cfg                         0x07fc51dc   Data          16  custs1.o(.constdata)
    custs1_default_state                     0x07fc51ec   Data          72  custs1_task.o(.constdata)
    custs1_default_handler                   0x07fc5234   Data           8  custs1_task.o(.constdata)
    prf_if                                   0x07fc523c   Data          24  prf.o(.constdata)
    rom_prf_cfg                              0x07fc5254   Data          12  prf.o(.constdata)
    prf_funcs                                0x07fc527c   Data          24  app.o(.constdata)
    app_process_handlers                     0x07fc53ec   Data          28  app_entry_point.o(.constdata)
    rom_app_task_cfg                         0x07fc5408   Data          32  app_entry_point.o(.constdata)
    cust_prf_funcs                           0x07fc5430   Data          56  user_custs_config.o(.constdata)
    custs1_services                          0x07fc5560   Data           4  user_custs1_def.o(.constdata)
    custs1_services_size                     0x07fc5564   Data           1  user_custs1_def.o(.constdata)
    custs1_att_db                            0x07fc5568   Data         900  user_custs1_def.o(.constdata)
    Region$$Table$$Base                      0x07fc59fc   Number         0  anon$$obj.o(Region$$Table)
    Region$$Table$$Limit                     0x07fc5a1c   Number         0  anon$$obj.o(Region$$Table)
    pa_en_dcf_tx_setting                     0x07fc5a1c   Data           1  rf_531.o(.data)
    i2c_cfg                                  0x07fc5a1e   Data          16  user_periph_setup.o(.data)
    otp_hdr_timestamp                        0x07fc5b30   Data           4  arch_system.o(.bss)
    twirq_set_value                          0x07fc5b34   Data           4  arch_system.o(.bss)
    twirq_reset_value                        0x07fc5b38   Data           4  arch_system.o(.bss)
    syscntl_dcdc_state                       0x07fc5b40   Data           2  syscntl.o(.bss)
    twext_value                              0x07fc5b88   Data           4  rwip.o(.bss)
    calibration_res                          0x07fc5b90   Data          42  rf_531.o(.bss)
    __initial_sp                             0x07fc61c0   Data           0  startup_da14531.o(STACK)
    heap_mem_area_not_ret$$Base              0x07fc61c0   Number         0  jump_table.o(heap_mem_area_not_ret)
    rwip_heap_non_ret                        0x07fc61c0   Data        1036  jump_table.o(heap_mem_area_not_ret)
    Image$$RET_DATA_UNINIT$$Base             0x07fc8bc0   Number         0  anon$$obj.o ABSOLUTE
    sys_startup_flag                         0x07fc8bd8   Data           1  arch_system.o(retention_mem_area0)
    last_temp                                0x07fc8bd9   Data           1  arch_system.o(retention_mem_area0)
    rcx_cal_in_progress                      0x07fc8bda   Data           1  arch_system.o(retention_mem_area0)
    clk_freq_trim_reg_value                  0x07fc8bdc   Data           2  arch_system.o(retention_mem_area0)
    arch_wkupct_deb_time                     0x07fc8bde   Data           2  arch_system.o(retention_mem_area0)
    xtal_wait_trim                           0x07fc8be0   Data           2  arch_system.o(retention_mem_area0)
    last_temp_time                           0x07fc8be8   Data           4  arch_system.o(retention_mem_area0)
    lp_clk_sel                               0x07fc8bec   Data           4  arch_system.o(retention_mem_area0)
    rcx_freq                                 0x07fc8bf0   Data           4  arch_system.o(retention_mem_area0)
    rcx_period                               0x07fc8bf4   Data           4  arch_system.o(retention_mem_area0)
    dev_bdaddr                               0x07fc8bf8   Data           6  arch_system.o(retention_mem_area0)
    rcx_slot_duration                        0x07fc8c00   Data           8  arch_system.o(retention_mem_area0)
    heap_log                                 0x07fc8c08   Data           2  arch_rom.o(retention_mem_area0)
    GPIO_status                              0x07fc8c68   Data           8  gpio.o(retention_mem_area0)
    GPIO                                     0x07fc8c70   Data          48  gpio.o(retention_mem_area0)
    GPIOHandlerFunction                      0x07fc8ca0   Data          20  gpio.o(retention_mem_area0)
    callback_function                        0x07fc8cc4   Data           4  systick.o(retention_mem_area0)
    arch_rwble_last_event                    0x07fc8d0c   Data           1  rwble.o(retention_mem_area0)
    ble_finetim_corr                         0x07fc8d10   Data           4  rwble.o(retention_mem_area0)
    sleep_lp_cycles                          0x07fc8d14   Data           4  rwip.o(retention_mem_area0)
    retained_BLE_EM_BASE_REG                 0x07fc8d18   Data           4  rwip.o(retention_mem_area0)
    slp_period_retained                      0x07fc8d1c   Data           4  rwip.o(retention_mem_area0)
    prf_env                                  0x07fc8d28   Data          48  prf.o(retention_mem_area0)
    app_env                                  0x07fc8d70   Data          12  app.o(retention_mem_area0)
    device_info                              0x07fc8d7c   Data          36  app.o(retention_mem_area0)
    app_prf_srv_perm                         0x07fc8da0   Data          20  app.o(retention_mem_area0)
    app_state                                0x07fc8db4   Data           1  app_task.o(retention_mem_area0)
    app_sec_env                              0x07fc8db6   Data         122  app_security.o(retention_mem_area0)
    accel_config                             0x07fc8eb0   Data          12  accel_lis2dh_impl.o(retention_mem_area0)
    i2c_cb                                   0x07fc8ebc   Data           4  i2c_impl.o(retention_mem_area0)
    app_accel_env                            0x07fc8ec0   Data         202  user_lis2dh_app.o(retention_mem_area0)
    lld_force_timeout_refresh                0x07fc8f8a   Data           3  patch.o(retention_mem_area0)
    heap_db_area$$Base                       0x07fc8f90   Number         0  jump_table.o(heap_db_area)
    rwip_heap_db_ret                         0x07fc8f90   Data        1036  jump_table.o(heap_db_area)
    rwip_heap_env_ret                        0x07fc939c   Data         696  jump_table.o(heap_env_area)
    rwip_heap_msg_ret                        0x07fc9654   Data        1404  jump_table.o(heap_msg_area)
    dummy                                    0x07fc9c00   Data           0  da14531_symbols.txt ABSOLUTE
    trng_state_val                           0x07fcb89c   Data           4  trng.o(trng_state)
    ble_wakeup_executed                      0x07fcb900   Data           0  da14531_symbols.txt ABSOLUTE
    rf_in_sleep                              0x07fcb901   Data           0  da14531_symbols.txt ABSOLUTE
    custom_preinit                           0x07fcb904   Data           0  da14531_symbols.txt ABSOLUTE
    custom_postinit                          0x07fcb908   Data           0  da14531_symbols.txt ABSOLUTE
    custom_appinit                           0x07fcb90c   Data           0  da14531_symbols.txt ABSOLUTE
    custom_preloop                           0x07fcb910   Data           0  da14531_symbols.txt ABSOLUTE
    custom_preschedule                       0x07fcb914   Data           0  da14531_symbols.txt ABSOLUTE
    custom_postschedule                      0x07fcb918   Data           0  da14531_symbols.txt ABSOLUTE
    custom_postschedule_async                0x07fcb91c   Data           0  da14531_symbols.txt ABSOLUTE
    custom_presleepcheck                     0x07fcb920   Data           0  da14531_symbols.txt ABSOLUTE
    custom_appsleepset                       0x07fcb924   Data           0  da14531_symbols.txt ABSOLUTE
    custom_postsleepcheck                    0x07fcb928   Data           0  da14531_symbols.txt ABSOLUTE
    custom_presleepenter                     0x07fcb92c   Data           0  da14531_symbols.txt ABSOLUTE
    custom_postsleepexit                     0x07fcb930   Data           0  da14531_symbols.txt ABSOLUTE
    custom_prewakeup                         0x07fcb934   Data           0  da14531_symbols.txt ABSOLUTE
    custom_postwakeup                        0x07fcb938   Data           0  da14531_symbols.txt ABSOLUTE
    custom_preidlecheck                      0x07fcb93c   Data           0  da14531_symbols.txt ABSOLUTE
    custom_pti_set                           0x07fcb940   Data           0  da14531_symbols.txt ABSOLUTE
    REG_BLE_EM_TX_BUFFER_SIZE                0x07fcb944   Data           0  da14531_symbols.txt ABSOLUTE
    REG_BLE_EM_RX_BUFFER_SIZE                0x07fcb948   Data           0  da14531_symbols.txt ABSOLUTE
    _ble_base                                0x07fcb94c   Data           0  da14531_symbols.txt ABSOLUTE
    gap_cfg_user                             0x07fcb950   Data           0  da14531_symbols.txt ABSOLUTE
    rom_func_addr_table                      0x07fcb954   Data           0  da14531_symbols.txt ABSOLUTE
    rom_cfg_table                            0x07fcb958   Data           0  da14531_symbols.txt ABSOLUTE
    BLE_TX_DESC_DATA_USER                    0x07fcb95c   Data           0  da14531_symbols.txt ABSOLUTE
    BLE_TX_DESC_CNTL_USER                    0x07fcb960   Data           0  da14531_symbols.txt ABSOLUTE
    LLM_LE_ADV_DUMMY_IDX                     0x07fcb964   Data           0  da14531_symbols.txt ABSOLUTE
    LLM_LE_SCAN_CON_REQ_ADV_DIR_IDX          0x07fcb968   Data           0  da14531_symbols.txt ABSOLUTE
    LLM_LE_SCAN_RSP_IDX                      0x07fcb96c   Data           0  da14531_symbols.txt ABSOLUTE
    LLM_LE_ADV_IDX                           0x07fcb970   Data           0  da14531_symbols.txt ABSOLUTE
    length_exchange_needed                   0x07fcb974   Data           0  da14531_symbols.txt ABSOLUTE
    enh_con_cmp_cnt                          0x07fcb978   Data           0  da14531_symbols.txt ABSOLUTE
    rx_pkt_cnt                               0x07fcb980   Data           0  da14531_symbols.txt ABSOLUTE
    rx_pkt_cnt_bad                           0x07fcb984   Data           0  da14531_symbols.txt ABSOLUTE
    rx_pkt_cnt_bad_adv                       0x07fcb988   Data           0  da14531_symbols.txt ABSOLUTE
    rx_pkt_cnt_bad_scn                       0x07fcb98c   Data           0  da14531_symbols.txt ABSOLUTE
    rx_pkt_cnt_bad_oth                       0x07fcb990   Data           0  da14531_symbols.txt ABSOLUTE
    rx_pkt_cnt_bad_wo_sync_err               0x07fcb994   Data           0  da14531_symbols.txt ABSOLUTE
    rx_pkt_cnt_bad_con                       0x07fcb998   Data           0  da14531_symbols.txt ABSOLUTE
    connect_req_cnt                          0x07fcb99c   Data           0  da14531_symbols.txt ABSOLUTE
    last_status                              0x07fcb9a0   Data           0  da14531_symbols.txt ABSOLUTE
    llc_state                                0x07fcb9a4   Data           0  da14531_symbols.txt ABSOLUTE
    lld_sleep_env                            0x07fcb9a8   Data           0  da14531_symbols.txt ABSOLUTE
    lld_wlcoex_enable                        0x07fcb9ac   Data           0  da14531_symbols.txt ABSOLUTE
    ble_duplicate_filter_max                 0x07fcb9b0   Data           0  da14531_symbols.txt ABSOLUTE
    ble_duplicate_filter_found               0x07fcb9b1   Data           0  da14531_symbols.txt ABSOLUTE
    alter_conn_adv_all_cnt                   0x07fcb9b4   Data           0  da14531_symbols.txt ABSOLUTE
    alter_conn_adv_dir_cnt                   0x07fcb9b8   Data           0  da14531_symbols.txt ABSOLUTE
    alter_conn_adv_cnt                       0x07fcb9bc   Data           0  da14531_symbols.txt ABSOLUTE
    create_conn_cnt                          0x07fcb9c0   Data           0  da14531_symbols.txt ABSOLUTE
    alter_conn_cnt                           0x07fcb9c4   Data           0  da14531_symbols.txt ABSOLUTE
    alter_conn_restart_cnt                   0x07fcb9c8   Data           0  da14531_symbols.txt ABSOLUTE
    alter_conn_peer_addr                     0x07fcb9cc   Data           0  da14531_symbols.txt ABSOLUTE
    alter_conn_local_addr                    0x07fcb9d2   Data           0  da14531_symbols.txt ABSOLUTE
    set_adv_data_discard_old                 0x07fcb9d8   Data           0  da14531_symbols.txt ABSOLUTE
    llm_resolving_list_max                   0x07fcb9d9   Data           0  da14531_symbols.txt ABSOLUTE
    llm_local_le_feats                       0x07fcb9da   Data           0  da14531_symbols.txt ABSOLUTE
    llm_bt_env                               0x07fcb9e2   Data           0  da14531_symbols.txt ABSOLUTE
    init_tx_cnt_cntl_cnt1                    0x07fcb9ec   Data           0  da14531_symbols.txt ABSOLUTE
    init_tx_cnt_cntl_cnt                     0x07fcb9f0   Data           0  da14531_symbols.txt ABSOLUTE
    tx_cnt_cntl_cnt                          0x07fcb9f4   Data           0  da14531_symbols.txt ABSOLUTE
    llm_state                                0x07fcb9f8   Data           0  da14531_symbols.txt ABSOLUTE
    delay_us_cnt                             0x07fcb9fa   Data           0  da14531_symbols.txt ABSOLUTE
    gtl_state                                0x07fcb9fc   Data           0  da14531_symbols.txt ABSOLUTE
    use_h4tl                                 0x07fcb9fd   Data           0  da14531_symbols.txt ABSOLUTE
    hci_cmd_desc_root_tab                    0x07fcba00   Data           0  da14531_symbols.txt ABSOLUTE
    gattc_state                              0x07fcba30   Data           0  da14531_symbols.txt ABSOLUTE
    gattm_state                              0x07fcba33   Data           0  da14531_symbols.txt ABSOLUTE
    l2cc_state                               0x07fcba34   Data           0  da14531_symbols.txt ABSOLUTE
    l2cm_env                                 0x07fcba38   Data           0  da14531_symbols.txt ABSOLUTE
    gapc_state                               0x07fcba3e   Data           0  da14531_symbols.txt ABSOLUTE
    gapm_state                               0x07fcba41   Data           0  da14531_symbols.txt ABSOLUTE
    whitelist_fix                            0x07fcba42   Data           0  da14531_symbols.txt ABSOLUTE
    ecdh_key_creation_in_progress            0x07fcba44   Data           0  da14531_symbols.txt ABSOLUTE
    ke_free_bad                              0x07fcba48   Data           0  da14531_symbols.txt ABSOLUTE
    DISABLE_KE_TASK_ALTERNATIVE_SAVED_QUEUE  0x07fcba4c   Data           0  da14531_symbols.txt ABSOLUTE
    rwip_env                                 0x07fcba54   Data           0  da14531_symbols.txt ABSOLUTE
    _rand_state_ROM_DATA                     0x07fcba5c   Data           0  da14531_symbols.txt ABSOLUTE
    custom_msg_handlers                      0x07fcba60   Data           0  da14531_symbols.txt ABSOLUTE
    ble_reg_save                             0x07fcba64   Data           0  da14531_symbols.txt ABSOLUTE
    sleep_env                                0x07fcbab4   Data           0  da14531_symbols.txt ABSOLUTE
    uart_env                                 0x07fcbab8   Data           0  da14531_symbols.txt ABSOLUTE
    ke_mem_heaps_used                        0x07fcbadc   Data           0  da14531_symbols.txt ABSOLUTE
    co_buf_env                               0x07fcbae0   Data           0  da14531_symbols.txt ABSOLUTE
    llc_env                                  0x07fcbb78   Data           0  da14531_symbols.txt ABSOLUTE
    lld_evt_env                              0x07fcbb84   Data           0  da14531_symbols.txt ABSOLUTE
    llm_le_env                               0x07fcbbb0   Data           0  da14531_symbols.txt ABSOLUTE
    llm_local_cmds                           0x07fcbcb0   Data           0  da14531_symbols.txt ABSOLUTE
    gtl_env                                  0x07fcbd30   Data           0  da14531_symbols.txt ABSOLUTE
    hci_env                                  0x07fcbd78   Data           0  da14531_symbols.txt ABSOLUTE
    h4tl_env                                 0x07fcbd88   Data           0  da14531_symbols.txt ABSOLUTE
    gattc_env                                0x07fcbda0   Data           0  da14531_symbols.txt ABSOLUTE
    gattm_env                                0x07fcbdac   Data           0  da14531_symbols.txt ABSOLUTE
    l2cc_env                                 0x07fcbdd0   Data           0  da14531_symbols.txt ABSOLUTE
    ecdh_key                                 0x07fcbddc   Data           0  da14531_symbols.txt ABSOLUTE
    gapc_env                                 0x07fcbe3c   Data           0  da14531_symbols.txt ABSOLUTE
    gapm_env                                 0x07fcbe48   Data           0  da14531_symbols.txt ABSOLUTE
    ke_env                                   0x07fcbe74   Data           0  da14531_symbols.txt ABSOLUTE
    rwip_rf                                  0x07fcbf58   Data           0  da14531_symbols.txt ABSOLUTE



==============================================================================

Memory Map of the image

  Image Entry point : 0x07fc0111

  Load Region LR_IROM1 (Base: 0x07fc0000, Size: 0x000000a8, Max: 0x000000c0, ABSOLUTE)

    Execution Region ER_IROM1 (Exec base: 0x07fc0000, Load base: 0x07fc0000, Size: 0x000000a8, Max: 0x000000c0, ABSOLUTE)

    Exec Addr    Load Addr    Size         Type   Attr      Idx    E Section Name        Object

    0x07fc0000   0x07fc0000   0x000000a0   Data   RO          281    RESET               startup_da14531.o
    0x07fc00a0   0x07fc00a0   0x00000008   Data   RW          925    otp_cs_booter       otp_cs.o



  Load Region LR_IROM2 (Base: 0x07fc00c0, Size: 0x00000000, Max: 0x00000050, ABSOLUTE)

    Execution Region ER_IROM2 (Exec base: 0x07fc00c0, Load base: 0x07fc00c0, Size: 0x00000050, Max: 0x00000050, ABSOLUTE)

    Exec Addr    Load Addr    Size         Type   Attr      Idx    E Section Name        Object

    0x07fc00c0        -       0x00000050   Zero   RW            1    ER_IROM2.bss        anon$$obj.o



  Load Region LR_IROM3 (Base: 0x07fc0110, Size: 0x00005920, Max: 0x00008ab0, ABSOLUTE)

    Execution Region ER_IROM3 (Exec base: 0x07fc0110, Load base: 0x07fc0110, Size: 0x00005920, Max: 0x00008ab0, ABSOLUTE)

    Exec Addr    Load Addr    Size         Type   Attr      Idx    E Section Name        Object

    0x07fc0110   0x07fc0110   0x00000000   Code   RO         4163  * .ARM.Collect$$$$00000000  mc_p.l(entry.o)
    0x07fc0110   0x07fc0110   0x00000004   Code   RO         4164    .ARM.Collect$$$$00000001  mc_p.l(entry2.o)
    0x07fc0114   0x07fc0114   0x00000004   Code   RO         4167    .ARM.Collect$$$$00000004  mc_p.l(entry5.o)
    0x07fc0118   0x07fc0118   0x00000000   Code   RO         4169    .ARM.Collect$$$$00000008  mc_p.l(entry7b.o)
    0x07fc0118   0x07fc0118   0x00000000   Code   RO         4171    .ARM.Collect$$$$0000000A  mc_p.l(entry8b.o)
    0x07fc0118   0x07fc0118   0x00000008   Code   RO         4172    .ARM.Collect$$$$0000000B  mc_p.l(entry9a.o)
    0x07fc0120   0x07fc0120   0x00000000   Code   RO         4174    .ARM.Collect$$$$0000000D  mc_p.l(entry10a.o)
    0x07fc0120   0x07fc0120   0x00000000   Code   RO         4176    .ARM.Collect$$$$0000000F  mc_p.l(entry11a.o)
    0x07fc0120   0x07fc0120   0x00000004   Code   RO         4165    .ARM.Collect$$$$00002712  mc_p.l(entry2.o)
    0x07fc0124   0x07fc0124   0x00000094   Code   RO            3    .text               system_da14531.o
    0x07fc01b8   0x07fc01b8   0x00000050   Code   RO          282    .text               startup_da14531.o
    0x07fc0208   0x07fc0208   0x00000098   Code   RO          287    .text               hardfault_handler.o
    0x07fc02a0   0x07fc02a0   0x000000c0   Code   RO          321    .text               nmi_handler.o
    0x07fc0360   0x07fc0360   0x0000002c   Code   RO          336    .text               arch_console.o
    0x07fc038c   0x07fc038c   0x0000030c   Code   RO          388    .text               arch_main.o
    0x07fc0698   0x07fc0698   0x00000050   Code   RO          598    .text               jump_table.o
    0x07fc06e8   0x07fc06e8   0x00000124   Code   RO          672    .text               arch_sleep.o
    0x07fc080c   0x07fc080c   0x000004e8   Code   RO          711    .text               arch_system.o
    0x07fc0cf4   0x07fc0cf4   0x0000015c   Code   RO          874    .text               arch_rom.o
    0x07fc0e50   0x07fc0e50   0x00000314   Code   RO          916    .text               otp_cs.o
    0x07fc1164   0x07fc1164   0x00000010   Code   RO          980    .text               otp_hdr.o
    0x07fc1174   0x07fc1174   0x00000118   Code   RO          995    .text               syscntl.o
    0x07fc128c   0x07fc128c   0x0000023c   Code   RO         1038    .text               gpio.o
    0x07fc14c8   0x07fc14c8   0x00000144   Code   RO         1136    .text               wkupct_quadec.o
    0x07fc160c   0x07fc160c   0x00000214   Code   RO         1249    .text               adc_531.o
    0x07fc1820   0x07fc1820   0x00000084   Code   RO         1343    .text               trng.o
    0x07fc18a4   0x07fc18a4   0x00000010   Code   RO         1869    .text               systick.o
    0x07fc18b4   0x07fc18b4   0x0000039c   Code   RO         1916    .text               uart.o
    0x07fc1c50   0x07fc1c50   0x00000190   Code   RO         1983    .text               hw_otpc_531.o
    0x07fc1de0   0x07fc1de0   0x000002d4   Code   RO         2043    .text               i2c.o
    0x07fc20b4   0x07fc20b4   0x000001dc   Code   RO         2126    .text               rwble.o
    0x07fc2290   0x07fc2290   0x000001e0   Code   RO         2175    .text               rwip.o
    0x07fc2470   0x07fc2470   0x000002d0   Code   RO         2204    .text               ble_arp.o
    0x07fc2740   0x07fc2740   0x000004cc   Code   RO         2232    .text               rf_531.o
    0x07fc2c0c   0x07fc2c0c   0x00000130   Code   RO         2798    .text               custs1_task.o
    0x07fc2d3c   0x07fc2d3c   0x000000a0   Code   RO         2834    .text               prf.o
    0x07fc2ddc   0x07fc2ddc   0x00000150   Code   RO         2871    .text               app_default_handlers.o
    0x07fc2f2c   0x07fc2f2c   0x00000290   Code   RO         2956    .text               app.o
    0x07fc31bc   0x07fc31bc   0x000001d8   Code   RO         3110    .text               app_task.o
    0x07fc3394   0x07fc3394   0x0000003c   Code   RO         3144    .text               app_security.o
    0x07fc33d0   0x07fc33d0   0x0000011c   Code   RO         3182    .text               app_security_task.o
    0x07fc34ec   0x07fc34ec   0x0000003c   Code   RO         3236    .text               app_diss.o
    0x07fc3528   0x07fc3528   0x000000e0   Code   RO         3248    .text               app_diss_task.o
    0x07fc3608   0x07fc3608   0x00000028   Code   RO         3300    .text               app_msg_utils.o
    0x07fc3630   0x07fc3630   0x0000004c   Code   RO         3324    .text               app_easy_msg_utils.o
    0x07fc367c   0x07fc367c   0x00000138   Code   RO         3367    .text               app_easy_security.o
    0x07fc37b4   0x07fc37b4   0x00000002   Code   RO         3548    .text               app_easy_timer.o
    0x07fc37b6   0x07fc37b6   0x00000002   Code   RO         3549    .text               app_easy_timer.o
    0x07fc37b8   0x07fc37b8   0x00000150   Code   RO         3550    .text               app_easy_timer.o
    0x07fc3908   0x07fc3908   0x00000060   Code   RO         3596    .text               app_customs.o
    0x07fc3968   0x07fc3968   0x00000018   Code   RO         3618    .text               app_customs_task.o
    0x07fc3980   0x07fc3980   0x0000000c   Code   RO         3704    .text               app_utils.o
    0x07fc398c   0x07fc398c   0x00000180   Code   RO         3781    .text               user_periph_setup.o
    0x07fc3b0c   0x07fc3b0c   0x000000d0   Code   RO         3807    .text               accel_lis2dh_impl.o
    0x07fc3bdc   0x07fc3bdc   0x00000110   Code   RO         3835    .text               i2c_impl.o
    0x07fc3cec   0x07fc3cec   0x000003a4   Code   RO         3859    .text               lis2dh_driver.o
    0x07fc4090   0x07fc4090   0x0000015c   Code   RO         4131    .text               user_lis2dh_app.o
    0x07fc41ec   0x07fc41ec   0x00000bd0   Code   RO         4159    .text               da14531.lib(patch.o)
    0x07fc4dbc   0x07fc4dbc   0x00000024   Code   RO         4178    .text               mc_p.l(init.o)
    0x07fc4de0   0x07fc4de0   0x00000030   Code   RO          752    i.__ARM_common_ll_muluu  arch_system.o
    0x07fc4e10   0x07fc4e10   0x0000000e   Code   RO         4182    i.__scatterload_copy  mc_p.l(handlers.o)
    0x07fc4e1e   0x07fc4e1e   0x00000002   Code   RO         4183    i.__scatterload_null  mc_p.l(handlers.o)
    0x07fc4e20   0x07fc4e20   0x0000000e   Code   RO         4184    i.__scatterload_zeroinit  mc_p.l(handlers.o)
    0x07fc4e2e   0x07fc4e2e   0x00000002   PAD
    0x07fc4e30   0x07fc4e30   0x00000024   Data   RO          338    .constdata          arch_console.o
    0x07fc4e54   0x07fc4e54   0x0000000e   Data   RO          368    .constdata          nvds.o
    0x07fc4e62   0x07fc4e62   0x00000002   PAD
    0x07fc4e64   0x07fc4e64   0x00000008   Data   RO          369    .constdata          nvds.o
    0x07fc4e6c   0x07fc4e6c   0x0000017c   Data   RO          599    .constdata          jump_table.o
    0x07fc4fe8   0x07fc4fe8   0x000000ec   Data   RO          600    .constdata          jump_table.o
    0x07fc50d4   0x07fc50d4   0x00000008   Data   RO          717    .constdata          arch_system.o
    0x07fc50dc   0x07fc50dc   0x00000070   Data   RO          875    .constdata          arch_rom.o
    0x07fc514c   0x07fc514c   0x00000002   Data   RO         1051    .constdata          gpio.o
    0x07fc514e   0x07fc514e   0x00000002   PAD
    0x07fc5150   0x07fc5150   0x0000001c   Data   RO         1990    .constdata          hw_otpc_531.o
    0x07fc516c   0x07fc516c   0x00000070   Data   RO         2206    .constdata          ble_arp.o
    0x07fc51dc   0x07fc51dc   0x00000010   Data   RO         2782    .constdata          custs1.o
    0x07fc51ec   0x07fc51ec   0x00000048   Data   RO         2799    .constdata          custs1_task.o
    0x07fc5234   0x07fc5234   0x00000008   Data   RO         2800    .constdata          custs1_task.o
    0x07fc523c   0x07fc523c   0x00000018   Data   RO         2835    .constdata          prf.o
    0x07fc5254   0x07fc5254   0x0000000c   Data   RO         2836    .constdata          prf.o
    0x07fc5260   0x07fc5260   0x00000050   Data   RO         2976    .constdata          app.o
    0x07fc52b0   0x07fc52b0   0x00000070   Data   RO         3112    .constdata          app_task.o
    0x07fc5320   0x07fc5320   0x00000038   Data   RO         3184    .constdata          app_security_task.o
    0x07fc5358   0x07fc5358   0x00000008   Data   RO         3249    .constdata          app_diss_task.o
    0x07fc5360   0x07fc5360   0x0000008c   Data   RO         3277    .constdata          app_entry_point.o
    0x07fc53ec   0x07fc53ec   0x0000001c   Data   RO         3278    .constdata          app_entry_point.o
    0x07fc5408   0x07fc5408   0x00000020   Data   RO         3279    .constdata          app_entry_point.o
    0x07fc5428   0x07fc5428   0x00000007   Data   RO         3395    .constdata          app_easy_security.o
    0x07fc542f   0x07fc542f   0x00000001   PAD
    0x07fc5430   0x07fc5430   0x00000038   Data   RO         3736    .constdata          user_custs_config.o
    0x07fc5468   0x07fc5468   0x00000010   Data   RO         3749    .constdata          user_custs1_def.o
    0x07fc5478   0x07fc5478   0x00000010   Data   RO         3750    .constdata          user_custs1_def.o
    0x07fc5488   0x07fc5488   0x00000010   Data   RO         3751    .constdata          user_custs1_def.o
    0x07fc5498   0x07fc5498   0x00000010   Data   RO         3752    .constdata          user_custs1_def.o
    0x07fc54a8   0x07fc54a8   0x00000010   Data   RO         3753    .constdata          user_custs1_def.o
    0x07fc54b8   0x07fc54b8   0x00000010   Data   RO         3754    .constdata          user_custs1_def.o
    0x07fc54c8   0x07fc54c8   0x00000010   Data   RO         3755    .constdata          user_custs1_def.o
    0x07fc54d8   0x07fc54d8   0x00000010   Data   RO         3756    .constdata          user_custs1_def.o
    0x07fc54e8   0x07fc54e8   0x00000010   Data   RO         3757    .constdata          user_custs1_def.o
    0x07fc54f8   0x07fc54f8   0x00000010   Data   RO         3758    .constdata          user_custs1_def.o
    0x07fc5508   0x07fc5508   0x00000010   Data   RO         3759    .constdata          user_custs1_def.o
    0x07fc5518   0x07fc5518   0x00000010   Data   RO         3760    .constdata          user_custs1_def.o
    0x07fc5528   0x07fc5528   0x00000010   Data   RO         3761    .constdata          user_custs1_def.o
    0x07fc5538   0x07fc5538   0x00000010   Data   RO         3762    .constdata          user_custs1_def.o
    0x07fc5548   0x07fc5548   0x00000010   Data   RO         3763    .constdata          user_custs1_def.o
    0x07fc5558   0x07fc5558   0x00000002   Data   RO         3764    .constdata          user_custs1_def.o
    0x07fc555a   0x07fc555a   0x00000002   Data   RO         3765    .constdata          user_custs1_def.o
    0x07fc555c   0x07fc555c   0x00000002   Data   RO         3766    .constdata          user_custs1_def.o
    0x07fc555e   0x07fc555e   0x00000002   Data   RO         3767    .constdata          user_custs1_def.o
    0x07fc5560   0x07fc5560   0x00000004   Data   RO         3768    .constdata          user_custs1_def.o
    0x07fc5564   0x07fc5564   0x00000001   Data   RO         3769    .constdata          user_custs1_def.o
    0x07fc5565   0x07fc5565   0x00000003   PAD
    0x07fc5568   0x07fc5568   0x00000384   Data   RO         3771    .constdata          user_custs1_def.o
    0x07fc58ec   0x07fc58ec   0x00000018   Data   RO         3782    .constdata          user_periph_setup.o
    0x07fc5904   0x07fc5904   0x00000024   Data   RO         4133    .constdata          user_lis2dh_app.o
    0x07fc5928   0x07fc5928   0x00000024   Data   RO         4160    .constdata          da14531.lib(patch.o)
    0x07fc594c   0x07fc594c   0x000000ae   Data   RO         3772    .conststring        user_custs1_def.o
    0x07fc59fa   0x07fc59fa   0x00000002   PAD
    0x07fc59fc   0x07fc59fc   0x00000020   Data   RO         4180    Region$$Table       anon$$obj.o
    0x07fc5a1c   0x07fc5a1c   0x00000001   Data   RW         2247    .data               rf_531.o
    0x07fc5a1d   0x07fc5a1d   0x00000001   PAD
    0x07fc5a1e   0x07fc5a1e   0x00000010   Data   RW         3783    .data               user_periph_setup.o


    Execution Region ER_PRODTEST (Exec base: 0x07fc5a30, Load base: 0x07fc5a30, Size: 0x00000000, Max: 0xffffffff, ABSOLUTE, UNINIT)

    **** No section assigned to this execution region ****


    Execution Region ER_ZI (Exec base: 0x07fc5a30, Load base: 0x07fc5a30, Size: 0x00000790, Max: 0xffffffff, ABSOLUTE)

    Exec Addr    Load Addr    Size         Type   Attr      Idx    E Section Name        Object

    0x07fc5a30        -       0x00000100   Zero   RW          337    .bss                arch_console.o
    0x07fc5b30        -       0x0000000c   Zero   RW          715    .bss                arch_system.o
    0x07fc5b3c        -       0x00000004   Zero   RW          924    .bss                otp_cs.o
    0x07fc5b40        -       0x00000002   Zero   RW         1000    .bss                syscntl.o
    0x07fc5b42        -       0x00000002   Zero   RW         1262    .bss                adc_531.o
    0x07fc5b44        -       0x00000014   Zero   RW         1344    .bss                trng.o
    0x07fc5b58        -       0x00000030   Zero   RW         2055    .bss                i2c.o
    0x07fc5b88        -       0x00000004   Zero   RW         2176    .bss                rwip.o
    0x07fc5b8c        -       0x0000002e   Zero   RW         2246    .bss                rf_531.o
    0x07fc5bba        -       0x00000001   Zero   RW         3897    .bss                lis2dh_driver.o
    0x07fc5bbb   0x07fc5a30   0x00000005   PAD
    0x07fc5bc0        -       0x00000600   Zero   RW          279    STACK               startup_da14531.o


    Execution Region ER_NZI (Exec base: 0x07fc61c0, Load base: 0x07fc5a30, Size: 0x0000040c, Max: 0xffffffff, ABSOLUTE, UNINIT)

    Exec Addr    Load Addr    Size         Type   Attr      Idx    E Section Name        Object

    0x07fc61c0        -       0x0000040c   Zero   RW          603    heap_mem_area_not_ret  jump_table.o


    Execution Region ER_STATEFUL_HIBERNATION (Exec base: 0x07fc65cc, Load base: 0x07fc5a30, Size: 0x00000000, Max: 0xffffffff, ABSOLUTE, UNINIT)

    **** No section assigned to this execution region ****



  Load Region LR_RETAINED_RAM0 (Base: 0x07fc8bc0, Size: 0x00000000, Max: 0x00001440, ABSOLUTE)

    Execution Region RET_DATA_UNINIT (Exec base: 0x07fc8bc0, Load base: 0x07fc8bc0, Size: 0x00000000, Max: 0x00000000, ABSOLUTE, UNINIT)

    **** No section assigned to this execution region ****


    Execution Region RET_DATA (Exec base: 0x07fc8bc0, Load base: 0x07fc8bc0, Size: 0x000003d0, Max: 0x00000800, ABSOLUTE)

    Exec Addr    Load Addr    Size         Type   Attr      Idx    E Section Name        Object

    0x07fc8bc0        -       0x00000004   Zero   RW          339    retention_mem_area0  arch_console.o
    0x07fc8bc4        -       0x00000001   Zero   RW          340    retention_mem_area0  arch_console.o
    0x07fc8bc5        -       0x00000001   Zero   RW          341    retention_mem_area0  arch_console.o
    0x07fc8bc6        -       0x00000001   Zero   RW          342    retention_mem_area0  arch_console.o
    0x07fc8bc7   0x07fc8bc0   0x00000001   PAD
    0x07fc8bc8        -       0x00000008   Zero   RW          390    retention_mem_area0  arch_main.o
    0x07fc8bd0        -       0x00000004   Zero   RW          677    retention_mem_area0  arch_sleep.o
    0x07fc8bd4   0x07fc8bc0   0x00000004   PAD
    0x07fc8bd8        -       0x00000030   Zero   RW          719    retention_mem_area0  arch_system.o
    0x07fc8c08        -       0x00000002   Zero   RW          876    retention_mem_area0  arch_rom.o
    0x07fc8c0a   0x07fc8bc0   0x00000002   PAD
    0x07fc8c0c        -       0x0000005c   Zero   RW          926    retention_mem_area0  otp_cs.o
    0x07fc8c68        -       0x0000004c   Zero   RW         1052    retention_mem_area0  gpio.o
    0x07fc8cb4        -       0x0000000c   Zero   RW         1148    retention_mem_area0  wkupct_quadec.o
    0x07fc8cc0        -       0x00000004   Zero   RW         1263    retention_mem_area0  adc_531.o
    0x07fc8cc4        -       0x00000004   Zero   RW         1874    retention_mem_area0  systick.o
    0x07fc8cc8        -       0x00000040   Zero   RW         1925    retention_mem_area0  uart.o
    0x07fc8d08        -       0x00000001   Zero   RW         1991    retention_mem_area0  hw_otpc_531.o
    0x07fc8d09   0x07fc8bc0   0x00000003   PAD
    0x07fc8d0c        -       0x00000008   Zero   RW         2127    retention_mem_area0  rwble.o
    0x07fc8d14        -       0x00000008   Zero   RW         2177    retention_mem_area0  rwip.o
    0x07fc8d1c        -       0x00000004   Zero   RW         2178    retention_mem_area0  rwip.o
    0x07fc8d20        -       0x00000008   Zero   RW         2248    retention_mem_area0  rf_531.o
    0x07fc8d28        -       0x00000030   Zero   RW         2837    retention_mem_area0  prf.o
    0x07fc8d58        -       0x00000048   Zero   RW         2980    retention_mem_area0  app.o
    0x07fc8da0        -       0x00000014   Zero   RW         2981    retention_mem_area0  app.o
    0x07fc8db4        -       0x00000001   Zero   RW         3113    retention_mem_area0  app_task.o
    0x07fc8db5   0x07fc8bc0   0x00000001   PAD
    0x07fc8db6        -       0x0000007a   Zero   RW         3146    retention_mem_area0  app_security.o
    0x07fc8e30        -       0x00000018   Zero   RW         3325    retention_mem_area0  app_easy_msg_utils.o
    0x07fc8e48        -       0x00000018   Zero   RW         3397    retention_mem_area0  app_easy_security.o
    0x07fc8e60        -       0x00000050   Zero   RW         3555    retention_mem_area0  app_easy_timer.o
    0x07fc8eb0        -       0x0000000c   Zero   RW         3808    retention_mem_area0  accel_lis2dh_impl.o
    0x07fc8ebc        -       0x00000004   Zero   RW         3837    retention_mem_area0  i2c_impl.o
    0x07fc8ec0        -       0x000000ca   Zero   RW         4134    retention_mem_area0  user_lis2dh_app.o
    0x07fc8f8a        -       0x00000003   Zero   RW         4161    retention_mem_area0  da14531.lib(patch.o)


    Execution Region RET_HEAP (Exec base: 0x07fc8f90, Load base: 0x07fc8bc0, Size: 0x00000c40, Max: 0x00000c40, ABSOLUTE, UNINIT)

    Exec Addr    Load Addr    Size         Type   Attr      Idx    E Section Name        Object

    0x07fc8f90        -       0x0000040c   Zero   RW          601    heap_db_area        jump_table.o
    0x07fc939c        -       0x000002b8   Zero   RW          602    heap_env_area       jump_table.o
    0x07fc9654        -       0x0000057c   Zero   RW          604    heap_msg_area       jump_table.o



  Load Region LR_FREE_AREA (Base: 0x07fcb4ac, Size: 0x00000000, Max: 0x000003f0, ABSOLUTE)

    Execution Region ER_FREE_AREA (Exec base: 0x07fcb4ac, Load base: 0x07fcb4ac, Size: 0x00000000, Max: 0x000003f0, ABSOLUTE)

    **** No section assigned to this execution region ****



  Load Region LR_RETAINED_TRNG_STATE (Base: 0x07fcb89c, Size: 0x00000000, Max: 0x00000004, ABSOLUTE)

    Execution Region RET_DATA_UNINIT_TRNG_STATE (Exec base: 0x07fcb89c, Load base: 0x07fcb89c, Size: 0x00000004, Max: 0x00000004, ABSOLUTE, UNINIT)

    Exec Addr    Load Addr    Size         Type   Attr      Idx    E Section Name        Object

    0x07fcb89c        -       0x00000004   Zero   RW         1345    trng_state          trng.o


==============================================================================

Image component sizes


      Code (inc. data)   RO Data    RW Data    ZI Data      Debug   Object Name

       208          4          0          0         12      14405   accel_lis2dh_impl.o
       532         28          0          0          6      16264   adc_531.o
       656         38         80          0         92      20593   app.o
        96          8          0          0          0       2008   app_customs.o
        24          0          0          0          0       1597   app_customs_task.o
       336         28          0          0          0      10326   app_default_handlers.o
        60          4          0          0          0       1546   app_diss.o
       224         96          8          0          0       2643   app_diss_task.o
        76          8          0          0         24       2929   app_easy_msg_utils.o
       312         18          7          0         24      12222   app_easy_security.o
       340         26          0          0         80       5528   app_easy_timer.o
         0          0        200          0          0       3040   app_entry_point.o
        40          4          0          0          0       1567   app_msg_utils.o
        60          6          0          0        122       4228   app_security.o
       284         30         56          0          0       4838   app_security_task.o
       472         20        112          0          1      11030   app_task.o
        12          0          0          0          0       1469   app_utils.o
        44          4         36          0        263       3230   arch_console.o
       780         80          0          0          8      30363   arch_main.o
       348        136        112          0          2       2932   arch_rom.o
       292         16          0          0          4       3692   arch_sleep.o
      1304        104          8          0         60      96207   arch_system.o
       720         62        112          0          0      77200   ble_arp.o
         0          0         16          0          0       1518   custs1.o
       304         14         80          0          0       7586   custs1_task.o
       572         22          2          0         76      15183   gpio.o
       152         18          0          0          0      12037   hardfault_handler.o
       400         38         28          0          1       5122   hw_otpc_531.o
       724         24          0          0         48      12666   i2c.o
       272         10          0          0          4      10143   i2c_impl.o
        80          4        616          0       4172      12118   jump_table.o
       932          6          0          0          1       5322   lis2dh_driver.o
       192         20          0          0          0       9223   nmi_handler.o
         0          0         22          0          0       5189   nvds.o
       788         66          0          8         96       6334   otp_cs.o
        16          4          0          0          0       1269   otp_hdr.o
       160         10         36          0         48       3874   prf.o
      1228        128          0          1         54       6643   rf_531.o
       476         42          0          0          8      76150   rwble.o
       480         62          0          0         16      74870   rwip.o
        80         16        160          0       1536        824   startup_da14531.o
       280         18          0          0          2       5592   syscntl.o
       148         22          0          0          0     286710   system_da14531.o
        16          4          0          0          4       1526   systick.o
       132         18          0          0         24       2540   trng.o
       924         26          0          0         64      23625   uart.o
         0          0       1327          0          0       2015   user_custs1_def.o
         0          0         56          0          0        977   user_custs_config.o
       348         88         36          0        202       4079   user_lis2dh_app.o
       384         24         24         16          0      11055   user_periph_setup.o
       324         24          0          0         12      13001   wkupct_quadec.o

    ----------------------------------------------------------------------
     16632       1428       3176         28       7162     947048   Object Totals
         0          0         32          0         80          0   (incl. Generated)
         0          0         10          3         16          0   (incl. Padding)

    ----------------------------------------------------------------------

      Code (inc. data)   RO Data    RW Data    ZI Data      Debug   Library Member Name

      3024        126         36          0          3        564   patch.o
         0          0          0          0          0          0   entry.o
         0          0          0          0          0          0   entry10a.o
         0          0          0          0          0          0   entry11a.o
         8          4          0          0          0          0   entry2.o
         4          0          0          0          0          0   entry5.o
         0          0          0          0          0          0   entry7b.o
         0          0          0          0          0          0   entry8b.o
         8          4          0          0          0          0   entry9a.o
        30          0          0          0          0          0   handlers.o
        36          8          0          0          0         68   init.o

    ----------------------------------------------------------------------
      3112        142         36          0          6        632   Library Totals
         2          0          0          0          3          0   (incl. Padding)

    ----------------------------------------------------------------------

      Code (inc. data)   RO Data    RW Data    ZI Data      Debug   Library Name

      3024        126         36          0          3        564   da14531.lib
        86         16          0          0          0         68   mc_p.l

    ----------------------------------------------------------------------
      3112        142         36          0          6        632   Library Totals

    ----------------------------------------------------------------------

==============================================================================


      Code (inc. data)   RO Data    RW Data    ZI Data      Debug   

     19744       1570       3212         28       7168     944356   Grand Totals
     19744       1570       3212         28       7168     944356   ELF Image Totals
     19744       1570       3212         28          0          0   ROM Totals

==============================================================================

    Total RO  Size (Code + RO Data)                22956 (  22.42kB)
    Total RW  Size (RW Data + ZI Data)              7196 (   7.03kB)
    Total ROM Size (Code + RO Data + RW Data)      22984 (  22.45kB)

==============================================================================

